ARM GAS  C:\Users\mark6\AppData\Local\Temp\ccvgZ1jj.s 			page 1


   1              		.syntax unified
   2              		.cpu cortex-m3
   3              		.fpu softvfp
   4              		.eabi_attribute 20, 1
   5              		.eabi_attribute 21, 1
   6              		.eabi_attribute 23, 3
   7              		.eabi_attribute 24, 1
   8              		.eabi_attribute 25, 1
   9              		.eabi_attribute 26, 1
  10              		.eabi_attribute 30, 1
  11              		.eabi_attribute 34, 1
  12              		.eabi_attribute 18, 4
  13              		.thumb
  14              		.file	"Counter_1.c"
  15              		.text
  16              	.Ltext0:
  17              		.cfi_sections	.debug_frame
  18              		.section	.text.Counter_1_Enable,"ax",%progbits
  19              		.align	2
  20              		.global	Counter_1_Enable
  21              		.thumb
  22              		.thumb_func
  23              		.type	Counter_1_Enable, %function
  24              	Counter_1_Enable:
  25              	.LFB1:
  26              		.file 1 ".\\Generated_Source\\PSoC5\\Counter_1.c"
   1:.\Generated_Source\PSoC5/Counter_1.c **** /*******************************************************************************
   2:.\Generated_Source\PSoC5/Counter_1.c **** * File Name: Counter_1.c  
   3:.\Generated_Source\PSoC5/Counter_1.c **** * Version 3.0
   4:.\Generated_Source\PSoC5/Counter_1.c **** *
   5:.\Generated_Source\PSoC5/Counter_1.c **** *  Description:
   6:.\Generated_Source\PSoC5/Counter_1.c **** *     The Counter component consists of a 8, 16, 24 or 32-bit counter with
   7:.\Generated_Source\PSoC5/Counter_1.c **** *     a selectable period between 2 and 2^Width - 1.  
   8:.\Generated_Source\PSoC5/Counter_1.c **** *
   9:.\Generated_Source\PSoC5/Counter_1.c **** *   Note:
  10:.\Generated_Source\PSoC5/Counter_1.c **** *     None
  11:.\Generated_Source\PSoC5/Counter_1.c **** *
  12:.\Generated_Source\PSoC5/Counter_1.c **** ********************************************************************************
  13:.\Generated_Source\PSoC5/Counter_1.c **** * Copyright 2008-2012, Cypress Semiconductor Corporation.  All rights reserved.
  14:.\Generated_Source\PSoC5/Counter_1.c **** * You may use this file only in accordance with the license, terms, conditions, 
  15:.\Generated_Source\PSoC5/Counter_1.c **** * disclaimers, and limitations in the end user license agreement accompanying 
  16:.\Generated_Source\PSoC5/Counter_1.c **** * the software package with which this file was provided.
  17:.\Generated_Source\PSoC5/Counter_1.c **** *******************************************************************************/
  18:.\Generated_Source\PSoC5/Counter_1.c **** 
  19:.\Generated_Source\PSoC5/Counter_1.c **** #include "Counter_1.h"
  20:.\Generated_Source\PSoC5/Counter_1.c **** 
  21:.\Generated_Source\PSoC5/Counter_1.c **** uint8 Counter_1_initVar = 0u;
  22:.\Generated_Source\PSoC5/Counter_1.c **** 
  23:.\Generated_Source\PSoC5/Counter_1.c **** 
  24:.\Generated_Source\PSoC5/Counter_1.c **** /*******************************************************************************
  25:.\Generated_Source\PSoC5/Counter_1.c **** * Function Name: Counter_1_Init
  26:.\Generated_Source\PSoC5/Counter_1.c **** ********************************************************************************
  27:.\Generated_Source\PSoC5/Counter_1.c **** * Summary:
  28:.\Generated_Source\PSoC5/Counter_1.c **** *     Initialize to the schematic state
  29:.\Generated_Source\PSoC5/Counter_1.c **** * 
  30:.\Generated_Source\PSoC5/Counter_1.c **** * Parameters:  
  31:.\Generated_Source\PSoC5/Counter_1.c **** *  void  
ARM GAS  C:\Users\mark6\AppData\Local\Temp\ccvgZ1jj.s 			page 2


  32:.\Generated_Source\PSoC5/Counter_1.c **** *
  33:.\Generated_Source\PSoC5/Counter_1.c **** * Return: 
  34:.\Generated_Source\PSoC5/Counter_1.c **** *  void
  35:.\Generated_Source\PSoC5/Counter_1.c **** *
  36:.\Generated_Source\PSoC5/Counter_1.c **** *******************************************************************************/
  37:.\Generated_Source\PSoC5/Counter_1.c **** void Counter_1_Init(void) 
  38:.\Generated_Source\PSoC5/Counter_1.c **** {
  39:.\Generated_Source\PSoC5/Counter_1.c ****         #if (!Counter_1_UsingFixedFunction && !Counter_1_ControlRegRemoved)
  40:.\Generated_Source\PSoC5/Counter_1.c ****             uint8 ctrl;
  41:.\Generated_Source\PSoC5/Counter_1.c ****         #endif /* (!Counter_1_UsingFixedFunction && !Counter_1_ControlRegRemoved) */
  42:.\Generated_Source\PSoC5/Counter_1.c ****         
  43:.\Generated_Source\PSoC5/Counter_1.c ****         #if(!Counter_1_UsingFixedFunction) 
  44:.\Generated_Source\PSoC5/Counter_1.c ****             /* Interrupt State Backup for Critical Region*/
  45:.\Generated_Source\PSoC5/Counter_1.c ****             uint8 Counter_1_interruptState;
  46:.\Generated_Source\PSoC5/Counter_1.c ****         #endif /* (!Counter_1_UsingFixedFunction) */
  47:.\Generated_Source\PSoC5/Counter_1.c ****         
  48:.\Generated_Source\PSoC5/Counter_1.c ****         #if (Counter_1_UsingFixedFunction)
  49:.\Generated_Source\PSoC5/Counter_1.c ****             /* Clear all bits but the enable bit (if it's already set for Timer operation */
  50:.\Generated_Source\PSoC5/Counter_1.c ****             Counter_1_CONTROL &= Counter_1_CTRL_ENABLE;
  51:.\Generated_Source\PSoC5/Counter_1.c ****             
  52:.\Generated_Source\PSoC5/Counter_1.c ****             /* Clear the mode bits for continuous run mode */
  53:.\Generated_Source\PSoC5/Counter_1.c ****             #if (CY_PSOC5A)
  54:.\Generated_Source\PSoC5/Counter_1.c ****                 Counter_1_CONTROL2 &= ((uint8)(~Counter_1_CTRL_MODE_MASK));
  55:.\Generated_Source\PSoC5/Counter_1.c ****             #endif /* (CY_PSOC5A) */
  56:.\Generated_Source\PSoC5/Counter_1.c ****             #if (CY_PSOC3 || CY_PSOC5LP)
  57:.\Generated_Source\PSoC5/Counter_1.c ****                 Counter_1_CONTROL3 &= ((uint8)(~Counter_1_CTRL_MODE_MASK));                
  58:.\Generated_Source\PSoC5/Counter_1.c ****             #endif /* (CY_PSOC3 || CY_PSOC5LP) */
  59:.\Generated_Source\PSoC5/Counter_1.c ****             /* Check if One Shot mode is enabled i.e. RunMode !=0*/
  60:.\Generated_Source\PSoC5/Counter_1.c ****             #if (Counter_1_RunModeUsed != 0x0u)
  61:.\Generated_Source\PSoC5/Counter_1.c ****                 /* Set 3rd bit of Control register to enable one shot mode */
  62:.\Generated_Source\PSoC5/Counter_1.c ****                 Counter_1_CONTROL |= Counter_1_ONESHOT;
  63:.\Generated_Source\PSoC5/Counter_1.c ****             #endif /* (Counter_1_RunModeUsed != 0x0u) */
  64:.\Generated_Source\PSoC5/Counter_1.c ****             
  65:.\Generated_Source\PSoC5/Counter_1.c ****             /* Set the IRQ to use the status register interrupts */
  66:.\Generated_Source\PSoC5/Counter_1.c ****             Counter_1_CONTROL2 |= Counter_1_CTRL2_IRQ_SEL;
  67:.\Generated_Source\PSoC5/Counter_1.c ****             
  68:.\Generated_Source\PSoC5/Counter_1.c ****             /* Clear and Set SYNCTC and SYNCCMP bits of RT1 register */
  69:.\Generated_Source\PSoC5/Counter_1.c ****             Counter_1_RT1 &= ((uint8)(~Counter_1_RT1_MASK));
  70:.\Generated_Source\PSoC5/Counter_1.c ****             Counter_1_RT1 |= Counter_1_SYNC;     
  71:.\Generated_Source\PSoC5/Counter_1.c ****                     
  72:.\Generated_Source\PSoC5/Counter_1.c ****             /*Enable DSI Sync all all inputs of the Timer*/
  73:.\Generated_Source\PSoC5/Counter_1.c ****             Counter_1_RT1 &= ((uint8)(~Counter_1_SYNCDSI_MASK));
  74:.\Generated_Source\PSoC5/Counter_1.c ****             Counter_1_RT1 |= Counter_1_SYNCDSI_EN;
  75:.\Generated_Source\PSoC5/Counter_1.c **** 
  76:.\Generated_Source\PSoC5/Counter_1.c ****         #else
  77:.\Generated_Source\PSoC5/Counter_1.c ****             #if(!Counter_1_ControlRegRemoved)
  78:.\Generated_Source\PSoC5/Counter_1.c ****             /* Set the default compare mode defined in the parameter */
  79:.\Generated_Source\PSoC5/Counter_1.c ****             ctrl = Counter_1_CONTROL & ((uint8)(~Counter_1_CTRL_CMPMODE_MASK));
  80:.\Generated_Source\PSoC5/Counter_1.c ****             Counter_1_CONTROL = ctrl | Counter_1_DEFAULT_COMPARE_MODE;
  81:.\Generated_Source\PSoC5/Counter_1.c ****             
  82:.\Generated_Source\PSoC5/Counter_1.c ****             /* Set the default capture mode defined in the parameter */
  83:.\Generated_Source\PSoC5/Counter_1.c ****             ctrl = Counter_1_CONTROL & ((uint8)(~Counter_1_CTRL_CAPMODE_MASK));
  84:.\Generated_Source\PSoC5/Counter_1.c ****             
  85:.\Generated_Source\PSoC5/Counter_1.c ****             #if( 0 != Counter_1_CAPTURE_MODE_CONF)
  86:.\Generated_Source\PSoC5/Counter_1.c ****                 Counter_1_CONTROL = ctrl | Counter_1_DEFAULT_CAPTURE_MODE;
  87:.\Generated_Source\PSoC5/Counter_1.c ****             #else
  88:.\Generated_Source\PSoC5/Counter_1.c ****                 Counter_1_CONTROL = ctrl;
ARM GAS  C:\Users\mark6\AppData\Local\Temp\ccvgZ1jj.s 			page 3


  89:.\Generated_Source\PSoC5/Counter_1.c ****             #endif /* 0 != Counter_1_CAPTURE_MODE */ 
  90:.\Generated_Source\PSoC5/Counter_1.c ****             
  91:.\Generated_Source\PSoC5/Counter_1.c ****             #endif /* (!Counter_1_ControlRegRemoved) */
  92:.\Generated_Source\PSoC5/Counter_1.c ****         #endif /* (Counter_1_UsingFixedFunction) */
  93:.\Generated_Source\PSoC5/Counter_1.c ****         
  94:.\Generated_Source\PSoC5/Counter_1.c ****         /* Clear all data in the FIFO's */
  95:.\Generated_Source\PSoC5/Counter_1.c ****         #if (!Counter_1_UsingFixedFunction)
  96:.\Generated_Source\PSoC5/Counter_1.c ****             Counter_1_ClearFIFO();
  97:.\Generated_Source\PSoC5/Counter_1.c ****         #endif /* (!Counter_1_UsingFixedFunction) */
  98:.\Generated_Source\PSoC5/Counter_1.c ****         
  99:.\Generated_Source\PSoC5/Counter_1.c ****         /* Set Initial values from Configuration */
 100:.\Generated_Source\PSoC5/Counter_1.c ****         Counter_1_WritePeriod(Counter_1_INIT_PERIOD_VALUE);
 101:.\Generated_Source\PSoC5/Counter_1.c ****         #if (!(Counter_1_UsingFixedFunction && (CY_PSOC5A)))
 102:.\Generated_Source\PSoC5/Counter_1.c ****             Counter_1_WriteCounter(Counter_1_INIT_COUNTER_VALUE);
 103:.\Generated_Source\PSoC5/Counter_1.c ****         #endif /* (!(Counter_1_UsingFixedFunction && (CY_PSOC5A))) */
 104:.\Generated_Source\PSoC5/Counter_1.c ****         Counter_1_SetInterruptMode(Counter_1_INIT_INTERRUPTS_MASK);
 105:.\Generated_Source\PSoC5/Counter_1.c ****         
 106:.\Generated_Source\PSoC5/Counter_1.c ****         #if (!Counter_1_UsingFixedFunction)
 107:.\Generated_Source\PSoC5/Counter_1.c ****             /* Read the status register to clear the unwanted interrupts */
 108:.\Generated_Source\PSoC5/Counter_1.c ****             (void)Counter_1_ReadStatusRegister();
 109:.\Generated_Source\PSoC5/Counter_1.c ****             /* Set the compare value (only available to non-fixed function implementation */
 110:.\Generated_Source\PSoC5/Counter_1.c ****             Counter_1_WriteCompare(Counter_1_INIT_COMPARE_VALUE);
 111:.\Generated_Source\PSoC5/Counter_1.c ****             /* Use the interrupt output of the status register for IRQ output */
 112:.\Generated_Source\PSoC5/Counter_1.c ****             
 113:.\Generated_Source\PSoC5/Counter_1.c ****             /* CyEnterCriticalRegion and CyExitCriticalRegion are used to mark following region cri
 114:.\Generated_Source\PSoC5/Counter_1.c ****             /* Enter Critical Region*/
 115:.\Generated_Source\PSoC5/Counter_1.c ****             Counter_1_interruptState = CyEnterCriticalSection();
 116:.\Generated_Source\PSoC5/Counter_1.c ****             
 117:.\Generated_Source\PSoC5/Counter_1.c ****             Counter_1_STATUS_AUX_CTRL |= Counter_1_STATUS_ACTL_INT_EN_MASK;
 118:.\Generated_Source\PSoC5/Counter_1.c ****             
 119:.\Generated_Source\PSoC5/Counter_1.c ****             /* Exit Critical Region*/
 120:.\Generated_Source\PSoC5/Counter_1.c ****             CyExitCriticalSection(Counter_1_interruptState);
 121:.\Generated_Source\PSoC5/Counter_1.c ****             
 122:.\Generated_Source\PSoC5/Counter_1.c ****         #endif /* (!Counter_1_UsingFixedFunction) */
 123:.\Generated_Source\PSoC5/Counter_1.c **** }
 124:.\Generated_Source\PSoC5/Counter_1.c **** 
 125:.\Generated_Source\PSoC5/Counter_1.c **** 
 126:.\Generated_Source\PSoC5/Counter_1.c **** /*******************************************************************************
 127:.\Generated_Source\PSoC5/Counter_1.c **** * Function Name: Counter_1_Enable
 128:.\Generated_Source\PSoC5/Counter_1.c **** ********************************************************************************
 129:.\Generated_Source\PSoC5/Counter_1.c **** * Summary:
 130:.\Generated_Source\PSoC5/Counter_1.c **** *     Enable the Counter
 131:.\Generated_Source\PSoC5/Counter_1.c **** * 
 132:.\Generated_Source\PSoC5/Counter_1.c **** * Parameters:  
 133:.\Generated_Source\PSoC5/Counter_1.c **** *  void  
 134:.\Generated_Source\PSoC5/Counter_1.c **** *
 135:.\Generated_Source\PSoC5/Counter_1.c **** * Return: 
 136:.\Generated_Source\PSoC5/Counter_1.c **** *  void
 137:.\Generated_Source\PSoC5/Counter_1.c **** *
 138:.\Generated_Source\PSoC5/Counter_1.c **** * Side Effects: 
 139:.\Generated_Source\PSoC5/Counter_1.c **** *   If the Enable mode is set to Hardware only then this function has no effect 
 140:.\Generated_Source\PSoC5/Counter_1.c **** *   on the operation of the counter.
 141:.\Generated_Source\PSoC5/Counter_1.c **** *
 142:.\Generated_Source\PSoC5/Counter_1.c **** *******************************************************************************/
 143:.\Generated_Source\PSoC5/Counter_1.c **** void Counter_1_Enable(void) 
 144:.\Generated_Source\PSoC5/Counter_1.c **** {
  27              		.loc 1 144 0
ARM GAS  C:\Users\mark6\AppData\Local\Temp\ccvgZ1jj.s 			page 4


  28              		.cfi_startproc
  29              		@ args = 0, pretend = 0, frame = 0
  30              		@ frame_needed = 0, uses_anonymous_args = 0
  31              		@ link register save eliminated.
 145:.\Generated_Source\PSoC5/Counter_1.c ****     /* Globally Enable the Fixed Function Block chosen */
 146:.\Generated_Source\PSoC5/Counter_1.c ****     #if (Counter_1_UsingFixedFunction)
 147:.\Generated_Source\PSoC5/Counter_1.c ****         Counter_1_GLOBAL_ENABLE |= Counter_1_BLOCK_EN_MASK;
  32              		.loc 1 147 0
  33 0000 084A     		ldr	r2, .L2
  34 0002 1378     		ldrb	r3, [r2]	@ zero_extendqisi2
  35 0004 43F00103 		orr	r3, r3, #1
  36 0008 1370     		strb	r3, [r2]
 148:.\Generated_Source\PSoC5/Counter_1.c ****         Counter_1_GLOBAL_STBY_ENABLE |= Counter_1_BLOCK_STBY_EN_MASK;
  37              		.loc 1 148 0
  38 000a 1032     		adds	r2, r2, #16
  39 000c 1378     		ldrb	r3, [r2]	@ zero_extendqisi2
  40 000e 43F00103 		orr	r3, r3, #1
  41 0012 1370     		strb	r3, [r2]
 149:.\Generated_Source\PSoC5/Counter_1.c ****     #endif /* (Counter_1_UsingFixedFunction) */  
 150:.\Generated_Source\PSoC5/Counter_1.c ****         
 151:.\Generated_Source\PSoC5/Counter_1.c ****     /* Enable the counter from the control register  */
 152:.\Generated_Source\PSoC5/Counter_1.c ****     /* If Fixed Function then make sure Mode is set correctly */
 153:.\Generated_Source\PSoC5/Counter_1.c ****     /* else make sure reset is clear */
 154:.\Generated_Source\PSoC5/Counter_1.c ****     #if(!Counter_1_ControlRegRemoved || Counter_1_UsingFixedFunction)
 155:.\Generated_Source\PSoC5/Counter_1.c ****         Counter_1_CONTROL |= Counter_1_CTRL_ENABLE;                
  42              		.loc 1 155 0
  43 0014 02F64D32 		addw	r2, r2, #2893
  44 0018 1378     		ldrb	r3, [r2]	@ zero_extendqisi2
  45 001a 43F00103 		orr	r3, r3, #1
  46 001e 1370     		strb	r3, [r2]
  47 0020 7047     		bx	lr
  48              	.L3:
  49 0022 00BF     		.align	2
  50              	.L2:
  51 0024 A3430040 		.word	1073759139
  52              		.cfi_endproc
  53              	.LFE1:
  54              		.size	Counter_1_Enable, .-Counter_1_Enable
  55              		.section	.text.Counter_1_Stop,"ax",%progbits
  56              		.align	2
  57              		.global	Counter_1_Stop
  58              		.thumb
  59              		.thumb_func
  60              		.type	Counter_1_Stop, %function
  61              	Counter_1_Stop:
  62              	.LFB3:
 156:.\Generated_Source\PSoC5/Counter_1.c ****     #endif /* (!Counter_1_ControlRegRemoved || Counter_1_UsingFixedFunction) */
 157:.\Generated_Source\PSoC5/Counter_1.c ****     
 158:.\Generated_Source\PSoC5/Counter_1.c **** }
 159:.\Generated_Source\PSoC5/Counter_1.c **** 
 160:.\Generated_Source\PSoC5/Counter_1.c **** 
 161:.\Generated_Source\PSoC5/Counter_1.c **** /*******************************************************************************
 162:.\Generated_Source\PSoC5/Counter_1.c **** * Function Name: Counter_1_Start
 163:.\Generated_Source\PSoC5/Counter_1.c **** ********************************************************************************
 164:.\Generated_Source\PSoC5/Counter_1.c **** * Summary:
 165:.\Generated_Source\PSoC5/Counter_1.c **** *  Enables the counter for operation 
 166:.\Generated_Source\PSoC5/Counter_1.c **** *
ARM GAS  C:\Users\mark6\AppData\Local\Temp\ccvgZ1jj.s 			page 5


 167:.\Generated_Source\PSoC5/Counter_1.c **** * Parameters:  
 168:.\Generated_Source\PSoC5/Counter_1.c **** *  void  
 169:.\Generated_Source\PSoC5/Counter_1.c **** *
 170:.\Generated_Source\PSoC5/Counter_1.c **** * Return: 
 171:.\Generated_Source\PSoC5/Counter_1.c **** *  void
 172:.\Generated_Source\PSoC5/Counter_1.c **** *
 173:.\Generated_Source\PSoC5/Counter_1.c **** * Global variables:
 174:.\Generated_Source\PSoC5/Counter_1.c **** *  Counter_1_initVar: Is modified when this function is called for the  
 175:.\Generated_Source\PSoC5/Counter_1.c **** *   first time. Is used to ensure that initialization happens only once.
 176:.\Generated_Source\PSoC5/Counter_1.c **** *
 177:.\Generated_Source\PSoC5/Counter_1.c **** *******************************************************************************/
 178:.\Generated_Source\PSoC5/Counter_1.c **** void Counter_1_Start(void) 
 179:.\Generated_Source\PSoC5/Counter_1.c **** {
 180:.\Generated_Source\PSoC5/Counter_1.c ****     if(Counter_1_initVar == 0u)
 181:.\Generated_Source\PSoC5/Counter_1.c ****     {
 182:.\Generated_Source\PSoC5/Counter_1.c ****         Counter_1_Init();
 183:.\Generated_Source\PSoC5/Counter_1.c ****         
 184:.\Generated_Source\PSoC5/Counter_1.c ****         Counter_1_initVar = 1u; /* Clear this bit for Initialization */        
 185:.\Generated_Source\PSoC5/Counter_1.c ****     }
 186:.\Generated_Source\PSoC5/Counter_1.c ****     
 187:.\Generated_Source\PSoC5/Counter_1.c ****     /* Enable the Counter */
 188:.\Generated_Source\PSoC5/Counter_1.c ****     Counter_1_Enable();        
 189:.\Generated_Source\PSoC5/Counter_1.c **** }
 190:.\Generated_Source\PSoC5/Counter_1.c **** 
 191:.\Generated_Source\PSoC5/Counter_1.c **** 
 192:.\Generated_Source\PSoC5/Counter_1.c **** /*******************************************************************************
 193:.\Generated_Source\PSoC5/Counter_1.c **** * Function Name: Counter_1_Stop
 194:.\Generated_Source\PSoC5/Counter_1.c **** ********************************************************************************
 195:.\Generated_Source\PSoC5/Counter_1.c **** * Summary:
 196:.\Generated_Source\PSoC5/Counter_1.c **** * Halts the counter, but does not change any modes or disable interrupts.
 197:.\Generated_Source\PSoC5/Counter_1.c **** *
 198:.\Generated_Source\PSoC5/Counter_1.c **** * Parameters:  
 199:.\Generated_Source\PSoC5/Counter_1.c **** *  void  
 200:.\Generated_Source\PSoC5/Counter_1.c **** *
 201:.\Generated_Source\PSoC5/Counter_1.c **** * Return: 
 202:.\Generated_Source\PSoC5/Counter_1.c **** *  void
 203:.\Generated_Source\PSoC5/Counter_1.c **** *
 204:.\Generated_Source\PSoC5/Counter_1.c **** * Side Effects: If the Enable mode is set to Hardware only then this function
 205:.\Generated_Source\PSoC5/Counter_1.c **** *               has no effect on the operation of the counter.
 206:.\Generated_Source\PSoC5/Counter_1.c **** *
 207:.\Generated_Source\PSoC5/Counter_1.c **** *******************************************************************************/
 208:.\Generated_Source\PSoC5/Counter_1.c **** void Counter_1_Stop(void) 
 209:.\Generated_Source\PSoC5/Counter_1.c **** {
  63              		.loc 1 209 0
  64              		.cfi_startproc
  65              		@ args = 0, pretend = 0, frame = 0
  66              		@ frame_needed = 0, uses_anonymous_args = 0
  67              		@ link register save eliminated.
 210:.\Generated_Source\PSoC5/Counter_1.c ****     /* Disable Counter */
 211:.\Generated_Source\PSoC5/Counter_1.c ****     #if(!Counter_1_ControlRegRemoved || Counter_1_UsingFixedFunction)
 212:.\Generated_Source\PSoC5/Counter_1.c ****         Counter_1_CONTROL &= ((uint8)(~Counter_1_CTRL_ENABLE));        
  68              		.loc 1 212 0
  69 0000 084A     		ldr	r2, .L5
  70 0002 1378     		ldrb	r3, [r2]	@ zero_extendqisi2
  71 0004 03F0FE03 		and	r3, r3, #254
  72 0008 1370     		strb	r3, [r2]
 213:.\Generated_Source\PSoC5/Counter_1.c ****     #endif /* (!Counter_1_ControlRegRemoved || Counter_1_UsingFixedFunction) */
ARM GAS  C:\Users\mark6\AppData\Local\Temp\ccvgZ1jj.s 			page 6


 214:.\Generated_Source\PSoC5/Counter_1.c ****     
 215:.\Generated_Source\PSoC5/Counter_1.c ****     /* Globally disable the Fixed Function Block chosen */
 216:.\Generated_Source\PSoC5/Counter_1.c ****     #if (Counter_1_UsingFixedFunction)
 217:.\Generated_Source\PSoC5/Counter_1.c ****         Counter_1_GLOBAL_ENABLE &= ((uint8)(~Counter_1_BLOCK_EN_MASK));
  73              		.loc 1 217 0
  74 000a A2F65D32 		subw	r2, r2, #2909
  75 000e 1378     		ldrb	r3, [r2]	@ zero_extendqisi2
  76 0010 03F0FE03 		and	r3, r3, #254
  77 0014 1370     		strb	r3, [r2]
 218:.\Generated_Source\PSoC5/Counter_1.c ****         Counter_1_GLOBAL_STBY_ENABLE &= ((uint8)(~Counter_1_BLOCK_STBY_EN_MASK));
  78              		.loc 1 218 0
  79 0016 1032     		adds	r2, r2, #16
  80 0018 1378     		ldrb	r3, [r2]	@ zero_extendqisi2
  81 001a 03F0FE03 		and	r3, r3, #254
  82 001e 1370     		strb	r3, [r2]
  83 0020 7047     		bx	lr
  84              	.L6:
  85 0022 00BF     		.align	2
  86              	.L5:
  87 0024 004F0040 		.word	1073762048
  88              		.cfi_endproc
  89              	.LFE3:
  90              		.size	Counter_1_Stop, .-Counter_1_Stop
  91              		.section	.text.Counter_1_SetInterruptMode,"ax",%progbits
  92              		.align	2
  93              		.global	Counter_1_SetInterruptMode
  94              		.thumb
  95              		.thumb_func
  96              		.type	Counter_1_SetInterruptMode, %function
  97              	Counter_1_SetInterruptMode:
  98              	.LFB4:
 219:.\Generated_Source\PSoC5/Counter_1.c ****     #endif /* (Counter_1_UsingFixedFunction) */
 220:.\Generated_Source\PSoC5/Counter_1.c **** }
 221:.\Generated_Source\PSoC5/Counter_1.c **** 
 222:.\Generated_Source\PSoC5/Counter_1.c **** 
 223:.\Generated_Source\PSoC5/Counter_1.c **** /*******************************************************************************
 224:.\Generated_Source\PSoC5/Counter_1.c **** * Function Name: Counter_1_SetInterruptMode
 225:.\Generated_Source\PSoC5/Counter_1.c **** ********************************************************************************
 226:.\Generated_Source\PSoC5/Counter_1.c **** * Summary:
 227:.\Generated_Source\PSoC5/Counter_1.c **** * Configures which interrupt sources are enabled to generate the final interrupt
 228:.\Generated_Source\PSoC5/Counter_1.c **** *
 229:.\Generated_Source\PSoC5/Counter_1.c **** * Parameters:  
 230:.\Generated_Source\PSoC5/Counter_1.c **** *  InterruptsMask: This parameter is an or'd collection of the status bits
 231:.\Generated_Source\PSoC5/Counter_1.c **** *                   which will be allowed to generate the counters interrupt.   
 232:.\Generated_Source\PSoC5/Counter_1.c **** *
 233:.\Generated_Source\PSoC5/Counter_1.c **** * Return: 
 234:.\Generated_Source\PSoC5/Counter_1.c **** *  void
 235:.\Generated_Source\PSoC5/Counter_1.c **** *
 236:.\Generated_Source\PSoC5/Counter_1.c **** *******************************************************************************/
 237:.\Generated_Source\PSoC5/Counter_1.c **** void Counter_1_SetInterruptMode(uint8 interruptsMask) 
 238:.\Generated_Source\PSoC5/Counter_1.c **** {
  99              		.loc 1 238 0
 100              		.cfi_startproc
 101              		@ args = 0, pretend = 0, frame = 0
 102              		@ frame_needed = 0, uses_anonymous_args = 0
 103              		@ link register save eliminated.
 104              	.LVL0:
ARM GAS  C:\Users\mark6\AppData\Local\Temp\ccvgZ1jj.s 			page 7


 239:.\Generated_Source\PSoC5/Counter_1.c ****     Counter_1_STATUS_MASK = interruptsMask;
 105              		.loc 1 239 0
 106 0000 014B     		ldr	r3, .L8
 107 0002 1870     		strb	r0, [r3]
 108 0004 7047     		bx	lr
 109              	.L9:
 110 0006 00BF     		.align	2
 111              	.L8:
 112 0008 034F0040 		.word	1073762051
 113              		.cfi_endproc
 114              	.LFE4:
 115              		.size	Counter_1_SetInterruptMode, .-Counter_1_SetInterruptMode
 116              		.section	.text.Counter_1_ReadStatusRegister,"ax",%progbits
 117              		.align	2
 118              		.global	Counter_1_ReadStatusRegister
 119              		.thumb
 120              		.thumb_func
 121              		.type	Counter_1_ReadStatusRegister, %function
 122              	Counter_1_ReadStatusRegister:
 123              	.LFB5:
 240:.\Generated_Source\PSoC5/Counter_1.c **** }
 241:.\Generated_Source\PSoC5/Counter_1.c **** 
 242:.\Generated_Source\PSoC5/Counter_1.c **** 
 243:.\Generated_Source\PSoC5/Counter_1.c **** /*******************************************************************************
 244:.\Generated_Source\PSoC5/Counter_1.c **** * Function Name: Counter_1_ReadStatusRegister
 245:.\Generated_Source\PSoC5/Counter_1.c **** ********************************************************************************
 246:.\Generated_Source\PSoC5/Counter_1.c **** * Summary:
 247:.\Generated_Source\PSoC5/Counter_1.c **** *   Reads the status register and returns it's state. This function should use
 248:.\Generated_Source\PSoC5/Counter_1.c **** *       defined types for the bit-field information as the bits in this
 249:.\Generated_Source\PSoC5/Counter_1.c **** *       register may be permuteable.
 250:.\Generated_Source\PSoC5/Counter_1.c **** *
 251:.\Generated_Source\PSoC5/Counter_1.c **** * Parameters:  
 252:.\Generated_Source\PSoC5/Counter_1.c **** *  void
 253:.\Generated_Source\PSoC5/Counter_1.c **** *
 254:.\Generated_Source\PSoC5/Counter_1.c **** * Return: 
 255:.\Generated_Source\PSoC5/Counter_1.c **** *  (uint8) The contents of the status register
 256:.\Generated_Source\PSoC5/Counter_1.c **** *
 257:.\Generated_Source\PSoC5/Counter_1.c **** * Side Effects:
 258:.\Generated_Source\PSoC5/Counter_1.c **** *   Status register bits may be clear on read. 
 259:.\Generated_Source\PSoC5/Counter_1.c **** *
 260:.\Generated_Source\PSoC5/Counter_1.c **** *******************************************************************************/
 261:.\Generated_Source\PSoC5/Counter_1.c **** uint8   Counter_1_ReadStatusRegister(void) 
 262:.\Generated_Source\PSoC5/Counter_1.c **** {
 124              		.loc 1 262 0
 125              		.cfi_startproc
 126              		@ args = 0, pretend = 0, frame = 0
 127              		@ frame_needed = 0, uses_anonymous_args = 0
 128              		@ link register save eliminated.
 263:.\Generated_Source\PSoC5/Counter_1.c ****     return Counter_1_STATUS;
 129              		.loc 1 263 0
 130 0000 014B     		ldr	r3, .L11
 131 0002 1878     		ldrb	r0, [r3]	@ zero_extendqisi2
 264:.\Generated_Source\PSoC5/Counter_1.c **** }
 132              		.loc 1 264 0
 133 0004 7047     		bx	lr
 134              	.L12:
 135 0006 00BF     		.align	2
ARM GAS  C:\Users\mark6\AppData\Local\Temp\ccvgZ1jj.s 			page 8


 136              	.L11:
 137 0008 034F0040 		.word	1073762051
 138              		.cfi_endproc
 139              	.LFE5:
 140              		.size	Counter_1_ReadStatusRegister, .-Counter_1_ReadStatusRegister
 141              		.section	.text.Counter_1_ReadControlRegister,"ax",%progbits
 142              		.align	2
 143              		.global	Counter_1_ReadControlRegister
 144              		.thumb
 145              		.thumb_func
 146              		.type	Counter_1_ReadControlRegister, %function
 147              	Counter_1_ReadControlRegister:
 148              	.LFB6:
 265:.\Generated_Source\PSoC5/Counter_1.c **** 
 266:.\Generated_Source\PSoC5/Counter_1.c **** 
 267:.\Generated_Source\PSoC5/Counter_1.c **** #if(!Counter_1_ControlRegRemoved)
 268:.\Generated_Source\PSoC5/Counter_1.c **** /*******************************************************************************
 269:.\Generated_Source\PSoC5/Counter_1.c **** * Function Name: Counter_1_ReadControlRegister
 270:.\Generated_Source\PSoC5/Counter_1.c **** ********************************************************************************
 271:.\Generated_Source\PSoC5/Counter_1.c **** * Summary:
 272:.\Generated_Source\PSoC5/Counter_1.c **** *   Reads the control register and returns it's state. This function should use
 273:.\Generated_Source\PSoC5/Counter_1.c **** *       defined types for the bit-field information as the bits in this
 274:.\Generated_Source\PSoC5/Counter_1.c **** *       register may be permuteable.
 275:.\Generated_Source\PSoC5/Counter_1.c **** *
 276:.\Generated_Source\PSoC5/Counter_1.c **** * Parameters:  
 277:.\Generated_Source\PSoC5/Counter_1.c **** *  void
 278:.\Generated_Source\PSoC5/Counter_1.c **** *
 279:.\Generated_Source\PSoC5/Counter_1.c **** * Return: 
 280:.\Generated_Source\PSoC5/Counter_1.c **** *  (uint8) The contents of the control register
 281:.\Generated_Source\PSoC5/Counter_1.c **** *
 282:.\Generated_Source\PSoC5/Counter_1.c **** *******************************************************************************/
 283:.\Generated_Source\PSoC5/Counter_1.c **** uint8   Counter_1_ReadControlRegister(void) 
 284:.\Generated_Source\PSoC5/Counter_1.c **** {
 149              		.loc 1 284 0
 150              		.cfi_startproc
 151              		@ args = 0, pretend = 0, frame = 0
 152              		@ frame_needed = 0, uses_anonymous_args = 0
 153              		@ link register save eliminated.
 285:.\Generated_Source\PSoC5/Counter_1.c ****     return Counter_1_CONTROL;
 154              		.loc 1 285 0
 155 0000 014B     		ldr	r3, .L14
 156 0002 1878     		ldrb	r0, [r3]	@ zero_extendqisi2
 286:.\Generated_Source\PSoC5/Counter_1.c **** }
 157              		.loc 1 286 0
 158 0004 7047     		bx	lr
 159              	.L15:
 160 0006 00BF     		.align	2
 161              	.L14:
 162 0008 004F0040 		.word	1073762048
 163              		.cfi_endproc
 164              	.LFE6:
 165              		.size	Counter_1_ReadControlRegister, .-Counter_1_ReadControlRegister
 166              		.section	.text.Counter_1_WriteControlRegister,"ax",%progbits
 167              		.align	2
 168              		.global	Counter_1_WriteControlRegister
 169              		.thumb
 170              		.thumb_func
ARM GAS  C:\Users\mark6\AppData\Local\Temp\ccvgZ1jj.s 			page 9


 171              		.type	Counter_1_WriteControlRegister, %function
 172              	Counter_1_WriteControlRegister:
 173              	.LFB7:
 287:.\Generated_Source\PSoC5/Counter_1.c **** 
 288:.\Generated_Source\PSoC5/Counter_1.c **** 
 289:.\Generated_Source\PSoC5/Counter_1.c **** /*******************************************************************************
 290:.\Generated_Source\PSoC5/Counter_1.c **** * Function Name: Counter_1_WriteControlRegister
 291:.\Generated_Source\PSoC5/Counter_1.c **** ********************************************************************************
 292:.\Generated_Source\PSoC5/Counter_1.c **** * Summary:
 293:.\Generated_Source\PSoC5/Counter_1.c **** *   Sets the bit-field of the control register.  This function should use
 294:.\Generated_Source\PSoC5/Counter_1.c **** *       defined types for the bit-field information as the bits in this
 295:.\Generated_Source\PSoC5/Counter_1.c **** *       register may be permuteable.
 296:.\Generated_Source\PSoC5/Counter_1.c **** *
 297:.\Generated_Source\PSoC5/Counter_1.c **** * Parameters:  
 298:.\Generated_Source\PSoC5/Counter_1.c **** *  void
 299:.\Generated_Source\PSoC5/Counter_1.c **** *
 300:.\Generated_Source\PSoC5/Counter_1.c **** * Return: 
 301:.\Generated_Source\PSoC5/Counter_1.c **** *  (uint8) The contents of the control register
 302:.\Generated_Source\PSoC5/Counter_1.c **** *
 303:.\Generated_Source\PSoC5/Counter_1.c **** *******************************************************************************/
 304:.\Generated_Source\PSoC5/Counter_1.c **** void    Counter_1_WriteControlRegister(uint8 control) 
 305:.\Generated_Source\PSoC5/Counter_1.c **** {
 174              		.loc 1 305 0
 175              		.cfi_startproc
 176              		@ args = 0, pretend = 0, frame = 0
 177              		@ frame_needed = 0, uses_anonymous_args = 0
 178              		@ link register save eliminated.
 179              	.LVL1:
 306:.\Generated_Source\PSoC5/Counter_1.c ****     Counter_1_CONTROL = control;
 180              		.loc 1 306 0
 181 0000 014B     		ldr	r3, .L17
 182 0002 1870     		strb	r0, [r3]
 183 0004 7047     		bx	lr
 184              	.L18:
 185 0006 00BF     		.align	2
 186              	.L17:
 187 0008 004F0040 		.word	1073762048
 188              		.cfi_endproc
 189              	.LFE7:
 190              		.size	Counter_1_WriteControlRegister, .-Counter_1_WriteControlRegister
 191              		.section	.text.Counter_1_WriteCounter,"ax",%progbits
 192              		.align	2
 193              		.global	Counter_1_WriteCounter
 194              		.thumb
 195              		.thumb_func
 196              		.type	Counter_1_WriteCounter, %function
 197              	Counter_1_WriteCounter:
 198              	.LFB8:
 307:.\Generated_Source\PSoC5/Counter_1.c **** }
 308:.\Generated_Source\PSoC5/Counter_1.c **** 
 309:.\Generated_Source\PSoC5/Counter_1.c **** #endif  /* (!Counter_1_ControlRegRemoved) */
 310:.\Generated_Source\PSoC5/Counter_1.c **** 
 311:.\Generated_Source\PSoC5/Counter_1.c **** 
 312:.\Generated_Source\PSoC5/Counter_1.c **** #if (!(Counter_1_UsingFixedFunction && (CY_PSOC5A)))
 313:.\Generated_Source\PSoC5/Counter_1.c **** /*******************************************************************************
 314:.\Generated_Source\PSoC5/Counter_1.c **** * Function Name: Counter_1_WriteCounter
 315:.\Generated_Source\PSoC5/Counter_1.c **** ********************************************************************************
ARM GAS  C:\Users\mark6\AppData\Local\Temp\ccvgZ1jj.s 			page 10


 316:.\Generated_Source\PSoC5/Counter_1.c **** * Summary:
 317:.\Generated_Source\PSoC5/Counter_1.c **** *   This funtion is used to set the counter to a specific value
 318:.\Generated_Source\PSoC5/Counter_1.c **** *
 319:.\Generated_Source\PSoC5/Counter_1.c **** * Parameters:  
 320:.\Generated_Source\PSoC5/Counter_1.c **** *  counter:  New counter value. 
 321:.\Generated_Source\PSoC5/Counter_1.c **** *
 322:.\Generated_Source\PSoC5/Counter_1.c **** * Return: 
 323:.\Generated_Source\PSoC5/Counter_1.c **** *  void 
 324:.\Generated_Source\PSoC5/Counter_1.c **** *
 325:.\Generated_Source\PSoC5/Counter_1.c **** *******************************************************************************/
 326:.\Generated_Source\PSoC5/Counter_1.c **** void Counter_1_WriteCounter(uint8 counter) \
 327:.\Generated_Source\PSoC5/Counter_1.c ****                                    
 328:.\Generated_Source\PSoC5/Counter_1.c **** {
 199              		.loc 1 328 0
 200              		.cfi_startproc
 201              		@ args = 0, pretend = 0, frame = 0
 202              		@ frame_needed = 0, uses_anonymous_args = 0
 203              	.LVL2:
 204 0000 10B5     		push	{r4, lr}
 205              		.cfi_def_cfa_offset 8
 206              		.cfi_offset 4, -8
 207              		.cfi_offset 14, -4
 208 0002 0446     		mov	r4, r0
 329:.\Generated_Source\PSoC5/Counter_1.c ****     #if(Counter_1_UsingFixedFunction)
 330:.\Generated_Source\PSoC5/Counter_1.c ****         /* assert if block is already enabled */
 331:.\Generated_Source\PSoC5/Counter_1.c ****         CYASSERT (0u == (Counter_1_GLOBAL_ENABLE & Counter_1_BLOCK_EN_MASK));
 209              		.loc 1 331 0
 210 0004 0A4B     		ldr	r3, .L22
 211 0006 1B78     		ldrb	r3, [r3]	@ zero_extendqisi2
 212 0008 13F0010F 		tst	r3, #1
 213 000c 02D0     		beq	.L20
 214              		.loc 1 331 0 is_stmt 0 discriminator 1
 215 000e 0020     		movs	r0, #0
 216              	.LVL3:
 217 0010 FFF7FEFF 		bl	CyHalt
 218              	.LVL4:
 219              	.L20:
 332:.\Generated_Source\PSoC5/Counter_1.c ****         /* If block is disabled, enable it and then write the counter */
 333:.\Generated_Source\PSoC5/Counter_1.c ****         Counter_1_GLOBAL_ENABLE |= Counter_1_BLOCK_EN_MASK;
 220              		.loc 1 333 0 is_stmt 1
 221 0014 064B     		ldr	r3, .L22
 222 0016 1A78     		ldrb	r2, [r3]	@ zero_extendqisi2
 223 0018 42F00102 		orr	r2, r2, #1
 224 001c 1A70     		strb	r2, [r3]
 334:.\Generated_Source\PSoC5/Counter_1.c ****         CY_SET_REG16(Counter_1_COUNTER_LSB_PTR, (uint16)counter);
 225              		.loc 1 334 0
 226 001e A4B2     		uxth	r4, r4
 227 0020 044A     		ldr	r2, .L22+4
 228 0022 1480     		strh	r4, [r2]	@ movhi
 335:.\Generated_Source\PSoC5/Counter_1.c ****         Counter_1_GLOBAL_ENABLE &= ((uint8)(~Counter_1_BLOCK_EN_MASK));
 229              		.loc 1 335 0
 230 0024 1A78     		ldrb	r2, [r3]	@ zero_extendqisi2
 231 0026 02F0FE02 		and	r2, r2, #254
 232 002a 1A70     		strb	r2, [r3]
 233 002c 10BD     		pop	{r4, pc}
 234              	.L23:
 235 002e 00BF     		.align	2
ARM GAS  C:\Users\mark6\AppData\Local\Temp\ccvgZ1jj.s 			page 11


 236              	.L22:
 237 0030 A3430040 		.word	1073759139
 238 0034 064F0040 		.word	1073762054
 239              		.cfi_endproc
 240              	.LFE8:
 241              		.size	Counter_1_WriteCounter, .-Counter_1_WriteCounter
 242              		.section	.text.Counter_1_ReadCounter,"ax",%progbits
 243              		.align	2
 244              		.global	Counter_1_ReadCounter
 245              		.thumb
 246              		.thumb_func
 247              		.type	Counter_1_ReadCounter, %function
 248              	Counter_1_ReadCounter:
 249              	.LFB9:
 336:.\Generated_Source\PSoC5/Counter_1.c ****     #else
 337:.\Generated_Source\PSoC5/Counter_1.c ****         CY_SET_REG8(Counter_1_COUNTER_LSB_PTR, counter);
 338:.\Generated_Source\PSoC5/Counter_1.c ****     #endif /* (Counter_1_UsingFixedFunction) */
 339:.\Generated_Source\PSoC5/Counter_1.c **** }
 340:.\Generated_Source\PSoC5/Counter_1.c **** #endif /* (!(Counter_1_UsingFixedFunction && (CY_PSOC5A))) */
 341:.\Generated_Source\PSoC5/Counter_1.c **** 
 342:.\Generated_Source\PSoC5/Counter_1.c **** 
 343:.\Generated_Source\PSoC5/Counter_1.c **** /*******************************************************************************
 344:.\Generated_Source\PSoC5/Counter_1.c **** * Function Name: Counter_1_ReadCounter
 345:.\Generated_Source\PSoC5/Counter_1.c **** ********************************************************************************
 346:.\Generated_Source\PSoC5/Counter_1.c **** * Summary:
 347:.\Generated_Source\PSoC5/Counter_1.c **** * Returns the current value of the counter.  It doesn't matter
 348:.\Generated_Source\PSoC5/Counter_1.c **** * if the counter is enabled or running.
 349:.\Generated_Source\PSoC5/Counter_1.c **** *
 350:.\Generated_Source\PSoC5/Counter_1.c **** * Parameters:  
 351:.\Generated_Source\PSoC5/Counter_1.c **** *  void:  
 352:.\Generated_Source\PSoC5/Counter_1.c **** *
 353:.\Generated_Source\PSoC5/Counter_1.c **** * Return: 
 354:.\Generated_Source\PSoC5/Counter_1.c **** *  (uint8) The present value of the counter.
 355:.\Generated_Source\PSoC5/Counter_1.c **** *
 356:.\Generated_Source\PSoC5/Counter_1.c **** *******************************************************************************/
 357:.\Generated_Source\PSoC5/Counter_1.c **** uint8 Counter_1_ReadCounter(void) 
 358:.\Generated_Source\PSoC5/Counter_1.c **** {
 250              		.loc 1 358 0
 251              		.cfi_startproc
 252              		@ args = 0, pretend = 0, frame = 0
 253              		@ frame_needed = 0, uses_anonymous_args = 0
 254              		@ link register save eliminated.
 359:.\Generated_Source\PSoC5/Counter_1.c ****     /* Force capture by reading Accumulator */
 360:.\Generated_Source\PSoC5/Counter_1.c ****     /* Must first do a software capture to be able to read the counter */
 361:.\Generated_Source\PSoC5/Counter_1.c ****     /* It is up to the user code to make sure there isn't already captured data in the FIFO */
 362:.\Generated_Source\PSoC5/Counter_1.c ****     #if(Counter_1_UsingFixedFunction)
 363:.\Generated_Source\PSoC5/Counter_1.c **** 		(void)CY_GET_REG16(Counter_1_COUNTER_LSB_PTR);
 255              		.loc 1 363 0
 256 0000 024B     		ldr	r3, .L25
 257 0002 1B88     		ldrh	r3, [r3]
 364:.\Generated_Source\PSoC5/Counter_1.c **** 	#else
 365:.\Generated_Source\PSoC5/Counter_1.c **** 		(void)CY_GET_REG8(Counter_1_COUNTER_LSB_PTR_8BIT);
 366:.\Generated_Source\PSoC5/Counter_1.c **** 	#endif/* (Counter_1_UsingFixedFunction) */
 367:.\Generated_Source\PSoC5/Counter_1.c ****     
 368:.\Generated_Source\PSoC5/Counter_1.c ****     /* Read the data from the FIFO (or capture register for Fixed Function)*/
 369:.\Generated_Source\PSoC5/Counter_1.c ****     #if(Counter_1_UsingFixedFunction)
 370:.\Generated_Source\PSoC5/Counter_1.c ****         return ((uint8)CY_GET_REG16(Counter_1_STATICCOUNT_LSB_PTR));
ARM GAS  C:\Users\mark6\AppData\Local\Temp\ccvgZ1jj.s 			page 12


 258              		.loc 1 370 0
 259 0004 024B     		ldr	r3, .L25+4
 260 0006 1888     		ldrh	r0, [r3]
 371:.\Generated_Source\PSoC5/Counter_1.c ****     #else
 372:.\Generated_Source\PSoC5/Counter_1.c ****         return (CY_GET_REG8(Counter_1_STATICCOUNT_LSB_PTR));
 373:.\Generated_Source\PSoC5/Counter_1.c ****     #endif /* (Counter_1_UsingFixedFunction) */
 374:.\Generated_Source\PSoC5/Counter_1.c **** }
 261              		.loc 1 374 0
 262 0008 C0B2     		uxtb	r0, r0
 263 000a 7047     		bx	lr
 264              	.L26:
 265              		.align	2
 266              	.L25:
 267 000c 064F0040 		.word	1073762054
 268 0010 084F0040 		.word	1073762056
 269              		.cfi_endproc
 270              	.LFE9:
 271              		.size	Counter_1_ReadCounter, .-Counter_1_ReadCounter
 272              		.section	.text.Counter_1_ReadCapture,"ax",%progbits
 273              		.align	2
 274              		.global	Counter_1_ReadCapture
 275              		.thumb
 276              		.thumb_func
 277              		.type	Counter_1_ReadCapture, %function
 278              	Counter_1_ReadCapture:
 279              	.LFB10:
 375:.\Generated_Source\PSoC5/Counter_1.c **** 
 376:.\Generated_Source\PSoC5/Counter_1.c **** 
 377:.\Generated_Source\PSoC5/Counter_1.c **** /*******************************************************************************
 378:.\Generated_Source\PSoC5/Counter_1.c **** * Function Name: Counter_1_ReadCapture
 379:.\Generated_Source\PSoC5/Counter_1.c **** ********************************************************************************
 380:.\Generated_Source\PSoC5/Counter_1.c **** * Summary:
 381:.\Generated_Source\PSoC5/Counter_1.c **** *   This function returns the last value captured.
 382:.\Generated_Source\PSoC5/Counter_1.c **** *
 383:.\Generated_Source\PSoC5/Counter_1.c **** * Parameters:  
 384:.\Generated_Source\PSoC5/Counter_1.c **** *  void
 385:.\Generated_Source\PSoC5/Counter_1.c **** *
 386:.\Generated_Source\PSoC5/Counter_1.c **** * Return: 
 387:.\Generated_Source\PSoC5/Counter_1.c **** *  (uint8) Present Capture value.
 388:.\Generated_Source\PSoC5/Counter_1.c **** *
 389:.\Generated_Source\PSoC5/Counter_1.c **** *******************************************************************************/
 390:.\Generated_Source\PSoC5/Counter_1.c **** uint8 Counter_1_ReadCapture(void) 
 391:.\Generated_Source\PSoC5/Counter_1.c **** {
 280              		.loc 1 391 0
 281              		.cfi_startproc
 282              		@ args = 0, pretend = 0, frame = 0
 283              		@ frame_needed = 0, uses_anonymous_args = 0
 284              		@ link register save eliminated.
 392:.\Generated_Source\PSoC5/Counter_1.c ****     #if(Counter_1_UsingFixedFunction)
 393:.\Generated_Source\PSoC5/Counter_1.c ****         return ((uint8)CY_GET_REG16(Counter_1_STATICCOUNT_LSB_PTR));
 285              		.loc 1 393 0
 286 0000 014B     		ldr	r3, .L28
 287 0002 1888     		ldrh	r0, [r3]
 394:.\Generated_Source\PSoC5/Counter_1.c ****     #else
 395:.\Generated_Source\PSoC5/Counter_1.c ****         return (CY_GET_REG8(Counter_1_STATICCOUNT_LSB_PTR));
 396:.\Generated_Source\PSoC5/Counter_1.c ****     #endif /* (Counter_1_UsingFixedFunction) */
 397:.\Generated_Source\PSoC5/Counter_1.c **** }
ARM GAS  C:\Users\mark6\AppData\Local\Temp\ccvgZ1jj.s 			page 13


 288              		.loc 1 397 0
 289 0004 C0B2     		uxtb	r0, r0
 290 0006 7047     		bx	lr
 291              	.L29:
 292              		.align	2
 293              	.L28:
 294 0008 084F0040 		.word	1073762056
 295              		.cfi_endproc
 296              	.LFE10:
 297              		.size	Counter_1_ReadCapture, .-Counter_1_ReadCapture
 298              		.section	.text.Counter_1_WritePeriod,"ax",%progbits
 299              		.align	2
 300              		.global	Counter_1_WritePeriod
 301              		.thumb
 302              		.thumb_func
 303              		.type	Counter_1_WritePeriod, %function
 304              	Counter_1_WritePeriod:
 305              	.LFB11:
 398:.\Generated_Source\PSoC5/Counter_1.c **** 
 399:.\Generated_Source\PSoC5/Counter_1.c **** 
 400:.\Generated_Source\PSoC5/Counter_1.c **** /*******************************************************************************
 401:.\Generated_Source\PSoC5/Counter_1.c **** * Function Name: Counter_1_WritePeriod
 402:.\Generated_Source\PSoC5/Counter_1.c **** ********************************************************************************
 403:.\Generated_Source\PSoC5/Counter_1.c **** * Summary:
 404:.\Generated_Source\PSoC5/Counter_1.c **** * Changes the period of the counter.  The new period 
 405:.\Generated_Source\PSoC5/Counter_1.c **** * will be loaded the next time terminal count is detected.
 406:.\Generated_Source\PSoC5/Counter_1.c **** *
 407:.\Generated_Source\PSoC5/Counter_1.c **** * Parameters:  
 408:.\Generated_Source\PSoC5/Counter_1.c **** *  period: (uint8) A value of 0 will result in
 409:.\Generated_Source\PSoC5/Counter_1.c **** *         the counter remaining at zero.  
 410:.\Generated_Source\PSoC5/Counter_1.c **** *
 411:.\Generated_Source\PSoC5/Counter_1.c **** * Return: 
 412:.\Generated_Source\PSoC5/Counter_1.c **** *  void
 413:.\Generated_Source\PSoC5/Counter_1.c **** *
 414:.\Generated_Source\PSoC5/Counter_1.c **** *******************************************************************************/
 415:.\Generated_Source\PSoC5/Counter_1.c **** void Counter_1_WritePeriod(uint8 period) 
 416:.\Generated_Source\PSoC5/Counter_1.c **** {
 306              		.loc 1 416 0
 307              		.cfi_startproc
 308              		@ args = 0, pretend = 0, frame = 0
 309              		@ frame_needed = 0, uses_anonymous_args = 0
 310              		@ link register save eliminated.
 311              	.LVL5:
 417:.\Generated_Source\PSoC5/Counter_1.c ****     #if(Counter_1_UsingFixedFunction)
 418:.\Generated_Source\PSoC5/Counter_1.c ****         CY_SET_REG16(Counter_1_PERIOD_LSB_PTR,(uint16)period);
 312              		.loc 1 418 0
 313 0000 014B     		ldr	r3, .L31
 314 0002 1880     		strh	r0, [r3]	@ movhi
 315 0004 7047     		bx	lr
 316              	.L32:
 317 0006 00BF     		.align	2
 318              	.L31:
 319 0008 044F0040 		.word	1073762052
 320              		.cfi_endproc
 321              	.LFE11:
 322              		.size	Counter_1_WritePeriod, .-Counter_1_WritePeriod
 323              		.section	.text.Counter_1_Init,"ax",%progbits
ARM GAS  C:\Users\mark6\AppData\Local\Temp\ccvgZ1jj.s 			page 14


 324              		.align	2
 325              		.global	Counter_1_Init
 326              		.thumb
 327              		.thumb_func
 328              		.type	Counter_1_Init, %function
 329              	Counter_1_Init:
 330              	.LFB0:
  38:.\Generated_Source\PSoC5/Counter_1.c ****         #if (!Counter_1_UsingFixedFunction && !Counter_1_ControlRegRemoved)
 331              		.loc 1 38 0
 332              		.cfi_startproc
 333              		@ args = 0, pretend = 0, frame = 0
 334              		@ frame_needed = 0, uses_anonymous_args = 0
 335 0000 08B5     		push	{r3, lr}
 336              		.cfi_def_cfa_offset 8
 337              		.cfi_offset 3, -8
 338              		.cfi_offset 14, -4
  50:.\Generated_Source\PSoC5/Counter_1.c ****             
 339              		.loc 1 50 0
 340 0002 154A     		ldr	r2, .L35
 341 0004 1378     		ldrb	r3, [r2]	@ zero_extendqisi2
 342 0006 03F00103 		and	r3, r3, #1
 343 000a 1370     		strb	r3, [r2]
  57:.\Generated_Source\PSoC5/Counter_1.c ****             #endif /* (CY_PSOC3 || CY_PSOC5LP) */
 344              		.loc 1 57 0
 345 000c 0232     		adds	r2, r2, #2
 346 000e 1378     		ldrb	r3, [r2]	@ zero_extendqisi2
 347 0010 03F0FC03 		and	r3, r3, #252
 348 0014 1370     		strb	r3, [r2]
  66:.\Generated_Source\PSoC5/Counter_1.c ****             
 349              		.loc 1 66 0
 350 0016 013A     		subs	r2, r2, #1
 351 0018 1378     		ldrb	r3, [r2]	@ zero_extendqisi2
 352 001a 43F00103 		orr	r3, r3, #1
 353 001e 1370     		strb	r3, [r2]
  69:.\Generated_Source\PSoC5/Counter_1.c ****             Counter_1_RT1 |= Counter_1_SYNC;     
 354              		.loc 1 69 0
 355 0020 0E4B     		ldr	r3, .L35+4
 356 0022 1A78     		ldrb	r2, [r3]	@ zero_extendqisi2
 357 0024 02F0CF02 		and	r2, r2, #207
 358 0028 1A70     		strb	r2, [r3]
  70:.\Generated_Source\PSoC5/Counter_1.c ****                     
 359              		.loc 1 70 0
 360 002a 1A78     		ldrb	r2, [r3]	@ zero_extendqisi2
 361 002c 42F03002 		orr	r2, r2, #48
 362 0030 1A70     		strb	r2, [r3]
  73:.\Generated_Source\PSoC5/Counter_1.c ****             Counter_1_RT1 |= Counter_1_SYNCDSI_EN;
 363              		.loc 1 73 0
 364 0032 1A78     		ldrb	r2, [r3]	@ zero_extendqisi2
 365 0034 02F0F002 		and	r2, r2, #240
 366 0038 1A70     		strb	r2, [r3]
  74:.\Generated_Source\PSoC5/Counter_1.c **** 
 367              		.loc 1 74 0
 368 003a 1A78     		ldrb	r2, [r3]	@ zero_extendqisi2
 369 003c 42F00F02 		orr	r2, r2, #15
 370 0040 1A70     		strb	r2, [r3]
 100:.\Generated_Source\PSoC5/Counter_1.c ****         #if (!(Counter_1_UsingFixedFunction && (CY_PSOC5A)))
 371              		.loc 1 100 0
ARM GAS  C:\Users\mark6\AppData\Local\Temp\ccvgZ1jj.s 			page 15


 372 0042 6420     		movs	r0, #100
 373 0044 FFF7FEFF 		bl	Counter_1_WritePeriod
 374              	.LVL6:
 102:.\Generated_Source\PSoC5/Counter_1.c ****         #endif /* (!(Counter_1_UsingFixedFunction && (CY_PSOC5A))) */
 375              		.loc 1 102 0
 376 0048 0020     		movs	r0, #0
 377 004a FFF7FEFF 		bl	Counter_1_WriteCounter
 378              	.LVL7:
 104:.\Generated_Source\PSoC5/Counter_1.c ****         
 379              		.loc 1 104 0
 380 004e 0020     		movs	r0, #0
 381 0050 FFF7FEFF 		bl	Counter_1_SetInterruptMode
 382              	.LVL8:
 383 0054 08BD     		pop	{r3, pc}
 384              	.L36:
 385 0056 00BF     		.align	2
 386              	.L35:
 387 0058 004F0040 		.word	1073762048
 388 005c 0B4F0040 		.word	1073762059
 389              		.cfi_endproc
 390              	.LFE0:
 391              		.size	Counter_1_Init, .-Counter_1_Init
 392              		.section	.text.Counter_1_Start,"ax",%progbits
 393              		.align	2
 394              		.global	Counter_1_Start
 395              		.thumb
 396              		.thumb_func
 397              		.type	Counter_1_Start, %function
 398              	Counter_1_Start:
 399              	.LFB2:
 179:.\Generated_Source\PSoC5/Counter_1.c ****     if(Counter_1_initVar == 0u)
 400              		.loc 1 179 0
 401              		.cfi_startproc
 402              		@ args = 0, pretend = 0, frame = 0
 403              		@ frame_needed = 0, uses_anonymous_args = 0
 404 0000 08B5     		push	{r3, lr}
 405              		.cfi_def_cfa_offset 8
 406              		.cfi_offset 3, -8
 407              		.cfi_offset 14, -4
 180:.\Generated_Source\PSoC5/Counter_1.c ****     {
 408              		.loc 1 180 0
 409 0002 054B     		ldr	r3, .L40
 410 0004 1B78     		ldrb	r3, [r3]	@ zero_extendqisi2
 411 0006 23B9     		cbnz	r3, .L38
 182:.\Generated_Source\PSoC5/Counter_1.c ****         
 412              		.loc 1 182 0
 413 0008 FFF7FEFF 		bl	Counter_1_Init
 414              	.LVL9:
 184:.\Generated_Source\PSoC5/Counter_1.c ****     }
 415              		.loc 1 184 0
 416 000c 0122     		movs	r2, #1
 417 000e 024B     		ldr	r3, .L40
 418 0010 1A70     		strb	r2, [r3]
 419              	.L38:
 188:.\Generated_Source\PSoC5/Counter_1.c **** }
 420              		.loc 1 188 0
 421 0012 FFF7FEFF 		bl	Counter_1_Enable
ARM GAS  C:\Users\mark6\AppData\Local\Temp\ccvgZ1jj.s 			page 16


 422              	.LVL10:
 423 0016 08BD     		pop	{r3, pc}
 424              	.L41:
 425              		.align	2
 426              	.L40:
 427 0018 00000000 		.word	.LANCHOR0
 428              		.cfi_endproc
 429              	.LFE2:
 430              		.size	Counter_1_Start, .-Counter_1_Start
 431              		.section	.text.Counter_1_ReadPeriod,"ax",%progbits
 432              		.align	2
 433              		.global	Counter_1_ReadPeriod
 434              		.thumb
 435              		.thumb_func
 436              		.type	Counter_1_ReadPeriod, %function
 437              	Counter_1_ReadPeriod:
 438              	.LFB12:
 419:.\Generated_Source\PSoC5/Counter_1.c ****     #else
 420:.\Generated_Source\PSoC5/Counter_1.c ****         CY_SET_REG8(Counter_1_PERIOD_LSB_PTR, period);
 421:.\Generated_Source\PSoC5/Counter_1.c ****     #endif /* (Counter_1_UsingFixedFunction) */
 422:.\Generated_Source\PSoC5/Counter_1.c **** }
 423:.\Generated_Source\PSoC5/Counter_1.c **** 
 424:.\Generated_Source\PSoC5/Counter_1.c **** 
 425:.\Generated_Source\PSoC5/Counter_1.c **** /*******************************************************************************
 426:.\Generated_Source\PSoC5/Counter_1.c **** * Function Name: Counter_1_ReadPeriod
 427:.\Generated_Source\PSoC5/Counter_1.c **** ********************************************************************************
 428:.\Generated_Source\PSoC5/Counter_1.c **** * Summary:
 429:.\Generated_Source\PSoC5/Counter_1.c **** * Reads the current period value without affecting counter operation.
 430:.\Generated_Source\PSoC5/Counter_1.c **** *
 431:.\Generated_Source\PSoC5/Counter_1.c **** * Parameters:  
 432:.\Generated_Source\PSoC5/Counter_1.c **** *  void:  
 433:.\Generated_Source\PSoC5/Counter_1.c **** *
 434:.\Generated_Source\PSoC5/Counter_1.c **** * Return: 
 435:.\Generated_Source\PSoC5/Counter_1.c **** *  (uint8) Present period value.
 436:.\Generated_Source\PSoC5/Counter_1.c **** *
 437:.\Generated_Source\PSoC5/Counter_1.c **** *******************************************************************************/
 438:.\Generated_Source\PSoC5/Counter_1.c **** uint8 Counter_1_ReadPeriod(void) 
 439:.\Generated_Source\PSoC5/Counter_1.c **** {
 439              		.loc 1 439 0
 440              		.cfi_startproc
 441              		@ args = 0, pretend = 0, frame = 0
 442              		@ frame_needed = 0, uses_anonymous_args = 0
 443              		@ link register save eliminated.
 440:.\Generated_Source\PSoC5/Counter_1.c ****     #if(Counter_1_UsingFixedFunction)
 441:.\Generated_Source\PSoC5/Counter_1.c ****         return ((uint8)CY_GET_REG16(Counter_1_PERIOD_LSB_PTR));
 444              		.loc 1 441 0
 445 0000 014B     		ldr	r3, .L43
 446 0002 1888     		ldrh	r0, [r3]
 442:.\Generated_Source\PSoC5/Counter_1.c ****     #else
 443:.\Generated_Source\PSoC5/Counter_1.c ****         return (CY_GET_REG8(Counter_1_PERIOD_LSB_PTR));
 444:.\Generated_Source\PSoC5/Counter_1.c ****     #endif /* (Counter_1_UsingFixedFunction) */
 445:.\Generated_Source\PSoC5/Counter_1.c **** }
 447              		.loc 1 445 0
 448 0004 C0B2     		uxtb	r0, r0
 449 0006 7047     		bx	lr
 450              	.L44:
 451              		.align	2
ARM GAS  C:\Users\mark6\AppData\Local\Temp\ccvgZ1jj.s 			page 17


 452              	.L43:
 453 0008 044F0040 		.word	1073762052
 454              		.cfi_endproc
 455              	.LFE12:
 456              		.size	Counter_1_ReadPeriod, .-Counter_1_ReadPeriod
 457              		.global	Counter_1_initVar
 458              		.bss
 459              		.set	.LANCHOR0,. + 0
 460              		.type	Counter_1_initVar, %object
 461              		.size	Counter_1_initVar, 1
 462              	Counter_1_initVar:
 463 0000 00       		.space	1
 464              		.text
 465              	.Letext0:
 466              		.file 2 ".\\Generated_Source\\PSoC5\\cytypes.h"
 467              		.file 3 ".\\Generated_Source\\PSoC5\\CyLib.h"