ARM GAS  C:\Users\mark6\AppData\Local\Temp\cck94tIo.s 			page 1


   1              		.syntax unified
   2              		.cpu cortex-m3
   3              		.fpu softvfp
   4              		.eabi_attribute 20, 1
   5              		.eabi_attribute 21, 1
   6              		.eabi_attribute 23, 3
   7              		.eabi_attribute 24, 1
   8              		.eabi_attribute 25, 1
   9              		.eabi_attribute 26, 1
  10              		.eabi_attribute 30, 1
  11              		.eabi_attribute 34, 1
  12              		.eabi_attribute 18, 4
  13              		.thumb
  14              		.file	"drinks.c"
  15              		.text
  16              	.Ltext0:
  17              		.cfi_sections	.debug_frame
  18              		.section	.text.Ingredient_Create,"ax",%progbits
  19              		.align	2
  20              		.global	Ingredient_Create
  21              		.thumb
  22              		.thumb_func
  23              		.type	Ingredient_Create, %function
  24              	Ingredient_Create:
  25              	.LFB63:
  26              		.file 1 ".\\drinks.c"
   1:.\drinks.c    **** /* ========================================
   2:.\drinks.c    ****  *
   3:.\drinks.c    ****  * Copyright YOUR COMPANY, THE YEAR
   4:.\drinks.c    ****  * All Rights Reserved
   5:.\drinks.c    ****  * UNPUBLISHED, LICENSED SOFTWARE.
   6:.\drinks.c    ****  *
   7:.\drinks.c    ****  * CONFIDENTIAL AND PROPRIETARY INFORMATION
   8:.\drinks.c    ****  * WHICH IS THE PROPERTY OF your company.
   9:.\drinks.c    ****  *
  10:.\drinks.c    ****  * ========================================
  11:.\drinks.c    **** */
  12:.\drinks.c    **** #include "drinks.h"
  13:.\drinks.c    **** #include <string.h>
  14:.\drinks.c    **** 
  15:.\drinks.c    **** const int NUM_DRINKS = 7;
  16:.\drinks.c    **** char Liquids[NUM_MIXIES][WORD_SIZE] = { "No Drink", "Absinthe", "Baileys", "Barefoot", "Beer", "Blo
  17:.\drinks.c    **** 
  18:.\drinks.c    **** Ingredient* Ingredient_Create(Liquid liquid, int amount) {
  27              		.loc 1 18 0
  28              		.cfi_startproc
  29              		@ args = 0, pretend = 0, frame = 0
  30              		@ frame_needed = 0, uses_anonymous_args = 0
  31              	.LVL0:
  32 0000 38B5     		push	{r3, r4, r5, lr}
  33              		.cfi_def_cfa_offset 16
  34              		.cfi_offset 3, -16
  35              		.cfi_offset 4, -12
  36              		.cfi_offset 5, -8
  37              		.cfi_offset 14, -4
  38 0002 0546     		mov	r5, r0
  39 0004 0C46     		mov	r4, r1
ARM GAS  C:\Users\mark6\AppData\Local\Temp\cck94tIo.s 			page 2


  19:.\drinks.c    ****     Ingredient* ingredient_ptr = malloc(sizeof(Ingredient));
  40              		.loc 1 19 0
  41 0006 0820     		movs	r0, #8
  42              	.LVL1:
  43 0008 FFF7FEFF 		bl	malloc
  44              	.LVL2:
  20:.\drinks.c    ****     
  21:.\drinks.c    ****     ingredient_ptr->liquid = liquid;
  45              		.loc 1 21 0
  46 000c 0570     		strb	r5, [r0]
  22:.\drinks.c    ****     ingredient_ptr->amount = amount;
  47              		.loc 1 22 0
  48 000e 4460     		str	r4, [r0, #4]
  23:.\drinks.c    ****     
  24:.\drinks.c    ****     return ingredient_ptr;
  25:.\drinks.c    **** };
  49              		.loc 1 25 0
  50 0010 38BD     		pop	{r3, r4, r5, pc}
  51              		.cfi_endproc
  52              	.LFE63:
  53              		.size	Ingredient_Create, .-Ingredient_Create
  54 0012 00BF     		.section	.text.Drink_Create,"ax",%progbits
  55              		.align	2
  56              		.global	Drink_Create
  57              		.thumb
  58              		.thumb_func
  59              		.type	Drink_Create, %function
  60              	Drink_Create:
  61              	.LFB64:
  26:.\drinks.c    **** 
  27:.\drinks.c    **** /*
  28:.\drinks.c    ****     Ingredient* ing = Ingredient_Create(VODKA, 50);
  29:.\drinks.c    ****     GUI_DispDecAt(drinks[0]->num_ingredients, 20, 20, 2);
  30:.\drinks.c    ****     for (i=0; i< drinks[0]->num_ingredients; i++) {
  31:.\drinks.c    ****         //GUI_DispStringAt(Liquids[drinks[0]->ingredients[i]->liquid], 20, 60+20*i);
  32:.\drinks.c    ****         //GUI_DispDecAt(drinks[0]->ingredients[i]->amount, 20, 120+20*i, 3);
  33:.\drinks.c    ****         GUI_DispStringAt(Liquids[ing->liquid], 20, 60+20*i);
  34:.\drinks.c    ****         GUI_DispDecAt(ing->amount, 20, 120+20*i, 3);
  35:.\drinks.c    ****     }
  36:.\drinks.c    **** */
  37:.\drinks.c    **** Drink* Drink_Create(char* name, Liquid* liquids, int* amounts, int num_ingredients) {
  62              		.loc 1 37 0
  63              		.cfi_startproc
  64              		@ args = 0, pretend = 0, frame = 0
  65              		@ frame_needed = 0, uses_anonymous_args = 0
  66              	.LVL3:
  67 0000 2DE9F843 		push	{r3, r4, r5, r6, r7, r8, r9, lr}
  68              		.cfi_def_cfa_offset 32
  69              		.cfi_offset 3, -32
  70              		.cfi_offset 4, -28
  71              		.cfi_offset 5, -24
  72              		.cfi_offset 6, -20
  73              		.cfi_offset 7, -16
  74              		.cfi_offset 8, -12
  75              		.cfi_offset 9, -8
  76              		.cfi_offset 14, -4
  77 0004 0446     		mov	r4, r0
ARM GAS  C:\Users\mark6\AppData\Local\Temp\cck94tIo.s 			page 3


  78 0006 8946     		mov	r9, r1
  79 0008 9046     		mov	r8, r2
  80 000a 1F46     		mov	r7, r3
  38:.\drinks.c    ****     Drink* drink = malloc(sizeof(Drink));
  81              		.loc 1 38 0
  82 000c 3C20     		movs	r0, #60
  83              	.LVL4:
  84 000e FFF7FEFF 		bl	malloc
  85              	.LVL5:
  86 0012 0646     		mov	r6, r0
  87              	.LVL6:
  39:.\drinks.c    ****     
  40:.\drinks.c    ****     strcpy(drink->name, name);
  88              		.loc 1 40 0
  89 0014 2146     		mov	r1, r4
  90 0016 FFF7FEFF 		bl	strcpy
  91              	.LVL7:
  41:.\drinks.c    ****     drink->num_ingredients = num_ingredients;
  92              		.loc 1 41 0
  93 001a B763     		str	r7, [r6, #56]
  42:.\drinks.c    ****     drink->ingredients = malloc(num_ingredients * sizeof(*drink->ingredients));
  94              		.loc 1 42 0
  95 001c B800     		lsls	r0, r7, #2
  96 001e FFF7FEFF 		bl	malloc
  97              	.LVL8:
  98 0022 7063     		str	r0, [r6, #52]
  99              	.LVL9:
  43:.\drinks.c    ****     int i;
  44:.\drinks.c    ****     for (i = 0; i < num_ingredients; i++) {
 100              		.loc 1 44 0
 101 0024 0024     		movs	r4, #0
 102              	.LVL10:
 103 0026 09E0     		b	.L4
 104              	.LVL11:
 105              	.L5:
  45:.\drinks.c    ****         drink->ingredients[i] = Ingredient_Create(liquids[i], amounts[i]); 
 106              		.loc 1 45 0 discriminator 3
 107 0028 756B     		ldr	r5, [r6, #52]
 108 002a 19F80400 		ldrb	r0, [r9, r4]	@ zero_extendqisi2
 109 002e 58F82410 		ldr	r1, [r8, r4, lsl #2]
 110 0032 FFF7FEFF 		bl	Ingredient_Create
 111              	.LVL12:
 112 0036 45F82400 		str	r0, [r5, r4, lsl #2]
  44:.\drinks.c    ****         drink->ingredients[i] = Ingredient_Create(liquids[i], amounts[i]); 
 113              		.loc 1 44 0 discriminator 3
 114 003a 0134     		adds	r4, r4, #1
 115              	.LVL13:
 116              	.L4:
  44:.\drinks.c    ****         drink->ingredients[i] = Ingredient_Create(liquids[i], amounts[i]); 
 117              		.loc 1 44 0 is_stmt 0 discriminator 1
 118 003c BC42     		cmp	r4, r7
 119 003e F3DB     		blt	.L5
  46:.\drinks.c    ****     }
  47:.\drinks.c    ****     return drink;
  48:.\drinks.c    **** }
 120              		.loc 1 48 0 is_stmt 1
 121 0040 3046     		mov	r0, r6
ARM GAS  C:\Users\mark6\AppData\Local\Temp\cck94tIo.s 			page 4


 122 0042 BDE8F883 		pop	{r3, r4, r5, r6, r7, r8, r9, pc}
 123              		.cfi_endproc
 124              	.LFE64:
 125              		.size	Drink_Create, .-Drink_Create
 126 0046 00BF     		.section	.text.generate_drinks,"ax",%progbits
 127              		.align	2
 128              		.global	generate_drinks
 129              		.thumb
 130              		.thumb_func
 131              		.type	generate_drinks, %function
 132              	generate_drinks:
 133              	.LFB65:
  49:.\drinks.c    **** 
  50:.\drinks.c    **** 
  51:.\drinks.c    **** Drink** generate_drinks() {
 134              		.loc 1 51 0
 135              		.cfi_startproc
 136              		@ args = 0, pretend = 0, frame = 80
 137              		@ frame_needed = 0, uses_anonymous_args = 0
 138 0000 30B5     		push	{r4, r5, lr}
 139              		.cfi_def_cfa_offset 12
 140              		.cfi_offset 4, -12
 141              		.cfi_offset 5, -8
 142              		.cfi_offset 14, -4
 143 0002 95B0     		sub	sp, sp, #84
 144              		.cfi_def_cfa_offset 96
  52:.\drinks.c    **** 
  53:.\drinks.c    ****     Drink** drinks = malloc(NUM_DRINKS * sizeof(*drinks));
 145              		.loc 1 53 0
 146 0004 1C20     		movs	r0, #28
 147 0006 FFF7FEFF 		bl	malloc
 148              	.LVL14:
 149 000a 0546     		mov	r5, r0
 150              	.LVL15:
  54:.\drinks.c    ****     
  55:.\drinks.c    ****     Liquid DKESpecial_Ingredients[1] = {BEER};
 151              		.loc 1 55 0
 152 000c 0423     		movs	r3, #4
 153 000e 8DF84C30 		strb	r3, [sp, #76]
  56:.\drinks.c    ****     int DKESpecial_Amounts[1] = {50};
 154              		.loc 1 56 0
 155 0012 3223     		movs	r3, #50
 156 0014 1293     		str	r3, [sp, #72]
  57:.\drinks.c    ****     drinks[0] = Drink_Create("DKE Special", DKESpecial_Ingredients, DKESpecial_Amounts, 1);
 157              		.loc 1 57 0
 158 0016 3348     		ldr	r0, .L9
 159              	.LVL16:
 160 0018 13A9     		add	r1, sp, #76
 161 001a 12AA     		add	r2, sp, #72
 162 001c 0123     		movs	r3, #1
 163 001e FFF7FEFF 		bl	Drink_Create
 164              	.LVL17:
 165 0022 2860     		str	r0, [r5]
  58:.\drinks.c    **** 
  59:.\drinks.c    ****     Liquid GinTonic_Ingredients[2] = {GIN, TONIC};
 166              		.loc 1 59 0
 167 0024 304C     		ldr	r4, .L9+4
ARM GAS  C:\Users\mark6\AppData\Local\Temp\cck94tIo.s 			page 5


 168 0026 2346     		mov	r3, r4
 169 0028 33F8042B 		ldrh	r2, [r3], #4	@ unaligned
 170 002c ADF84420 		strh	r2, [sp, #68]	@ unaligned
  60:.\drinks.c    ****     int GinTonic_Amounts[2] = {50, 150};
 171              		.loc 1 60 0
 172 0030 0FAA     		add	r2, sp, #60
 173 0032 93E80300 		ldmia	r3, {r0, r1}
 174 0036 82E80300 		stmia	r2, {r0, r1}
  61:.\drinks.c    ****     drinks[1] = Drink_Create("Gin & Tonic", GinTonic_Ingredients, GinTonic_Amounts, 2);
 175              		.loc 1 61 0
 176 003a 2C48     		ldr	r0, .L9+8
 177 003c 11A9     		add	r1, sp, #68
 178 003e 0223     		movs	r3, #2
 179 0040 FFF7FEFF 		bl	Drink_Create
 180              	.LVL18:
 181 0044 6860     		str	r0, [r5, #4]
  62:.\drinks.c    **** 
  63:.\drinks.c    ****     Liquid HarabedianSpecial_Ingredients[2] = {PINKWHITNEY, SELTZER};
 182              		.loc 1 63 0
 183 0046 A389     		ldrh	r3, [r4, #12]	@ unaligned
 184 0048 ADF83830 		strh	r3, [sp, #56]	@ unaligned
  64:.\drinks.c    ****     int HarabedianSpecial_Amounts[2] = {100, 100};
 185              		.loc 1 64 0
 186 004c 0CAA     		add	r2, sp, #48
 187 004e 04F11003 		add	r3, r4, #16
 188 0052 93E80300 		ldmia	r3, {r0, r1}
 189 0056 82E80300 		stmia	r2, {r0, r1}
  65:.\drinks.c    ****     drinks[2] = Drink_Create("Harabedian Special", HarabedianSpecial_Ingredients, HarabedianSpecial
 190              		.loc 1 65 0
 191 005a 2548     		ldr	r0, .L9+12
 192 005c 0EA9     		add	r1, sp, #56
 193 005e 0223     		movs	r3, #2
 194 0060 FFF7FEFF 		bl	Drink_Create
 195              	.LVL19:
 196 0064 A860     		str	r0, [r5, #8]
  66:.\drinks.c    **** 
  67:.\drinks.c    ****     Liquid IslandSpecial_Ingredients[1] = {DOCTOR};
 197              		.loc 1 67 0
 198 0066 0B23     		movs	r3, #11
 199 0068 8DF82C30 		strb	r3, [sp, #44]
  68:.\drinks.c    ****     int IslandSpecial_Amounts[1] = {100};
 200              		.loc 1 68 0
 201 006c 6423     		movs	r3, #100
 202 006e 0A93     		str	r3, [sp, #40]
  69:.\drinks.c    ****     drinks[3] = Drink_Create("Island Special", IslandSpecial_Ingredients, IslandSpecial_Amounts, 1)
 203              		.loc 1 69 0
 204 0070 2048     		ldr	r0, .L9+16
 205 0072 0BA9     		add	r1, sp, #44
 206 0074 0AAA     		add	r2, sp, #40
 207 0076 0123     		movs	r3, #1
 208 0078 FFF7FEFF 		bl	Drink_Create
 209              	.LVL20:
 210 007c E860     		str	r0, [r5, #12]
  70:.\drinks.c    **** 
  71:.\drinks.c    ****     Liquid PinaColada_Ingredients[2] = {PINACOLADAMIX, WHITERUM};
 211              		.loc 1 71 0
 212 007e 238B     		ldrh	r3, [r4, #24]	@ unaligned
ARM GAS  C:\Users\mark6\AppData\Local\Temp\cck94tIo.s 			page 6


 213 0080 ADF82430 		strh	r3, [sp, #36]	@ unaligned
  72:.\drinks.c    ****     int PinaColada_Amounts[2] = {148, 59};
 214              		.loc 1 72 0
 215 0084 07AA     		add	r2, sp, #28
 216 0086 04F11C03 		add	r3, r4, #28
 217 008a 93E80300 		ldmia	r3, {r0, r1}
 218 008e 82E80300 		stmia	r2, {r0, r1}
  73:.\drinks.c    ****     drinks[4] = Drink_Create("Pina Colada", PinaColada_Ingredients, PinaColada_Amounts, 2);
 219              		.loc 1 73 0
 220 0092 1948     		ldr	r0, .L9+20
 221 0094 09A9     		add	r1, sp, #36
 222 0096 0223     		movs	r3, #2
 223 0098 FFF7FEFF 		bl	Drink_Create
 224              	.LVL21:
 225 009c 2861     		str	r0, [r5, #16]
  74:.\drinks.c    **** 
  75:.\drinks.c    ****     Liquid RedBullVodka_Ingredients[2] = {REDBULL, VODKA};
 226              		.loc 1 75 0
 227 009e A38C     		ldrh	r3, [r4, #36]	@ unaligned
 228 00a0 ADF81830 		strh	r3, [sp, #24]	@ unaligned
  76:.\drinks.c    ****     int RedBullVodka_Amounts[2] = {248, 100};
 229              		.loc 1 76 0
 230 00a4 04AA     		add	r2, sp, #16
 231 00a6 04F12803 		add	r3, r4, #40
 232 00aa 93E80300 		ldmia	r3, {r0, r1}
 233 00ae 82E80300 		stmia	r2, {r0, r1}
  77:.\drinks.c    ****     drinks[5] = Drink_Create("Red Bull Vodka", RedBullVodka_Ingredients, RedBullVodka_Amounts, 2);
 234              		.loc 1 77 0
 235 00b2 1248     		ldr	r0, .L9+24
 236 00b4 06A9     		add	r1, sp, #24
 237 00b6 0223     		movs	r3, #2
 238 00b8 FFF7FEFF 		bl	Drink_Create
 239              	.LVL22:
 240 00bc 6861     		str	r0, [r5, #20]
  78:.\drinks.c    **** 
  79:.\drinks.c    ****     Liquid Screwdriver_Ingredients[2] = {ORANGEJUICE, VODKA};
 241              		.loc 1 79 0
 242 00be 238E     		ldrh	r3, [r4, #48]	@ unaligned
 243 00c0 ADF80C30 		strh	r3, [sp, #12]	@ unaligned
  80:.\drinks.c    ****     int Screwdriver_Amounts[2] = {150, 50};
 244              		.loc 1 80 0
 245 00c4 01AA     		add	r2, sp, #4
 246 00c6 3434     		adds	r4, r4, #52
 247 00c8 94E80300 		ldmia	r4, {r0, r1}
 248 00cc 82E80300 		stmia	r2, {r0, r1}
  81:.\drinks.c    ****     drinks[6] = Drink_Create("Screwdriver", Screwdriver_Ingredients, Screwdriver_Amounts, 2);
 249              		.loc 1 81 0
 250 00d0 0B48     		ldr	r0, .L9+28
 251 00d2 03A9     		add	r1, sp, #12
 252 00d4 0223     		movs	r3, #2
 253 00d6 FFF7FEFF 		bl	Drink_Create
 254              	.LVL23:
 255 00da A861     		str	r0, [r5, #24]
  82:.\drinks.c    **** 
  83:.\drinks.c    ****     return drinks;
  84:.\drinks.c    **** }
 256              		.loc 1 84 0
ARM GAS  C:\Users\mark6\AppData\Local\Temp\cck94tIo.s 			page 7


 257 00dc 2846     		mov	r0, r5
 258 00de 15B0     		add	sp, sp, #84
 259              		.cfi_def_cfa_offset 12
 260              		@ sp needed
 261 00e0 30BD     		pop	{r4, r5, pc}
 262              	.LVL24:
 263              	.L10:
 264 00e2 00BF     		.align	2
 265              	.L9:
 266 00e4 00000000 		.word	.LC10
 267 00e8 00000000 		.word	.LANCHOR0
 268 00ec 0C000000 		.word	.LC11
 269 00f0 18000000 		.word	.LC12
 270 00f4 2C000000 		.word	.LC13
 271 00f8 3C000000 		.word	.LC14
 272 00fc 48000000 		.word	.LC15
 273 0100 58000000 		.word	.LC16
 274              		.cfi_endproc
 275              	.LFE65:
 276              		.size	generate_drinks, .-generate_drinks
 277              		.global	Liquids
 278              		.global	NUM_DRINKS
 279              		.section	.rodata
 280              		.align	2
 281              		.set	.LANCHOR0,. + 0
 282              	.LC0:
 283 0000 0E       		.byte	14
 284 0001 21       		.byte	33
 285 0002 0000     		.space	2
 286              	.LC1:
 287 0004 32000000 		.word	50
 288 0008 96000000 		.word	150
 289              	.LC2:
 290 000c 1B       		.byte	27
 291 000d 1D       		.byte	29
 292 000e 0000     		.space	2
 293              	.LC3:
 294 0010 64000000 		.word	100
 295 0014 64000000 		.word	100
 296              	.LC4:
 297 0018 19       		.byte	25
 298 0019 26       		.byte	38
 299 001a 0000     		.space	2
 300              	.LC5:
 301 001c 94000000 		.word	148
 302 0020 3B000000 		.word	59
 303              	.LC6:
 304 0024 1C       		.byte	28
 305 0025 23       		.byte	35
 306 0026 0000     		.space	2
 307              	.LC7:
 308 0028 F8000000 		.word	248
 309 002c 64000000 		.word	100
 310              	.LC8:
 311 0030 16       		.byte	22
 312 0031 23       		.byte	35
 313 0032 0000     		.space	2
ARM GAS  C:\Users\mark6\AppData\Local\Temp\cck94tIo.s 			page 8


 314              	.LC9:
 315 0034 96000000 		.word	150
 316 0038 32000000 		.word	50
 317              		.type	NUM_DRINKS, %object
 318              		.size	NUM_DRINKS, 4
 319              	NUM_DRINKS:
 320 003c 07000000 		.word	7
 321              		.data
 322              		.align	2
 323              		.type	Liquids, %object
 324              		.size	Liquids, 1950
 325              	Liquids:
 326 0000 4E6F2044 		.ascii	"No Drink\000"
 326      72696E6B 
 326      00
 327 0009 00000000 		.space	41
 327      00000000 
 327      00000000 
 327      00000000 
 327      00000000 
 328 0032 41627369 		.ascii	"Absinthe\000"
 328      6E746865 
 328      00
 329 003b 00000000 		.space	41
 329      00000000 
 329      00000000 
 329      00000000 
 329      00000000 
 330 0064 4261696C 		.ascii	"Baileys\000"
 330      65797300 
 331 006c 00000000 		.space	42
 331      00000000 
 331      00000000 
 331      00000000 
 331      00000000 
 332 0096 42617265 		.ascii	"Barefoot\000"
 332      666F6F74 
 332      00
 333 009f 00000000 		.space	41
 333      00000000 
 333      00000000 
 333      00000000 
 333      00000000 
 334 00c8 42656572 		.ascii	"Beer\000"
 334      00
 335 00cd 00000000 		.space	45
 335      00000000 
 335      00000000 
 335      00000000 
 335      00000000 
 336 00fa 426C6F6F 		.ascii	"Bloody Mary Mix\000"
 336      6479204D 
 336      61727920 
 336      4D697800 
 337 010a 00000000 		.space	34
 337      00000000 
 337      00000000 
ARM GAS  C:\Users\mark6\AppData\Local\Temp\cck94tIo.s 			page 9


 337      00000000 
 337      00000000 
 338 012c 4368616D 		.ascii	"Champagne\000"
 338      7061676E 
 338      6500
 339 0136 00000000 		.space	40
 339      00000000 
 339      00000000 
 339      00000000 
 339      00000000 
 340 015e 43696465 		.ascii	"Cider\000"
 340      7200
 341 0164 00000000 		.space	44
 341      00000000 
 341      00000000 
 341      00000000 
 341      00000000 
 342 0190 436F6B65 		.ascii	"Coke\000"
 342      00
 343 0195 00000000 		.space	45
 343      00000000 
 343      00000000 
 343      00000000 
 343      00000000 
 344 01c2 4372616E 		.ascii	"Cranberry Juice\000"
 344      62657272 
 344      79204A75 
 344      69636500 
 345 01d2 00000000 		.space	34
 345      00000000 
 345      00000000 
 345      00000000 
 345      00000000 
 346 01f4 4461726B 		.ascii	"Dark Rum\000"
 346      2052756D 
 346      00
 347 01fd 00000000 		.space	41
 347      00000000 
 347      00000000 
 347      00000000 
 347      00000000 
 348 0226 446F6374 		.ascii	"Doctor\000"
 348      6F7200
 349 022d 00000000 		.space	43
 349      00000000 
 349      00000000 
 349      00000000 
 349      00000000 
 350 0258 45766572 		.ascii	"Everclear\000"
 350      636C6561 
 350      7200
 351 0262 00000000 		.space	40
 351      00000000 
 351      00000000 
 351      00000000 
 351      00000000 
 352 028a 4761746F 		.ascii	"Gatorade\000"
ARM GAS  C:\Users\mark6\AppData\Local\Temp\cck94tIo.s 			page 10


 352      72616465 
 352      00
 353 0293 00000000 		.space	41
 353      00000000 
 353      00000000 
 353      00000000 
 353      00000000 
 354 02bc 47696E00 		.ascii	"Gin\000"
 355 02c0 00000000 		.space	46
 355      00000000 
 355      00000000 
 355      00000000 
 355      00000000 
 356 02ee 47696E67 		.ascii	"Ginger Beer\000"
 356      65722042 
 356      65657200 
 357 02fa 00000000 		.space	38
 357      00000000 
 357      00000000 
 357      00000000 
 357      00000000 
 358 0320 4B61686C 		.ascii	"Kahlua\000"
 358      756100
 359 0327 00000000 		.space	43
 359      00000000 
 359      00000000 
 359      00000000 
 359      00000000 
 360 0352 4C656D6F 		.ascii	"Lemonade\000"
 360      6E616465 
 360      00
 361 035b 00000000 		.space	41
 361      00000000 
 361      00000000 
 361      00000000 
 361      00000000 
 362 0384 4D616C69 		.ascii	"Malibu\000"
 362      627500
 363 038b 00000000 		.space	43
 363      00000000 
 363      00000000 
 363      00000000 
 363      00000000 
 364 03b6 4D617267 		.ascii	"Margarita Mix\000"
 364      61726974 
 364      61204D69 
 364      7800
 365 03c4 00000000 		.space	36
 365      00000000 
 365      00000000 
 365      00000000 
 365      00000000 
 366 03e8 4D656C6F 		.ascii	"Melon Liqueur\000"
 366      6E204C69 
 366      71756575 
 366      7200
 367 03f6 00000000 		.space	36
ARM GAS  C:\Users\mark6\AppData\Local\Temp\cck94tIo.s 			page 11


 367      00000000 
 367      00000000 
 367      00000000 
 367      00000000 
 368 041a 4D696C6B 		.ascii	"Milk\000"
 368      00
 369 041f 00000000 		.space	45
 369      00000000 
 369      00000000 
 369      00000000 
 369      00000000 
 370 044c 4F72616E 		.ascii	"Orange Juice\000"
 370      6765204A 
 370      75696365 
 370      00
 371 0459 00000000 		.space	37
 371      00000000 
 371      00000000 
 371      00000000 
 371      00000000 
 372 047e 50617474 		.ascii	"Patty O's Hurricane Mix\000"
 372      79204F27 
 372      73204875 
 372      72726963 
 372      616E6520 
 373 0496 00000000 		.space	26
 373      00000000 
 373      00000000 
 373      00000000 
 373      00000000 
 374 04b0 50657070 		.ascii	"Peppermint Schanpps\000"
 374      65726D69 
 374      6E742053 
 374      6368616E 
 374      70707300 
 375 04c4 00000000 		.space	30
 375      00000000 
 375      00000000 
 375      00000000 
 375      00000000 
 376 04e2 50696E61 		.ascii	"Pina Colada Mix\000"
 376      20436F6C 
 376      61646120 
 376      4D697800 
 377 04f2 00000000 		.space	34
 377      00000000 
 377      00000000 
 377      00000000 
 377      00000000 
 378 0514 50696E65 		.ascii	"Pineapple Juice\000"
 378      6170706C 
 378      65204A75 
 378      69636500 
 379 0524 00000000 		.space	34
 379      00000000 
 379      00000000 
 379      00000000 
ARM GAS  C:\Users\mark6\AppData\Local\Temp\cck94tIo.s 			page 12


 379      00000000 
 380 0546 50696E6B 		.ascii	"Pink Whitney\000"
 380      20576869 
 380      746E6579 
 380      00
 381 0553 00000000 		.space	37
 381      00000000 
 381      00000000 
 381      00000000 
 381      00000000 
 382 0578 52656420 		.ascii	"Red Bull\000"
 382      42756C6C 
 382      00
 383 0581 00000000 		.space	41
 383      00000000 
 383      00000000 
 383      00000000 
 383      00000000 
 384 05aa 53656C74 		.ascii	"Seltzer\000"
 384      7A657200 
 385 05b2 00000000 		.space	42
 385      00000000 
 385      00000000 
 385      00000000 
 385      00000000 
 386 05dc 53706963 		.ascii	"Spiced Rum\000"
 386      65642052 
 386      756D00
 387 05e7 00000000 		.space	39
 387      00000000 
 387      00000000 
 387      00000000 
 387      00000000 
 388 060e 53707269 		.ascii	"Sprite\000"
 388      746500
 389 0615 00000000 		.space	43
 389      00000000 
 389      00000000 
 389      00000000 
 389      00000000 
 390 0640 54657175 		.ascii	"Tequila\000"
 390      696C6100 
 391 0648 00000000 		.space	42
 391      00000000 
 391      00000000 
 391      00000000 
 391      00000000 
 392 0672 546F6E69 		.ascii	"Tonic\000"
 392      6300
 393 0678 00000000 		.space	44
 393      00000000 
 393      00000000 
 393      00000000 
 393      00000000 
 394 06a4 54726970 		.ascii	"Triple Sec\000"
 394      6C652053 
 394      656300
ARM GAS  C:\Users\mark6\AppData\Local\Temp\cck94tIo.s 			page 13


 395 06af 00000000 		.space	39
 395      00000000 
 395      00000000 
 395      00000000 
 395      00000000 
 396 06d6 566F646B 		.ascii	"Vodka\000"
 396      6100
 397 06dc 00000000 		.space	44
 397      00000000 
 397      00000000 
 397      00000000 
 397      00000000 
 398 0708 57686973 		.ascii	"Whiskey\000"
 398      6B657900 
 399 0710 00000000 		.space	42
 399      00000000 
 399      00000000 
 399      00000000 
 399      00000000 
 400 073a 57686974 		.ascii	"White Claw\000"
 400      6520436C 
 400      617700
 401 0745 00000000 		.space	39
 401      00000000 
 401      00000000 
 401      00000000 
 401      00000000 
 402 076c 57686974 		.ascii	"White Rum\000"
 402      65205275 
 402      6D00
 403 0776 00000000 		.space	40
 403      00000000 
 403      00000000 
 403      00000000 
 403      00000000 
 404 079e 0000     		.section	.rodata.str1.4,"aMS",%progbits,1
 405              		.align	2
 406              	.LC10:
 407 0000 444B4520 		.ascii	"DKE Special\000"
 407      53706563 
 407      69616C00 
 408              	.LC11:
 409 000c 47696E20 		.ascii	"Gin & Tonic\000"
 409      2620546F 
 409      6E696300 
 410              	.LC12:
 411 0018 48617261 		.ascii	"Harabedian Special\000"
 411      62656469 
 411      616E2053 
 411      70656369 
 411      616C00
 412 002b 00       		.space	1
 413              	.LC13:
 414 002c 49736C61 		.ascii	"Island Special\000"
 414      6E642053 
 414      70656369 
 414      616C00
ARM GAS  C:\Users\mark6\AppData\Local\Temp\cck94tIo.s 			page 14


 415 003b 00       		.space	1
 416              	.LC14:
 417 003c 50696E61 		.ascii	"Pina Colada\000"
 417      20436F6C 
 417      61646100 
 418              	.LC15:
 419 0048 52656420 		.ascii	"Red Bull Vodka\000"
 419      42756C6C 
 419      20566F64 
 419      6B6100
 420 0057 00       		.space	1
 421              	.LC16:
 422 0058 53637265 		.ascii	"Screwdriver\000"
 422      77647269 
 422      76657200 
 423              		.text
 424              	.Letext0:
 425              		.file 2 "c:\\program files (x86)\\cypress\\psoc creator\\3.3\\psoc creator\\import\\gnu\\arm\\4.9.
 426              		.file 3 "c:\\program files (x86)\\cypress\\psoc creator\\3.3\\psoc creator\\import\\gnu\\arm\\4.9.
 427              		.file 4 "c:\\program files (x86)\\cypress\\psoc creator\\3.3\\psoc creator\\import\\gnu\\arm\\4.9.
 428              		.file 5 ".\\drinks.h"
 429              		.file 6 "Generated_Source\\PSoC5/core_cm3.h"
 430              		.file 7 "c:\\program files (x86)\\cypress\\psoc creator\\3.3\\psoc creator\\import\\gnu\\arm\\4.9.
 431              		.file 8 "c:\\program files (x86)\\cypress\\psoc creator\\3.3\\psoc creator\\import\\gnu\\arm\\4.9.