ARM GAS  C:\Users\mark6\AppData\Local\Temp\ccPyvd79.s 			page 1


   1              		.syntax unified
   2              		.cpu cortex-m3
   3              		.fpu softvfp
   4              		.eabi_attribute 20, 1
   5              		.eabi_attribute 21, 1
   6              		.eabi_attribute 23, 3
   7              		.eabi_attribute 24, 1
   8              		.eabi_attribute 25, 1
   9              		.eabi_attribute 26, 1
  10              		.eabi_attribute 30, 1
  11              		.eabi_attribute 34, 1
  12              		.eabi_attribute 18, 4
  13              		.thumb
  14              		.file	"Em_EEPROM.c"
  15              		.text
  16              	.Ltext0:
  17              		.cfi_sections	.debug_frame
  18              		.section	.text.Em_EEPROM_Start,"ax",%progbits
  19              		.align	2
  20              		.global	Em_EEPROM_Start
  21              		.thumb
  22              		.thumb_func
  23              		.type	Em_EEPROM_Start, %function
  24              	Em_EEPROM_Start:
  25              	.LFB0:
  26              		.file 1 ".\\Generated_Source\\PSoC5\\Em_EEPROM.c"
   1:.\Generated_Source\PSoC5/Em_EEPROM.c **** /*******************************************************************************
   2:.\Generated_Source\PSoC5/Em_EEPROM.c **** * File Name: Em_EEPROM.c
   3:.\Generated_Source\PSoC5/Em_EEPROM.c **** * Version 1.10
   4:.\Generated_Source\PSoC5/Em_EEPROM.c **** *
   5:.\Generated_Source\PSoC5/Em_EEPROM.c **** * Description:
   6:.\Generated_Source\PSoC5/Em_EEPROM.c **** *  This file provides the source code to API for the Emulated EEPROM Component.
   7:.\Generated_Source\PSoC5/Em_EEPROM.c **** *
   8:.\Generated_Source\PSoC5/Em_EEPROM.c **** ********************************************************************************
   9:.\Generated_Source\PSoC5/Em_EEPROM.c **** * Copyright 2013, Cypress Semiconductor Corporation.  All rights reserved.
  10:.\Generated_Source\PSoC5/Em_EEPROM.c **** * You may use this file only in accordance with the license, terms, conditions,
  11:.\Generated_Source\PSoC5/Em_EEPROM.c **** * disclaimers, and limitations in the end user license agreement accompanying
  12:.\Generated_Source\PSoC5/Em_EEPROM.c **** * the software package with which this file was provided.
  13:.\Generated_Source\PSoC5/Em_EEPROM.c **** *******************************************************************************/
  14:.\Generated_Source\PSoC5/Em_EEPROM.c **** 
  15:.\Generated_Source\PSoC5/Em_EEPROM.c **** #include "Em_EEPROM.h"
  16:.\Generated_Source\PSoC5/Em_EEPROM.c **** 
  17:.\Generated_Source\PSoC5/Em_EEPROM.c **** 
  18:.\Generated_Source\PSoC5/Em_EEPROM.c **** /*******************************************************************************
  19:.\Generated_Source\PSoC5/Em_EEPROM.c **** * Function Name: Em_EEPROM_Start
  20:.\Generated_Source\PSoC5/Em_EEPROM.c **** ********************************************************************************
  21:.\Generated_Source\PSoC5/Em_EEPROM.c **** *
  22:.\Generated_Source\PSoC5/Em_EEPROM.c **** * Summary:
  23:.\Generated_Source\PSoC5/Em_EEPROM.c **** *  Empty function. Included for consistency with other
  24:.\Generated_Source\PSoC5/Em_EEPROM.c **** *  components.
  25:.\Generated_Source\PSoC5/Em_EEPROM.c **** *
  26:.\Generated_Source\PSoC5/Em_EEPROM.c **** * Parameters:
  27:.\Generated_Source\PSoC5/Em_EEPROM.c **** *  None
  28:.\Generated_Source\PSoC5/Em_EEPROM.c **** *
  29:.\Generated_Source\PSoC5/Em_EEPROM.c **** * Return:
  30:.\Generated_Source\PSoC5/Em_EEPROM.c **** *  None
  31:.\Generated_Source\PSoC5/Em_EEPROM.c **** *
ARM GAS  C:\Users\mark6\AppData\Local\Temp\ccPyvd79.s 			page 2


  32:.\Generated_Source\PSoC5/Em_EEPROM.c **** *******************************************************************************/
  33:.\Generated_Source\PSoC5/Em_EEPROM.c **** void Em_EEPROM_Start(void) 
  34:.\Generated_Source\PSoC5/Em_EEPROM.c **** {
  27              		.loc 1 34 0
  28              		.cfi_startproc
  29              		@ args = 0, pretend = 0, frame = 0
  30              		@ frame_needed = 0, uses_anonymous_args = 0
  31              		@ link register save eliminated.
  32 0000 7047     		bx	lr
  33              		.cfi_endproc
  34              	.LFE0:
  35              		.size	Em_EEPROM_Start, .-Em_EEPROM_Start
  36 0002 00BF     		.section	.text.Em_EEPROM_Stop,"ax",%progbits
  37              		.align	2
  38              		.global	Em_EEPROM_Stop
  39              		.thumb
  40              		.thumb_func
  41              		.type	Em_EEPROM_Stop, %function
  42              	Em_EEPROM_Stop:
  43              	.LFB1:
  35:.\Generated_Source\PSoC5/Em_EEPROM.c **** 
  36:.\Generated_Source\PSoC5/Em_EEPROM.c **** }
  37:.\Generated_Source\PSoC5/Em_EEPROM.c **** 
  38:.\Generated_Source\PSoC5/Em_EEPROM.c **** 
  39:.\Generated_Source\PSoC5/Em_EEPROM.c **** /*******************************************************************************
  40:.\Generated_Source\PSoC5/Em_EEPROM.c **** * Function Name: Em_EEPROM_Stop
  41:.\Generated_Source\PSoC5/Em_EEPROM.c **** ********************************************************************************
  42:.\Generated_Source\PSoC5/Em_EEPROM.c **** *
  43:.\Generated_Source\PSoC5/Em_EEPROM.c **** * Summary:
  44:.\Generated_Source\PSoC5/Em_EEPROM.c **** *  Empty function. Included for consistency with other
  45:.\Generated_Source\PSoC5/Em_EEPROM.c **** *  components.
  46:.\Generated_Source\PSoC5/Em_EEPROM.c **** *
  47:.\Generated_Source\PSoC5/Em_EEPROM.c **** * Parameters:
  48:.\Generated_Source\PSoC5/Em_EEPROM.c **** *  None
  49:.\Generated_Source\PSoC5/Em_EEPROM.c **** *
  50:.\Generated_Source\PSoC5/Em_EEPROM.c **** * Return:
  51:.\Generated_Source\PSoC5/Em_EEPROM.c **** *  None
  52:.\Generated_Source\PSoC5/Em_EEPROM.c **** *
  53:.\Generated_Source\PSoC5/Em_EEPROM.c **** *******************************************************************************/
  54:.\Generated_Source\PSoC5/Em_EEPROM.c **** void Em_EEPROM_Stop(void) 
  55:.\Generated_Source\PSoC5/Em_EEPROM.c **** {
  44              		.loc 1 55 0
  45              		.cfi_startproc
  46              		@ args = 0, pretend = 0, frame = 0
  47              		@ frame_needed = 0, uses_anonymous_args = 0
  48              		@ link register save eliminated.
  49 0000 7047     		bx	lr
  50              		.cfi_endproc
  51              	.LFE1:
  52              		.size	Em_EEPROM_Stop, .-Em_EEPROM_Stop
  53 0002 00BF     		.section	.text.Em_EEPROM_Write,"ax",%progbits
  54              		.align	2
  55              		.global	Em_EEPROM_Write
  56              		.thumb
  57              		.thumb_func
  58              		.type	Em_EEPROM_Write, %function
  59              	Em_EEPROM_Write:
ARM GAS  C:\Users\mark6\AppData\Local\Temp\ccPyvd79.s 			page 3


  60              	.LFB2:
  56:.\Generated_Source\PSoC5/Em_EEPROM.c **** 
  57:.\Generated_Source\PSoC5/Em_EEPROM.c **** }
  58:.\Generated_Source\PSoC5/Em_EEPROM.c **** 
  59:.\Generated_Source\PSoC5/Em_EEPROM.c **** 
  60:.\Generated_Source\PSoC5/Em_EEPROM.c **** /*******************************************************************************
  61:.\Generated_Source\PSoC5/Em_EEPROM.c **** * Function Name: Em_EEPROM_Write
  62:.\Generated_Source\PSoC5/Em_EEPROM.c **** ********************************************************************************
  63:.\Generated_Source\PSoC5/Em_EEPROM.c **** *
  64:.\Generated_Source\PSoC5/Em_EEPROM.c **** * Summary:
  65:.\Generated_Source\PSoC5/Em_EEPROM.c **** *  Writes the specified number of bytes from the source buffer in SRAM to the
  66:.\Generated_Source\PSoC5/Em_EEPROM.c **** *  emulated EEPROM array in flash, without modifying other data in flash.
  67:.\Generated_Source\PSoC5/Em_EEPROM.c **** *
  68:.\Generated_Source\PSoC5/Em_EEPROM.c **** * Parameters:
  69:.\Generated_Source\PSoC5/Em_EEPROM.c **** *  srcBuf:    Pointer to the SRAM buffer holding the data to write.
  70:.\Generated_Source\PSoC5/Em_EEPROM.c **** *  eepromPtr: Pointer to the array or variable in flash representing
  71:.\Generated_Source\PSoC5/Em_EEPROM.c **** *             the emulated EEPROM.
  72:.\Generated_Source\PSoC5/Em_EEPROM.c **** *  byteCount: Number of bytes to write from srcBuf to eepromPtr.
  73:.\Generated_Source\PSoC5/Em_EEPROM.c **** *
  74:.\Generated_Source\PSoC5/Em_EEPROM.c **** * Return:
  75:.\Generated_Source\PSoC5/Em_EEPROM.c **** *    CYRET_SUCCESS     Successful write.
  76:.\Generated_Source\PSoC5/Em_EEPROM.c **** *    CYRET_BAD_PARAM   eepromPtr is out of range of flash memory.
  77:.\Generated_Source\PSoC5/Em_EEPROM.c **** *    CYRET_UNKNOWN     Other error in writing flash.
  78:.\Generated_Source\PSoC5/Em_EEPROM.c **** *
  79:.\Generated_Source\PSoC5/Em_EEPROM.c **** *******************************************************************************/
  80:.\Generated_Source\PSoC5/Em_EEPROM.c **** #if (CY_PSOC3)
  81:.\Generated_Source\PSoC5/Em_EEPROM.c ****     cystatus Em_EEPROM_Write(const uint8 srcBuf[], const uint8 eepromPtr[], uint16 byteCount)
  82:.\Generated_Source\PSoC5/Em_EEPROM.c ****                                                                             
  83:.\Generated_Source\PSoC5/Em_EEPROM.c **** #else
  84:.\Generated_Source\PSoC5/Em_EEPROM.c ****     cystatus Em_EEPROM_Write(const uint8 srcBuf[], const uint8 eepromPtr[], uint32 byteCount)
  85:.\Generated_Source\PSoC5/Em_EEPROM.c **** #endif /* (!CY_PSOC3) */
  86:.\Generated_Source\PSoC5/Em_EEPROM.c **** {
  61              		.loc 1 86 0
  62              		.cfi_startproc
  63              		@ args = 0, pretend = 0, frame = 544
  64              		@ frame_needed = 0, uses_anonymous_args = 0
  65              	.LVL0:
  66              		.loc 1 86 0
  67 0000 2DE9F04F 		push	{r4, r5, r6, r7, r8, r9, r10, fp, lr}
  68              		.cfi_def_cfa_offset 36
  69              		.cfi_offset 4, -36
  70              		.cfi_offset 5, -32
  71              		.cfi_offset 6, -28
  72              		.cfi_offset 7, -24
  73              		.cfi_offset 8, -20
  74              		.cfi_offset 9, -16
  75              		.cfi_offset 10, -12
  76              		.cfi_offset 11, -8
  77              		.cfi_offset 14, -4
  78 0004 ADF5097D 		sub	sp, sp, #548
  79              		.cfi_def_cfa_offset 584
  80              	.LVL1:
  87:.\Generated_Source\PSoC5/Em_EEPROM.c ****     uint8 writeBuffer[CY_FLASH_SIZEOF_ROW];
  88:.\Generated_Source\PSoC5/Em_EEPROM.c ****     uint32 arrayId;
  89:.\Generated_Source\PSoC5/Em_EEPROM.c ****     uint32 rowId;
  90:.\Generated_Source\PSoC5/Em_EEPROM.c ****     uint32 dstIndex;
  91:.\Generated_Source\PSoC5/Em_EEPROM.c ****     uint32 srcIndex;
ARM GAS  C:\Users\mark6\AppData\Local\Temp\ccPyvd79.s 			page 4


  92:.\Generated_Source\PSoC5/Em_EEPROM.c ****     cystatus rc;
  93:.\Generated_Source\PSoC5/Em_EEPROM.c ****     uint32 eeOffset;
  94:.\Generated_Source\PSoC5/Em_EEPROM.c ****     uint32 byteOffset;
  95:.\Generated_Source\PSoC5/Em_EEPROM.c ****     
  96:.\Generated_Source\PSoC5/Em_EEPROM.c ****     #if (!CY_PSOC4)
  97:.\Generated_Source\PSoC5/Em_EEPROM.c ****         #if (CYDEV_ECC_ENABLE == 0)
  98:.\Generated_Source\PSoC5/Em_EEPROM.c ****             uint8 rowBuffer[CY_FLASH_SIZEOF_ROW + CY_FLASH_SIZEOF_ECC_ROW];
  99:.\Generated_Source\PSoC5/Em_EEPROM.c ****         #endif /* CYDEV_ECC_ENABLE == 0) */
 100:.\Generated_Source\PSoC5/Em_EEPROM.c ****     #endif /* (!CY_PSOC4) */
 101:.\Generated_Source\PSoC5/Em_EEPROM.c **** 
 102:.\Generated_Source\PSoC5/Em_EEPROM.c ****     eeOffset = (uint32)eepromPtr;
 103:.\Generated_Source\PSoC5/Em_EEPROM.c ****     #if (CY_PSOC3)
 104:.\Generated_Source\PSoC5/Em_EEPROM.c ****         eeOffset &= Em_EEPROM_CODE_ADDR_MASK;
 105:.\Generated_Source\PSoC5/Em_EEPROM.c ****     #endif /* (CY_PSOC3) */
 106:.\Generated_Source\PSoC5/Em_EEPROM.c **** 
 107:.\Generated_Source\PSoC5/Em_EEPROM.c ****     /* Make sure, that eepromPtr[] points to ROM */
 108:.\Generated_Source\PSoC5/Em_EEPROM.c ****     #if (CY_PSOC3)
 109:.\Generated_Source\PSoC5/Em_EEPROM.c ****         if (((uint32)eepromPtr >= Em_EEPROM_CODE_ADDR_OFFSET) &&
 110:.\Generated_Source\PSoC5/Em_EEPROM.c ****             (((uint32)eepromPtr + byteCount) <= Em_EEPROM_CODE_ADDR_END))
 111:.\Generated_Source\PSoC5/Em_EEPROM.c ****     #else
 112:.\Generated_Source\PSoC5/Em_EEPROM.c ****         if (((uint32)eepromPtr + byteCount) < Em_EEPROM_FLASH_END_ADDR)
  81              		.loc 1 112 0
  82 0008 8B18     		adds	r3, r1, r2
  83 000a B3F5802F 		cmp	r3, #262144
  84 000e 3ED2     		bcs	.L13
  85 0010 0E46     		mov	r6, r1
  86 0012 1746     		mov	r7, r2
  87 0014 8046     		mov	r8, r0
 113:.\Generated_Source\PSoC5/Em_EEPROM.c ****     #endif /* (CY_PSOC3) */
 114:.\Generated_Source\PSoC5/Em_EEPROM.c ****     {
 115:.\Generated_Source\PSoC5/Em_EEPROM.c ****         #if (!CY_PSOC4)
 116:.\Generated_Source\PSoC5/Em_EEPROM.c ****             (void)CySetTemp();
  88              		.loc 1 116 0
  89 0016 FFF7FEFF 		bl	CySetTemp
  90              	.LVL2:
 117:.\Generated_Source\PSoC5/Em_EEPROM.c **** 
 118:.\Generated_Source\PSoC5/Em_EEPROM.c ****             #if(CYDEV_ECC_ENABLE == 0)
 119:.\Generated_Source\PSoC5/Em_EEPROM.c ****                 (void)CySetFlashEEBuffer(rowBuffer);
  91              		.loc 1 119 0
  92 001a 6846     		mov	r0, sp
  93 001c FFF7FEFF 		bl	CySetFlashEEBuffer
  94              	.LVL3:
 120:.\Generated_Source\PSoC5/Em_EEPROM.c ****             #endif
 121:.\Generated_Source\PSoC5/Em_EEPROM.c ****         #endif /* (!CY_PSOC4) */
 122:.\Generated_Source\PSoC5/Em_EEPROM.c **** 
 123:.\Generated_Source\PSoC5/Em_EEPROM.c ****         arrayId = eeOffset / CY_FLASH_SIZEOF_ARRAY;
  95              		.loc 1 123 0
  96 0020 4FEA164A 		lsr	r10, r6, #16
  97              	.LVL4:
 124:.\Generated_Source\PSoC5/Em_EEPROM.c ****         rowId = (eeOffset / CY_FLASH_SIZEOF_ROW) % Em_EEPROM_ROWS_IN_ARRAY;
  98              		.loc 1 124 0
  99 0024 C6F30729 		ubfx	r9, r6, #8, #8
 100              	.LVL5:
 125:.\Generated_Source\PSoC5/Em_EEPROM.c ****         byteOffset = (CY_FLASH_SIZEOF_ARRAY * arrayId) + (CY_FLASH_SIZEOF_ROW * rowId);
 101              		.loc 1 125 0
 102 0028 09EB0A24 		add	r4, r9, r10, lsl #8
 103 002c 2402     		lsls	r4, r4, #8
ARM GAS  C:\Users\mark6\AppData\Local\Temp\ccPyvd79.s 			page 5


 104              	.LVL6:
 126:.\Generated_Source\PSoC5/Em_EEPROM.c ****         srcIndex = 0u;
 127:.\Generated_Source\PSoC5/Em_EEPROM.c **** 
 128:.\Generated_Source\PSoC5/Em_EEPROM.c ****         rc = CYRET_SUCCESS;
 105              		.loc 1 128 0
 106 002e 4FF0000B 		mov	fp, #0
 126:.\Generated_Source\PSoC5/Em_EEPROM.c ****         srcIndex = 0u;
 107              		.loc 1 126 0
 108 0032 5D46     		mov	r5, fp
 129:.\Generated_Source\PSoC5/Em_EEPROM.c **** 
 130:.\Generated_Source\PSoC5/Em_EEPROM.c ****         while ((srcIndex < byteCount) && (CYRET_SUCCESS == rc))
 109              		.loc 1 130 0
 110 0034 23E0     		b	.L5
 111              	.LVL7:
 112              	.L8:
 131:.\Generated_Source\PSoC5/Em_EEPROM.c ****         {
 132:.\Generated_Source\PSoC5/Em_EEPROM.c ****             /* Copy data to the write buffer either from the source buffer or from the flash */
 133:.\Generated_Source\PSoC5/Em_EEPROM.c ****             for (dstIndex = 0u; dstIndex < CY_FLASH_SIZEOF_ROW; dstIndex++)
 134:.\Generated_Source\PSoC5/Em_EEPROM.c ****             {
 135:.\Generated_Source\PSoC5/Em_EEPROM.c ****                 if ((byteOffset >= eeOffset) && (srcIndex < byteCount))
 113              		.loc 1 135 0
 114 0036 B442     		cmp	r4, r6
 115 0038 07D3     		bcc	.L6
 116              		.loc 1 135 0 is_stmt 0 discriminator 1
 117 003a BD42     		cmp	r5, r7
 118 003c 05D2     		bcs	.L6
 136:.\Generated_Source\PSoC5/Em_EEPROM.c ****                 {
 137:.\Generated_Source\PSoC5/Em_EEPROM.c ****                     writeBuffer[dstIndex] = srcBuf[srcIndex];
 119              		.loc 1 137 0 is_stmt 1
 120 003e 18F80510 		ldrb	r1, [r8, r5]	@ zero_extendqisi2
 121 0042 48AA     		add	r2, sp, #288
 122 0044 D154     		strb	r1, [r2, r3]
 138:.\Generated_Source\PSoC5/Em_EEPROM.c ****                     srcIndex++;
 123              		.loc 1 138 0
 124 0046 0135     		adds	r5, r5, #1
 125              	.LVL8:
 126 0048 02E0     		b	.L7
 127              	.L6:
 139:.\Generated_Source\PSoC5/Em_EEPROM.c ****                 }
 140:.\Generated_Source\PSoC5/Em_EEPROM.c ****                 else
 141:.\Generated_Source\PSoC5/Em_EEPROM.c ****                 {
 142:.\Generated_Source\PSoC5/Em_EEPROM.c ****                     writeBuffer[dstIndex] = CY_GET_XTND_REG8(CYDEV_FLASH_BASE + byteOffset);
 128              		.loc 1 142 0
 129 004a 2178     		ldrb	r1, [r4]	@ zero_extendqisi2
 130 004c 48AA     		add	r2, sp, #288
 131 004e D154     		strb	r1, [r2, r3]
 132              	.L7:
 143:.\Generated_Source\PSoC5/Em_EEPROM.c ****                 }
 144:.\Generated_Source\PSoC5/Em_EEPROM.c ****                 byteOffset++;
 133              		.loc 1 144 0 discriminator 2
 134 0050 0134     		adds	r4, r4, #1
 135              	.LVL9:
 133:.\Generated_Source\PSoC5/Em_EEPROM.c ****             {
 136              		.loc 1 133 0 discriminator 2
 137 0052 0133     		adds	r3, r3, #1
 138              	.LVL10:
 139 0054 00E0     		b	.L11
ARM GAS  C:\Users\mark6\AppData\Local\Temp\ccPyvd79.s 			page 6


 140              	.LVL11:
 141              	.L14:
 142 0056 0023     		movs	r3, #0
 143              	.L11:
 144              	.LVL12:
 133:.\Generated_Source\PSoC5/Em_EEPROM.c ****             {
 145              		.loc 1 133 0 is_stmt 0 discriminator 1
 146 0058 FF2B     		cmp	r3, #255
 147 005a ECD9     		bls	.L8
 145:.\Generated_Source\PSoC5/Em_EEPROM.c ****             }
 146:.\Generated_Source\PSoC5/Em_EEPROM.c **** 
 147:.\Generated_Source\PSoC5/Em_EEPROM.c ****             /* Write flash row */
 148:.\Generated_Source\PSoC5/Em_EEPROM.c ****             #if (CY_PSOC4)
 149:.\Generated_Source\PSoC5/Em_EEPROM.c ****                 rc = CySysFlashWriteRow(rowId, writeBuffer);
 150:.\Generated_Source\PSoC5/Em_EEPROM.c ****             #else
 151:.\Generated_Source\PSoC5/Em_EEPROM.c ****                 rc = CyWriteRowData((uint8)arrayId, (uint16)rowId, writeBuffer);
 148              		.loc 1 151 0 is_stmt 1
 149 005c 5FFA8AF0 		uxtb	r0, r10
 150 0060 1FFA89F1 		uxth	r1, r9
 151 0064 48AA     		add	r2, sp, #288
 152 0066 FFF7FEFF 		bl	CyWriteRowData
 153              	.LVL13:
 154 006a 8346     		mov	fp, r0
 155              	.LVL14:
 152:.\Generated_Source\PSoC5/Em_EEPROM.c ****             #endif /* (CY_PSOC4) */
 153:.\Generated_Source\PSoC5/Em_EEPROM.c **** 
 154:.\Generated_Source\PSoC5/Em_EEPROM.c ****             /* Go to the next row */
 155:.\Generated_Source\PSoC5/Em_EEPROM.c ****             rowId++;
 156              		.loc 1 155 0
 157 006c 09F10109 		add	r9, r9, #1
 158              	.LVL15:
 156:.\Generated_Source\PSoC5/Em_EEPROM.c ****             #if (CY_FLASH_NUMBER_ARRAYS > 1)
 157:.\Generated_Source\PSoC5/Em_EEPROM.c ****                 if (rowId >= Em_EEPROM_ROWS_IN_ARRAY)
 159              		.loc 1 157 0
 160 0070 B9F1FF0F 		cmp	r9, #255
 161 0074 03D9     		bls	.L5
 158:.\Generated_Source\PSoC5/Em_EEPROM.c ****                 {
 159:.\Generated_Source\PSoC5/Em_EEPROM.c ****                     arrayId++;
 162              		.loc 1 159 0
 163 0076 0AF1010A 		add	r10, r10, #1
 164              	.LVL16:
 160:.\Generated_Source\PSoC5/Em_EEPROM.c ****                     rowId = 0u;
 165              		.loc 1 160 0
 166 007a 4FF00009 		mov	r9, #0
 167              	.LVL17:
 168              	.L5:
 130:.\Generated_Source\PSoC5/Em_EEPROM.c ****         {
 169              		.loc 1 130 0
 170 007e BD42     		cmp	r5, r7
 171 0080 02D2     		bcs	.L10
 130:.\Generated_Source\PSoC5/Em_EEPROM.c ****         {
 172              		.loc 1 130 0 is_stmt 0 discriminator 1
 173 0082 BBF1000F 		cmp	fp, #0
 174 0086 E6D0     		beq	.L14
 175              	.L10:
 161:.\Generated_Source\PSoC5/Em_EEPROM.c ****                 }
 162:.\Generated_Source\PSoC5/Em_EEPROM.c ****             #endif /* (CY_FLASH_NUMBER_ARRAYS > 1) */
ARM GAS  C:\Users\mark6\AppData\Local\Temp\ccPyvd79.s 			page 7


 163:.\Generated_Source\PSoC5/Em_EEPROM.c ****         }
 164:.\Generated_Source\PSoC5/Em_EEPROM.c **** 
 165:.\Generated_Source\PSoC5/Em_EEPROM.c ****         /* Flush both Cache and PHUB prefetch buffer */
 166:.\Generated_Source\PSoC5/Em_EEPROM.c ****         #if (CY_PSOC5)
 167:.\Generated_Source\PSoC5/Em_EEPROM.c ****             CyFlushCache();
 176              		.loc 1 167 0 is_stmt 1
 177 0088 FFF7FEFF 		bl	CyFlushCache
 178              	.LVL18:
 179 008c 01E0     		b	.L4
 180              	.LVL19:
 181              	.L13:
 168:.\Generated_Source\PSoC5/Em_EEPROM.c ****         #elif (CY_PSOC3)
 169:.\Generated_Source\PSoC5/Em_EEPROM.c ****             CY_FLASH_CONTROL_REG |= 6u;
 170:.\Generated_Source\PSoC5/Em_EEPROM.c ****         #endif /* (CY_PSOC5) */
 171:.\Generated_Source\PSoC5/Em_EEPROM.c ****     }
 172:.\Generated_Source\PSoC5/Em_EEPROM.c ****     else
 173:.\Generated_Source\PSoC5/Em_EEPROM.c ****     {
 174:.\Generated_Source\PSoC5/Em_EEPROM.c ****         rc = CYRET_BAD_PARAM;
 182              		.loc 1 174 0
 183 008e 4FF0010B 		mov	fp, #1
 184              	.LVL20:
 185              	.L4:
 175:.\Generated_Source\PSoC5/Em_EEPROM.c ****     }
 176:.\Generated_Source\PSoC5/Em_EEPROM.c **** 
 177:.\Generated_Source\PSoC5/Em_EEPROM.c ****     /* Mask return codes from flash, if they are not supported */
 178:.\Generated_Source\PSoC5/Em_EEPROM.c ****     if ((CYRET_SUCCESS != rc) && (CYRET_BAD_PARAM != rc))
 186              		.loc 1 178 0
 187 0092 BBF1010F 		cmp	fp, #1
 188 0096 01D9     		bls	.L12
 179:.\Generated_Source\PSoC5/Em_EEPROM.c ****     {
 180:.\Generated_Source\PSoC5/Em_EEPROM.c ****         rc = CYRET_UNKNOWN;
 189              		.loc 1 180 0
 190 0098 4FF0FF3B 		mov	fp, #-1
 191              	.LVL21:
 192              	.L12:
 181:.\Generated_Source\PSoC5/Em_EEPROM.c ****     }
 182:.\Generated_Source\PSoC5/Em_EEPROM.c ****     
 183:.\Generated_Source\PSoC5/Em_EEPROM.c ****     return (rc);
 184:.\Generated_Source\PSoC5/Em_EEPROM.c **** }
 193              		.loc 1 184 0
 194 009c 5846     		mov	r0, fp
 195 009e 0DF5097D 		add	sp, sp, #548
 196              		.cfi_def_cfa_offset 36
 197              		@ sp needed
 198 00a2 BDE8F08F 		pop	{r4, r5, r6, r7, r8, r9, r10, fp, pc}
 199              		.cfi_endproc
 200              	.LFE2:
 201              		.size	Em_EEPROM_Write, .-Em_EEPROM_Write
 202 00a6 00BF     		.text
 203              	.Letext0:
 204              		.file 2 ".\\Generated_Source\\PSoC5\\cytypes.h"
 205              		.file 3 ".\\Generated_Source\\PSoC5\\CyFlash.h"
 206              		.file 4 ".\\Generated_Source\\PSoC5\\CyLib.h"