ARM GAS  C:\Users\mark6\AppData\Local\Temp\cc7ovjaw.s 			page 1


   1              		.syntax unified
   2              		.cpu cortex-m3
   3              		.fpu softvfp
   4              		.eabi_attribute 20, 1
   5              		.eabi_attribute 21, 1
   6              		.eabi_attribute 23, 3
   7              		.eabi_attribute 24, 1
   8              		.eabi_attribute 25, 1
   9              		.eabi_attribute 26, 1
  10              		.eabi_attribute 30, 1
  11              		.eabi_attribute 34, 1
  12              		.eabi_attribute 18, 4
  13              		.thumb
  14              		.file	"GUI_X.c"
  15              		.text
  16              	.Ltext0:
  17              		.cfi_sections	.debug_frame
  18              		.section	.text.GUI_X_Systick_Intr,"ax",%progbits
  19              		.align	2
  20              		.global	GUI_X_Systick_Intr
  21              		.thumb
  22              		.thumb_func
  23              		.type	GUI_X_Systick_Intr, %function
  24              	GUI_X_Systick_Intr:
  25              	.LFB70:
  26              		.file 1 "..\\..\\..\\..\\College-MIT\\S6Spring2020\\6.115\\FinalProject\\BunkerKnowledge\\PSoC_5_F
   1:..\..\..\..\College-MIT\S6Spring2020\6.115\FinalProject\BunkerKnowledge\PSoC_5_Files\Processor.cydsn/GUI_X.c **** /*********************************************************************
   2:..\..\..\..\College-MIT\S6Spring2020\6.115\FinalProject\BunkerKnowledge\PSoC_5_Files\Processor.cydsn/GUI_X.c **** *                SEGGER Microcontroller GmbH & Co. KG                *
   3:..\..\..\..\College-MIT\S6Spring2020\6.115\FinalProject\BunkerKnowledge\PSoC_5_Files\Processor.cydsn/GUI_X.c **** *        Solutions for real time microcontroller applications        *
   4:..\..\..\..\College-MIT\S6Spring2020\6.115\FinalProject\BunkerKnowledge\PSoC_5_Files\Processor.cydsn/GUI_X.c **** **********************************************************************
   5:..\..\..\..\College-MIT\S6Spring2020\6.115\FinalProject\BunkerKnowledge\PSoC_5_Files\Processor.cydsn/GUI_X.c **** *                                                                    *
   6:..\..\..\..\College-MIT\S6Spring2020\6.115\FinalProject\BunkerKnowledge\PSoC_5_Files\Processor.cydsn/GUI_X.c **** *        (c) 1996 - 2017  SEGGER Microcontroller GmbH & Co. KG       *
   7:..\..\..\..\College-MIT\S6Spring2020\6.115\FinalProject\BunkerKnowledge\PSoC_5_Files\Processor.cydsn/GUI_X.c **** *                                                                    *
   8:..\..\..\..\College-MIT\S6Spring2020\6.115\FinalProject\BunkerKnowledge\PSoC_5_Files\Processor.cydsn/GUI_X.c **** *        Internet: www.segger.com    Support:  support@segger.com    *
   9:..\..\..\..\College-MIT\S6Spring2020\6.115\FinalProject\BunkerKnowledge\PSoC_5_Files\Processor.cydsn/GUI_X.c **** *                                                                    *
  10:..\..\..\..\College-MIT\S6Spring2020\6.115\FinalProject\BunkerKnowledge\PSoC_5_Files\Processor.cydsn/GUI_X.c **** **********************************************************************
  11:..\..\..\..\College-MIT\S6Spring2020\6.115\FinalProject\BunkerKnowledge\PSoC_5_Files\Processor.cydsn/GUI_X.c **** 
  12:..\..\..\..\College-MIT\S6Spring2020\6.115\FinalProject\BunkerKnowledge\PSoC_5_Files\Processor.cydsn/GUI_X.c **** ** emWin V5.46 - Graphical user interface for embedded applications **
  13:..\..\..\..\College-MIT\S6Spring2020\6.115\FinalProject\BunkerKnowledge\PSoC_5_Files\Processor.cydsn/GUI_X.c **** All  Intellectual Property rights  in the Software belongs to  SEGGER.
  14:..\..\..\..\College-MIT\S6Spring2020\6.115\FinalProject\BunkerKnowledge\PSoC_5_Files\Processor.cydsn/GUI_X.c **** emWin is protected by  international copyright laws.  Knowledge of the
  15:..\..\..\..\College-MIT\S6Spring2020\6.115\FinalProject\BunkerKnowledge\PSoC_5_Files\Processor.cydsn/GUI_X.c **** source code may not be used to write a similar product.  This file may
  16:..\..\..\..\College-MIT\S6Spring2020\6.115\FinalProject\BunkerKnowledge\PSoC_5_Files\Processor.cydsn/GUI_X.c **** only be used in accordance with the following terms:
  17:..\..\..\..\College-MIT\S6Spring2020\6.115\FinalProject\BunkerKnowledge\PSoC_5_Files\Processor.cydsn/GUI_X.c **** 
  18:..\..\..\..\College-MIT\S6Spring2020\6.115\FinalProject\BunkerKnowledge\PSoC_5_Files\Processor.cydsn/GUI_X.c **** The software  has been licensed to  Cypress Semiconductor Corporation,
  19:..\..\..\..\College-MIT\S6Spring2020\6.115\FinalProject\BunkerKnowledge\PSoC_5_Files\Processor.cydsn/GUI_X.c **** whose registered  office is situated  at 198 Champion Ct. San Jose, CA 
  20:..\..\..\..\College-MIT\S6Spring2020\6.115\FinalProject\BunkerKnowledge\PSoC_5_Files\Processor.cydsn/GUI_X.c **** 95134 USA  solely for the  purposes of creating  libraries for Cypress
  21:..\..\..\..\College-MIT\S6Spring2020\6.115\FinalProject\BunkerKnowledge\PSoC_5_Files\Processor.cydsn/GUI_X.c **** PSoC3 and  PSoC5 processor-based devices,  sublicensed and distributed
  22:..\..\..\..\College-MIT\S6Spring2020\6.115\FinalProject\BunkerKnowledge\PSoC_5_Files\Processor.cydsn/GUI_X.c **** under  the  terms  and  conditions  of  the  Cypress  End User License
  23:..\..\..\..\College-MIT\S6Spring2020\6.115\FinalProject\BunkerKnowledge\PSoC_5_Files\Processor.cydsn/GUI_X.c **** Agreement.
  24:..\..\..\..\College-MIT\S6Spring2020\6.115\FinalProject\BunkerKnowledge\PSoC_5_Files\Processor.cydsn/GUI_X.c **** Full source code is available at: www.segger.com
  25:..\..\..\..\College-MIT\S6Spring2020\6.115\FinalProject\BunkerKnowledge\PSoC_5_Files\Processor.cydsn/GUI_X.c **** 
  26:..\..\..\..\College-MIT\S6Spring2020\6.115\FinalProject\BunkerKnowledge\PSoC_5_Files\Processor.cydsn/GUI_X.c **** We appreciate your understanding and fairness.
  27:..\..\..\..\College-MIT\S6Spring2020\6.115\FinalProject\BunkerKnowledge\PSoC_5_Files\Processor.cydsn/GUI_X.c **** ----------------------------------------------------------------------
  28:..\..\..\..\College-MIT\S6Spring2020\6.115\FinalProject\BunkerKnowledge\PSoC_5_Files\Processor.cydsn/GUI_X.c **** Licensing information
  29:..\..\..\..\College-MIT\S6Spring2020\6.115\FinalProject\BunkerKnowledge\PSoC_5_Files\Processor.cydsn/GUI_X.c **** Licensor:                 SEGGER Microcontroller Systems LLC
  30:..\..\..\..\College-MIT\S6Spring2020\6.115\FinalProject\BunkerKnowledge\PSoC_5_Files\Processor.cydsn/GUI_X.c **** Licensed to:              Cypress Semiconductor Corp, 198 Champion Ct., San Jose, CA 95134, USA
  31:..\..\..\..\College-MIT\S6Spring2020\6.115\FinalProject\BunkerKnowledge\PSoC_5_Files\Processor.cydsn/GUI_X.c **** Licensed SEGGER software: emWin
ARM GAS  C:\Users\mark6\AppData\Local\Temp\cc7ovjaw.s 			page 2


  32:..\..\..\..\College-MIT\S6Spring2020\6.115\FinalProject\BunkerKnowledge\PSoC_5_Files\Processor.cydsn/GUI_X.c **** License number:           GUI-00319
  33:..\..\..\..\College-MIT\S6Spring2020\6.115\FinalProject\BunkerKnowledge\PSoC_5_Files\Processor.cydsn/GUI_X.c **** License model:            Services and License Agreement, signed June 10th, 2009
  34:..\..\..\..\College-MIT\S6Spring2020\6.115\FinalProject\BunkerKnowledge\PSoC_5_Files\Processor.cydsn/GUI_X.c **** Licensed platform:        Any Cypress platform (Initial targets are: PSoC3, PSoC5)
  35:..\..\..\..\College-MIT\S6Spring2020\6.115\FinalProject\BunkerKnowledge\PSoC_5_Files\Processor.cydsn/GUI_X.c **** ----------------------------------------------------------------------
  36:..\..\..\..\College-MIT\S6Spring2020\6.115\FinalProject\BunkerKnowledge\PSoC_5_Files\Processor.cydsn/GUI_X.c **** Support and Update Agreement (SUA)
  37:..\..\..\..\College-MIT\S6Spring2020\6.115\FinalProject\BunkerKnowledge\PSoC_5_Files\Processor.cydsn/GUI_X.c **** SUA period:               2009-06-12 - 2022-07-27
  38:..\..\..\..\College-MIT\S6Spring2020\6.115\FinalProject\BunkerKnowledge\PSoC_5_Files\Processor.cydsn/GUI_X.c **** Contact to extend SUA:    sales@segger.com
  39:..\..\..\..\College-MIT\S6Spring2020\6.115\FinalProject\BunkerKnowledge\PSoC_5_Files\Processor.cydsn/GUI_X.c **** ----------------------------------------------------------------------
  40:..\..\..\..\College-MIT\S6Spring2020\6.115\FinalProject\BunkerKnowledge\PSoC_5_Files\Processor.cydsn/GUI_X.c **** File        : GUI_X.C
  41:..\..\..\..\College-MIT\S6Spring2020\6.115\FinalProject\BunkerKnowledge\PSoC_5_Files\Processor.cydsn/GUI_X.c **** Purpose     : Config / System dependent externals for GUI
  42:..\..\..\..\College-MIT\S6Spring2020\6.115\FinalProject\BunkerKnowledge\PSoC_5_Files\Processor.cydsn/GUI_X.c **** ---------------------------END-OF-HEADER------------------------------
  43:..\..\..\..\College-MIT\S6Spring2020\6.115\FinalProject\BunkerKnowledge\PSoC_5_Files\Processor.cydsn/GUI_X.c **** */
  44:..\..\..\..\College-MIT\S6Spring2020\6.115\FinalProject\BunkerKnowledge\PSoC_5_Files\Processor.cydsn/GUI_X.c **** 
  45:..\..\..\..\College-MIT\S6Spring2020\6.115\FinalProject\BunkerKnowledge\PSoC_5_Files\Processor.cydsn/GUI_X.c **** #include "GUI.h"
  46:..\..\..\..\College-MIT\S6Spring2020\6.115\FinalProject\BunkerKnowledge\PSoC_5_Files\Processor.cydsn/GUI_X.c **** 
  47:..\..\..\..\College-MIT\S6Spring2020\6.115\FinalProject\BunkerKnowledge\PSoC_5_Files\Processor.cydsn/GUI_X.c **** #include "project.h"
  48:..\..\..\..\College-MIT\S6Spring2020\6.115\FinalProject\BunkerKnowledge\PSoC_5_Files\Processor.cydsn/GUI_X.c **** 
  49:..\..\..\..\College-MIT\S6Spring2020\6.115\FinalProject\BunkerKnowledge\PSoC_5_Files\Processor.cydsn/GUI_X.c **** /*********************************************************************
  50:..\..\..\..\College-MIT\S6Spring2020\6.115\FinalProject\BunkerKnowledge\PSoC_5_Files\Processor.cydsn/GUI_X.c **** *
  51:..\..\..\..\College-MIT\S6Spring2020\6.115\FinalProject\BunkerKnowledge\PSoC_5_Files\Processor.cydsn/GUI_X.c **** *       Function Prototypes
  52:..\..\..\..\College-MIT\S6Spring2020\6.115\FinalProject\BunkerKnowledge\PSoC_5_Files\Processor.cydsn/GUI_X.c **** */
  53:..\..\..\..\College-MIT\S6Spring2020\6.115\FinalProject\BunkerKnowledge\PSoC_5_Files\Processor.cydsn/GUI_X.c **** void GUI_X_Systick_Init(void);
  54:..\..\..\..\College-MIT\S6Spring2020\6.115\FinalProject\BunkerKnowledge\PSoC_5_Files\Processor.cydsn/GUI_X.c **** 
  55:..\..\..\..\College-MIT\S6Spring2020\6.115\FinalProject\BunkerKnowledge\PSoC_5_Files\Processor.cydsn/GUI_X.c **** /*********************************************************************
  56:..\..\..\..\College-MIT\S6Spring2020\6.115\FinalProject\BunkerKnowledge\PSoC_5_Files\Processor.cydsn/GUI_X.c **** *
  57:..\..\..\..\College-MIT\S6Spring2020\6.115\FinalProject\BunkerKnowledge\PSoC_5_Files\Processor.cydsn/GUI_X.c **** *       Global data
  58:..\..\..\..\College-MIT\S6Spring2020\6.115\FinalProject\BunkerKnowledge\PSoC_5_Files\Processor.cydsn/GUI_X.c **** */
  59:..\..\..\..\College-MIT\S6Spring2020\6.115\FinalProject\BunkerKnowledge\PSoC_5_Files\Processor.cydsn/GUI_X.c **** volatile GUI_TIMER_TIME OS_TimeMS;
  60:..\..\..\..\College-MIT\S6Spring2020\6.115\FinalProject\BunkerKnowledge\PSoC_5_Files\Processor.cydsn/GUI_X.c **** 
  61:..\..\..\..\College-MIT\S6Spring2020\6.115\FinalProject\BunkerKnowledge\PSoC_5_Files\Processor.cydsn/GUI_X.c **** /*********************************************************************
  62:..\..\..\..\College-MIT\S6Spring2020\6.115\FinalProject\BunkerKnowledge\PSoC_5_Files\Processor.cydsn/GUI_X.c **** *
  63:..\..\..\..\College-MIT\S6Spring2020\6.115\FinalProject\BunkerKnowledge\PSoC_5_Files\Processor.cydsn/GUI_X.c **** *      Timing:
  64:..\..\..\..\College-MIT\S6Spring2020\6.115\FinalProject\BunkerKnowledge\PSoC_5_Files\Processor.cydsn/GUI_X.c **** *                 GUI_X_GetTime()
  65:..\..\..\..\College-MIT\S6Spring2020\6.115\FinalProject\BunkerKnowledge\PSoC_5_Files\Processor.cydsn/GUI_X.c **** *                 GUI_X_Delay(int)
  66:..\..\..\..\College-MIT\S6Spring2020\6.115\FinalProject\BunkerKnowledge\PSoC_5_Files\Processor.cydsn/GUI_X.c **** *
  67:..\..\..\..\College-MIT\S6Spring2020\6.115\FinalProject\BunkerKnowledge\PSoC_5_Files\Processor.cydsn/GUI_X.c **** *   Some timing dependent routines require a GetTime
  68:..\..\..\..\College-MIT\S6Spring2020\6.115\FinalProject\BunkerKnowledge\PSoC_5_Files\Processor.cydsn/GUI_X.c **** *   and delay function. Default time unit (tick), normally is
  69:..\..\..\..\College-MIT\S6Spring2020\6.115\FinalProject\BunkerKnowledge\PSoC_5_Files\Processor.cydsn/GUI_X.c **** *   1 ms.
  70:..\..\..\..\College-MIT\S6Spring2020\6.115\FinalProject\BunkerKnowledge\PSoC_5_Files\Processor.cydsn/GUI_X.c **** */
  71:..\..\..\..\College-MIT\S6Spring2020\6.115\FinalProject\BunkerKnowledge\PSoC_5_Files\Processor.cydsn/GUI_X.c **** 
  72:..\..\..\..\College-MIT\S6Spring2020\6.115\FinalProject\BunkerKnowledge\PSoC_5_Files\Processor.cydsn/GUI_X.c **** GUI_TIMER_TIME GUI_X_GetTime(void) { 
  73:..\..\..\..\College-MIT\S6Spring2020\6.115\FinalProject\BunkerKnowledge\PSoC_5_Files\Processor.cydsn/GUI_X.c ****   return OS_TimeMS; 
  74:..\..\..\..\College-MIT\S6Spring2020\6.115\FinalProject\BunkerKnowledge\PSoC_5_Files\Processor.cydsn/GUI_X.c **** }
  75:..\..\..\..\College-MIT\S6Spring2020\6.115\FinalProject\BunkerKnowledge\PSoC_5_Files\Processor.cydsn/GUI_X.c **** 
  76:..\..\..\..\College-MIT\S6Spring2020\6.115\FinalProject\BunkerKnowledge\PSoC_5_Files\Processor.cydsn/GUI_X.c **** void GUI_X_Delay(int ms) { 
  77:..\..\..\..\College-MIT\S6Spring2020\6.115\FinalProject\BunkerKnowledge\PSoC_5_Files\Processor.cydsn/GUI_X.c ****   int tEnd = OS_TimeMS + ms;
  78:..\..\..\..\College-MIT\S6Spring2020\6.115\FinalProject\BunkerKnowledge\PSoC_5_Files\Processor.cydsn/GUI_X.c ****   while ((tEnd - OS_TimeMS) > 0);
  79:..\..\..\..\College-MIT\S6Spring2020\6.115\FinalProject\BunkerKnowledge\PSoC_5_Files\Processor.cydsn/GUI_X.c **** }
  80:..\..\..\..\College-MIT\S6Spring2020\6.115\FinalProject\BunkerKnowledge\PSoC_5_Files\Processor.cydsn/GUI_X.c **** 
  81:..\..\..\..\College-MIT\S6Spring2020\6.115\FinalProject\BunkerKnowledge\PSoC_5_Files\Processor.cydsn/GUI_X.c **** /*********************************************************************
  82:..\..\..\..\College-MIT\S6Spring2020\6.115\FinalProject\BunkerKnowledge\PSoC_5_Files\Processor.cydsn/GUI_X.c **** *
  83:..\..\..\..\College-MIT\S6Spring2020\6.115\FinalProject\BunkerKnowledge\PSoC_5_Files\Processor.cydsn/GUI_X.c **** *       GUI_X_Init()
  84:..\..\..\..\College-MIT\S6Spring2020\6.115\FinalProject\BunkerKnowledge\PSoC_5_Files\Processor.cydsn/GUI_X.c **** *
  85:..\..\..\..\College-MIT\S6Spring2020\6.115\FinalProject\BunkerKnowledge\PSoC_5_Files\Processor.cydsn/GUI_X.c **** * Note:
  86:..\..\..\..\College-MIT\S6Spring2020\6.115\FinalProject\BunkerKnowledge\PSoC_5_Files\Processor.cydsn/GUI_X.c **** *     GUI_X_Init() is called from GUI_Init is a possibility to init
  87:..\..\..\..\College-MIT\S6Spring2020\6.115\FinalProject\BunkerKnowledge\PSoC_5_Files\Processor.cydsn/GUI_X.c **** *     some hardware which needs to be up and running before the GUI.
  88:..\..\..\..\College-MIT\S6Spring2020\6.115\FinalProject\BunkerKnowledge\PSoC_5_Files\Processor.cydsn/GUI_X.c **** */
ARM GAS  C:\Users\mark6\AppData\Local\Temp\cc7ovjaw.s 			page 3


  89:..\..\..\..\College-MIT\S6Spring2020\6.115\FinalProject\BunkerKnowledge\PSoC_5_Files\Processor.cydsn/GUI_X.c **** void GUI_X_Init(void) {
  90:..\..\..\..\College-MIT\S6Spring2020\6.115\FinalProject\BunkerKnowledge\PSoC_5_Files\Processor.cydsn/GUI_X.c ****   GUI_X_Systick_Init();
  91:..\..\..\..\College-MIT\S6Spring2020\6.115\FinalProject\BunkerKnowledge\PSoC_5_Files\Processor.cydsn/GUI_X.c **** }
  92:..\..\..\..\College-MIT\S6Spring2020\6.115\FinalProject\BunkerKnowledge\PSoC_5_Files\Processor.cydsn/GUI_X.c **** 
  93:..\..\..\..\College-MIT\S6Spring2020\6.115\FinalProject\BunkerKnowledge\PSoC_5_Files\Processor.cydsn/GUI_X.c **** 
  94:..\..\..\..\College-MIT\S6Spring2020\6.115\FinalProject\BunkerKnowledge\PSoC_5_Files\Processor.cydsn/GUI_X.c **** /*********************************************************************
  95:..\..\..\..\College-MIT\S6Spring2020\6.115\FinalProject\BunkerKnowledge\PSoC_5_Files\Processor.cydsn/GUI_X.c **** *
  96:..\..\..\..\College-MIT\S6Spring2020\6.115\FinalProject\BunkerKnowledge\PSoC_5_Files\Processor.cydsn/GUI_X.c **** *       GUI_X_ExecIdle
  97:..\..\..\..\College-MIT\S6Spring2020\6.115\FinalProject\BunkerKnowledge\PSoC_5_Files\Processor.cydsn/GUI_X.c **** *
  98:..\..\..\..\College-MIT\S6Spring2020\6.115\FinalProject\BunkerKnowledge\PSoC_5_Files\Processor.cydsn/GUI_X.c **** * Note:
  99:..\..\..\..\College-MIT\S6Spring2020\6.115\FinalProject\BunkerKnowledge\PSoC_5_Files\Processor.cydsn/GUI_X.c **** *  Called if WM is in idle state
 100:..\..\..\..\College-MIT\S6Spring2020\6.115\FinalProject\BunkerKnowledge\PSoC_5_Files\Processor.cydsn/GUI_X.c **** */
 101:..\..\..\..\College-MIT\S6Spring2020\6.115\FinalProject\BunkerKnowledge\PSoC_5_Files\Processor.cydsn/GUI_X.c **** void GUI_X_ExecIdle(void) {}
 102:..\..\..\..\College-MIT\S6Spring2020\6.115\FinalProject\BunkerKnowledge\PSoC_5_Files\Processor.cydsn/GUI_X.c **** 
 103:..\..\..\..\College-MIT\S6Spring2020\6.115\FinalProject\BunkerKnowledge\PSoC_5_Files\Processor.cydsn/GUI_X.c **** /*********************************************************************
 104:..\..\..\..\College-MIT\S6Spring2020\6.115\FinalProject\BunkerKnowledge\PSoC_5_Files\Processor.cydsn/GUI_X.c **** *
 105:..\..\..\..\College-MIT\S6Spring2020\6.115\FinalProject\BunkerKnowledge\PSoC_5_Files\Processor.cydsn/GUI_X.c **** *      Logging: OS dependent
 106:..\..\..\..\College-MIT\S6Spring2020\6.115\FinalProject\BunkerKnowledge\PSoC_5_Files\Processor.cydsn/GUI_X.c **** 
 107:..\..\..\..\College-MIT\S6Spring2020\6.115\FinalProject\BunkerKnowledge\PSoC_5_Files\Processor.cydsn/GUI_X.c **** Note:
 108:..\..\..\..\College-MIT\S6Spring2020\6.115\FinalProject\BunkerKnowledge\PSoC_5_Files\Processor.cydsn/GUI_X.c ****   Logging is used in higher debug levels only. The typical target
 109:..\..\..\..\College-MIT\S6Spring2020\6.115\FinalProject\BunkerKnowledge\PSoC_5_Files\Processor.cydsn/GUI_X.c ****   build does not use logging and does therefor not require any of
 110:..\..\..\..\College-MIT\S6Spring2020\6.115\FinalProject\BunkerKnowledge\PSoC_5_Files\Processor.cydsn/GUI_X.c ****   the logging routines below. For a release build without logging
 111:..\..\..\..\College-MIT\S6Spring2020\6.115\FinalProject\BunkerKnowledge\PSoC_5_Files\Processor.cydsn/GUI_X.c ****   the routines below may be eliminated to save some space.
 112:..\..\..\..\College-MIT\S6Spring2020\6.115\FinalProject\BunkerKnowledge\PSoC_5_Files\Processor.cydsn/GUI_X.c ****   (If the linker is not function aware and eliminates unreferenced
 113:..\..\..\..\College-MIT\S6Spring2020\6.115\FinalProject\BunkerKnowledge\PSoC_5_Files\Processor.cydsn/GUI_X.c ****   functions automatically)
 114:..\..\..\..\College-MIT\S6Spring2020\6.115\FinalProject\BunkerKnowledge\PSoC_5_Files\Processor.cydsn/GUI_X.c **** 
 115:..\..\..\..\College-MIT\S6Spring2020\6.115\FinalProject\BunkerKnowledge\PSoC_5_Files\Processor.cydsn/GUI_X.c **** */
 116:..\..\..\..\College-MIT\S6Spring2020\6.115\FinalProject\BunkerKnowledge\PSoC_5_Files\Processor.cydsn/GUI_X.c **** 
 117:..\..\..\..\College-MIT\S6Spring2020\6.115\FinalProject\BunkerKnowledge\PSoC_5_Files\Processor.cydsn/GUI_X.c **** void GUI_X_Log     (const char *s) { GUI_USE_PARA(s); }
 118:..\..\..\..\College-MIT\S6Spring2020\6.115\FinalProject\BunkerKnowledge\PSoC_5_Files\Processor.cydsn/GUI_X.c **** void GUI_X_Warn    (const char *s) { GUI_USE_PARA(s); }
 119:..\..\..\..\College-MIT\S6Spring2020\6.115\FinalProject\BunkerKnowledge\PSoC_5_Files\Processor.cydsn/GUI_X.c **** void GUI_X_ErrorOut(const char *s) { GUI_USE_PARA(s); }
 120:..\..\..\..\College-MIT\S6Spring2020\6.115\FinalProject\BunkerKnowledge\PSoC_5_Files\Processor.cydsn/GUI_X.c **** 
 121:..\..\..\..\College-MIT\S6Spring2020\6.115\FinalProject\BunkerKnowledge\PSoC_5_Files\Processor.cydsn/GUI_X.c **** /*********************************************************************
 122:..\..\..\..\College-MIT\S6Spring2020\6.115\FinalProject\BunkerKnowledge\PSoC_5_Files\Processor.cydsn/GUI_X.c **** *
 123:..\..\..\..\College-MIT\S6Spring2020\6.115\FinalProject\BunkerKnowledge\PSoC_5_Files\Processor.cydsn/GUI_X.c **** *         Setup Systick for timing
 124:..\..\..\..\College-MIT\S6Spring2020\6.115\FinalProject\BunkerKnowledge\PSoC_5_Files\Processor.cydsn/GUI_X.c **** *
 125:..\..\..\..\College-MIT\S6Spring2020\6.115\FinalProject\BunkerKnowledge\PSoC_5_Files\Processor.cydsn/GUI_X.c **** */
 126:..\..\..\..\College-MIT\S6Spring2020\6.115\FinalProject\BunkerKnowledge\PSoC_5_Files\Processor.cydsn/GUI_X.c **** /*********************************************************************
 127:..\..\..\..\College-MIT\S6Spring2020\6.115\FinalProject\BunkerKnowledge\PSoC_5_Files\Processor.cydsn/GUI_X.c **** *
 128:..\..\..\..\College-MIT\S6Spring2020\6.115\FinalProject\BunkerKnowledge\PSoC_5_Files\Processor.cydsn/GUI_X.c **** *       GUI_X_Systick_Intr
 129:..\..\..\..\College-MIT\S6Spring2020\6.115\FinalProject\BunkerKnowledge\PSoC_5_Files\Processor.cydsn/GUI_X.c **** *
 130:..\..\..\..\College-MIT\S6Spring2020\6.115\FinalProject\BunkerKnowledge\PSoC_5_Files\Processor.cydsn/GUI_X.c **** * Purpose:
 131:..\..\..\..\College-MIT\S6Spring2020\6.115\FinalProject\BunkerKnowledge\PSoC_5_Files\Processor.cydsn/GUI_X.c **** *   Interrupt Service Routine for Systick.
 132:..\..\..\..\College-MIT\S6Spring2020\6.115\FinalProject\BunkerKnowledge\PSoC_5_Files\Processor.cydsn/GUI_X.c **** */
 133:..\..\..\..\College-MIT\S6Spring2020\6.115\FinalProject\BunkerKnowledge\PSoC_5_Files\Processor.cydsn/GUI_X.c **** void GUI_X_Systick_Intr(void){    
  27              		.loc 1 133 0
  28              		.cfi_startproc
  29              		@ args = 0, pretend = 0, frame = 0
  30              		@ frame_needed = 0, uses_anonymous_args = 0
  31              		@ link register save eliminated.
 134:..\..\..\..\College-MIT\S6Spring2020\6.115\FinalProject\BunkerKnowledge\PSoC_5_Files\Processor.cydsn/GUI_X.c ****   OS_TimeMS++;
  32              		.loc 1 134 0
  33 0000 024A     		ldr	r2, .L2
  34 0002 1368     		ldr	r3, [r2]
  35 0004 0133     		adds	r3, r3, #1
  36 0006 1360     		str	r3, [r2]
  37 0008 7047     		bx	lr
ARM GAS  C:\Users\mark6\AppData\Local\Temp\cc7ovjaw.s 			page 4


  38              	.L3:
  39 000a 00BF     		.align	2
  40              	.L2:
  41 000c 00000000 		.word	OS_TimeMS
  42              		.cfi_endproc
  43              	.LFE70:
  44              		.size	GUI_X_Systick_Intr, .-GUI_X_Systick_Intr
  45              		.section	.text.GUI_X_GetTime,"ax",%progbits
  46              		.align	2
  47              		.global	GUI_X_GetTime
  48              		.thumb
  49              		.thumb_func
  50              		.type	GUI_X_GetTime, %function
  51              	GUI_X_GetTime:
  52              	.LFB63:
  72:..\..\..\..\College-MIT\S6Spring2020\6.115\FinalProject\BunkerKnowledge\PSoC_5_Files\Processor.cydsn/GUI_X.c ****   return OS_TimeMS; 
  53              		.loc 1 72 0
  54              		.cfi_startproc
  55              		@ args = 0, pretend = 0, frame = 0
  56              		@ frame_needed = 0, uses_anonymous_args = 0
  57              		@ link register save eliminated.
  73:..\..\..\..\College-MIT\S6Spring2020\6.115\FinalProject\BunkerKnowledge\PSoC_5_Files\Processor.cydsn/GUI_X.c **** }
  58              		.loc 1 73 0
  59 0000 014B     		ldr	r3, .L5
  60 0002 1868     		ldr	r0, [r3]
  74:..\..\..\..\College-MIT\S6Spring2020\6.115\FinalProject\BunkerKnowledge\PSoC_5_Files\Processor.cydsn/GUI_X.c **** 
  61              		.loc 1 74 0
  62 0004 7047     		bx	lr
  63              	.L6:
  64 0006 00BF     		.align	2
  65              	.L5:
  66 0008 00000000 		.word	OS_TimeMS
  67              		.cfi_endproc
  68              	.LFE63:
  69              		.size	GUI_X_GetTime, .-GUI_X_GetTime
  70              		.section	.text.GUI_X_Delay,"ax",%progbits
  71              		.align	2
  72              		.global	GUI_X_Delay
  73              		.thumb
  74              		.thumb_func
  75              		.type	GUI_X_Delay, %function
  76              	GUI_X_Delay:
  77              	.LFB64:
  76:..\..\..\..\College-MIT\S6Spring2020\6.115\FinalProject\BunkerKnowledge\PSoC_5_Files\Processor.cydsn/GUI_X.c ****   int tEnd = OS_TimeMS + ms;
  78              		.loc 1 76 0
  79              		.cfi_startproc
  80              		@ args = 0, pretend = 0, frame = 0
  81              		@ frame_needed = 0, uses_anonymous_args = 0
  82              		@ link register save eliminated.
  83              	.LVL0:
  77:..\..\..\..\College-MIT\S6Spring2020\6.115\FinalProject\BunkerKnowledge\PSoC_5_Files\Processor.cydsn/GUI_X.c ****   while ((tEnd - OS_TimeMS) > 0);
  84              		.loc 1 77 0
  85 0000 044B     		ldr	r3, .L9
  86 0002 1B68     		ldr	r3, [r3]
  87 0004 1844     		add	r0, r0, r3
  88              	.LVL1:
  89              	.L8:
ARM GAS  C:\Users\mark6\AppData\Local\Temp\cc7ovjaw.s 			page 5


  78:..\..\..\..\College-MIT\S6Spring2020\6.115\FinalProject\BunkerKnowledge\PSoC_5_Files\Processor.cydsn/GUI_X.c **** }
  90              		.loc 1 78 0 discriminator 1
  91 0006 034B     		ldr	r3, .L9
  92 0008 1B68     		ldr	r3, [r3]
  93 000a C31A     		subs	r3, r0, r3
  94 000c 002B     		cmp	r3, #0
  95 000e FADC     		bgt	.L8
  79:..\..\..\..\College-MIT\S6Spring2020\6.115\FinalProject\BunkerKnowledge\PSoC_5_Files\Processor.cydsn/GUI_X.c **** 
  96              		.loc 1 79 0
  97 0010 7047     		bx	lr
  98              	.L10:
  99 0012 00BF     		.align	2
 100              	.L9:
 101 0014 00000000 		.word	OS_TimeMS
 102              		.cfi_endproc
 103              	.LFE64:
 104              		.size	GUI_X_Delay, .-GUI_X_Delay
 105              		.section	.text.GUI_X_ExecIdle,"ax",%progbits
 106              		.align	2
 107              		.global	GUI_X_ExecIdle
 108              		.thumb
 109              		.thumb_func
 110              		.type	GUI_X_ExecIdle, %function
 111              	GUI_X_ExecIdle:
 112              	.LFB66:
 101:..\..\..\..\College-MIT\S6Spring2020\6.115\FinalProject\BunkerKnowledge\PSoC_5_Files\Processor.cydsn/GUI_X.c **** 
 113              		.loc 1 101 0
 114              		.cfi_startproc
 115              		@ args = 0, pretend = 0, frame = 0
 116              		@ frame_needed = 0, uses_anonymous_args = 0
 117              		@ link register save eliminated.
 118 0000 7047     		bx	lr
 119              		.cfi_endproc
 120              	.LFE66:
 121              		.size	GUI_X_ExecIdle, .-GUI_X_ExecIdle
 122 0002 00BF     		.section	.text.GUI_X_Log,"ax",%progbits
 123              		.align	2
 124              		.global	GUI_X_Log
 125              		.thumb
 126              		.thumb_func
 127              		.type	GUI_X_Log, %function
 128              	GUI_X_Log:
 129              	.LFB67:
 117:..\..\..\..\College-MIT\S6Spring2020\6.115\FinalProject\BunkerKnowledge\PSoC_5_Files\Processor.cydsn/GUI_X.c **** void GUI_X_Warn    (const char *s) { GUI_USE_PARA(s); }
 130              		.loc 1 117 0
 131              		.cfi_startproc
 132              		@ args = 0, pretend = 0, frame = 0
 133              		@ frame_needed = 0, uses_anonymous_args = 0
 134              		@ link register save eliminated.
 135              	.LVL2:
 136 0000 7047     		bx	lr
 137              		.cfi_endproc
 138              	.LFE67:
 139              		.size	GUI_X_Log, .-GUI_X_Log
 140 0002 00BF     		.section	.text.GUI_X_Warn,"ax",%progbits
 141              		.align	2
 142              		.global	GUI_X_Warn
ARM GAS  C:\Users\mark6\AppData\Local\Temp\cc7ovjaw.s 			page 6


 143              		.thumb
 144              		.thumb_func
 145              		.type	GUI_X_Warn, %function
 146              	GUI_X_Warn:
 147              	.LFB68:
 118:..\..\..\..\College-MIT\S6Spring2020\6.115\FinalProject\BunkerKnowledge\PSoC_5_Files\Processor.cydsn/GUI_X.c **** void GUI_X_ErrorOut(const char *s) { GUI_USE_PARA(s); }
 148              		.loc 1 118 0
 149              		.cfi_startproc
 150              		@ args = 0, pretend = 0, frame = 0
 151              		@ frame_needed = 0, uses_anonymous_args = 0
 152              		@ link register save eliminated.
 153              	.LVL3:
 154 0000 7047     		bx	lr
 155              		.cfi_endproc
 156              	.LFE68:
 157              		.size	GUI_X_Warn, .-GUI_X_Warn
 158 0002 00BF     		.section	.text.GUI_X_ErrorOut,"ax",%progbits
 159              		.align	2
 160              		.global	GUI_X_ErrorOut
 161              		.thumb
 162              		.thumb_func
 163              		.type	GUI_X_ErrorOut, %function
 164              	GUI_X_ErrorOut:
 165              	.LFB69:
 119:..\..\..\..\College-MIT\S6Spring2020\6.115\FinalProject\BunkerKnowledge\PSoC_5_Files\Processor.cydsn/GUI_X.c **** 
 166              		.loc 1 119 0
 167              		.cfi_startproc
 168              		@ args = 0, pretend = 0, frame = 0
 169              		@ frame_needed = 0, uses_anonymous_args = 0
 170              		@ link register save eliminated.
 171              	.LVL4:
 172 0000 7047     		bx	lr
 173              		.cfi_endproc
 174              	.LFE69:
 175              		.size	GUI_X_ErrorOut, .-GUI_X_ErrorOut
 176 0002 00BF     		.section	.text.GUI_X_Systick_Init,"ax",%progbits
 177              		.align	2
 178              		.global	GUI_X_Systick_Init
 179              		.thumb
 180              		.thumb_func
 181              		.type	GUI_X_Systick_Init, %function
 182              	GUI_X_Systick_Init:
 183              	.LFB71:
 135:..\..\..\..\College-MIT\S6Spring2020\6.115\FinalProject\BunkerKnowledge\PSoC_5_Files\Processor.cydsn/GUI_X.c **** }
 136:..\..\..\..\College-MIT\S6Spring2020\6.115\FinalProject\BunkerKnowledge\PSoC_5_Files\Processor.cydsn/GUI_X.c **** 
 137:..\..\..\..\College-MIT\S6Spring2020\6.115\FinalProject\BunkerKnowledge\PSoC_5_Files\Processor.cydsn/GUI_X.c **** /*********************************************************************
 138:..\..\..\..\College-MIT\S6Spring2020\6.115\FinalProject\BunkerKnowledge\PSoC_5_Files\Processor.cydsn/GUI_X.c **** *
 139:..\..\..\..\College-MIT\S6Spring2020\6.115\FinalProject\BunkerKnowledge\PSoC_5_Files\Processor.cydsn/GUI_X.c **** *       GUI_X_Systick_Init()
 140:..\..\..\..\College-MIT\S6Spring2020\6.115\FinalProject\BunkerKnowledge\PSoC_5_Files\Processor.cydsn/GUI_X.c **** *
 141:..\..\..\..\College-MIT\S6Spring2020\6.115\FinalProject\BunkerKnowledge\PSoC_5_Files\Processor.cydsn/GUI_X.c **** * Purpose:
 142:..\..\..\..\College-MIT\S6Spring2020\6.115\FinalProject\BunkerKnowledge\PSoC_5_Files\Processor.cydsn/GUI_X.c **** *   Sets up the Systick interrupt and enable it.
 143:..\..\..\..\College-MIT\S6Spring2020\6.115\FinalProject\BunkerKnowledge\PSoC_5_Files\Processor.cydsn/GUI_X.c **** */
 144:..\..\..\..\College-MIT\S6Spring2020\6.115\FinalProject\BunkerKnowledge\PSoC_5_Files\Processor.cydsn/GUI_X.c **** void GUI_X_Systick_Init(void){  
 184              		.loc 1 144 0
 185              		.cfi_startproc
 186              		@ args = 0, pretend = 0, frame = 0
 187              		@ frame_needed = 0, uses_anonymous_args = 0
ARM GAS  C:\Users\mark6\AppData\Local\Temp\cc7ovjaw.s 			page 7


 188              		.loc 1 144 0
 189 0000 10B5     		push	{r4, lr}
 190              		.cfi_def_cfa_offset 8
 191              		.cfi_offset 4, -8
 192              		.cfi_offset 14, -4
 145:..\..\..\..\College-MIT\S6Spring2020\6.115\FinalProject\BunkerKnowledge\PSoC_5_Files\Processor.cydsn/GUI_X.c ****   uint32_t i; 
 146:..\..\..\..\College-MIT\S6Spring2020\6.115\FinalProject\BunkerKnowledge\PSoC_5_Files\Processor.cydsn/GUI_X.c ****   CySysTickStart();
 193              		.loc 1 146 0
 194 0002 FFF7FEFF 		bl	CySysTickStart
 195              	.LVL5:
 147:..\..\..\..\College-MIT\S6Spring2020\6.115\FinalProject\BunkerKnowledge\PSoC_5_Files\Processor.cydsn/GUI_X.c ****   //
 148:..\..\..\..\College-MIT\S6Spring2020\6.115\FinalProject\BunkerKnowledge\PSoC_5_Files\Processor.cydsn/GUI_X.c ****   // Find unused callback slot.
 149:..\..\..\..\College-MIT\S6Spring2020\6.115\FinalProject\BunkerKnowledge\PSoC_5_Files\Processor.cydsn/GUI_X.c ****   //
 150:..\..\..\..\College-MIT\S6Spring2020\6.115\FinalProject\BunkerKnowledge\PSoC_5_Files\Processor.cydsn/GUI_X.c ****     for (i = 0u; i < CY_SYS_SYST_NUM_OF_CALLBACKS; i++)
 196              		.loc 1 150 0
 197 0006 0024     		movs	r4, #0
 198 0008 09E0     		b	.L16
 199              	.LVL6:
 200              	.L19:
 151:..\..\..\..\College-MIT\S6Spring2020\6.115\FinalProject\BunkerKnowledge\PSoC_5_Files\Processor.cydsn/GUI_X.c ****     {
 152:..\..\..\..\College-MIT\S6Spring2020\6.115\FinalProject\BunkerKnowledge\PSoC_5_Files\Processor.cydsn/GUI_X.c ****         if (CySysTickGetCallback(i) == NULL)
 201              		.loc 1 152 0
 202 000a 2046     		mov	r0, r4
 203 000c FFF7FEFF 		bl	CySysTickGetCallback
 204              	.LVL7:
 205 0010 20B9     		cbnz	r0, .L17
 153:..\..\..\..\College-MIT\S6Spring2020\6.115\FinalProject\BunkerKnowledge\PSoC_5_Files\Processor.cydsn/GUI_X.c ****         {
 154:..\..\..\..\College-MIT\S6Spring2020\6.115\FinalProject\BunkerKnowledge\PSoC_5_Files\Processor.cydsn/GUI_X.c ****             CySysTickSetCallback(i, GUI_X_Systick_Intr);
 206              		.loc 1 154 0
 207 0012 2046     		mov	r0, r4
 208 0014 0649     		ldr	r1, .L22
 209 0016 FFF7FEFF 		bl	CySysTickSetCallback
 210              	.LVL8:
 155:..\..\..\..\College-MIT\S6Spring2020\6.115\FinalProject\BunkerKnowledge\PSoC_5_Files\Processor.cydsn/GUI_X.c ****             break;
 211              		.loc 1 155 0
 212 001a 02E0     		b	.L18
 213              	.L17:
 150:..\..\..\..\College-MIT\S6Spring2020\6.115\FinalProject\BunkerKnowledge\PSoC_5_Files\Processor.cydsn/GUI_X.c ****     {
 214              		.loc 1 150 0 discriminator 2
 215 001c 0134     		adds	r4, r4, #1
 216              	.LVL9:
 217              	.L16:
 150:..\..\..\..\College-MIT\S6Spring2020\6.115\FinalProject\BunkerKnowledge\PSoC_5_Files\Processor.cydsn/GUI_X.c ****     {
 218              		.loc 1 150 0 is_stmt 0 discriminator 1
 219 001e 042C     		cmp	r4, #4
 220 0020 F3D9     		bls	.L19
 221              	.L18:
 156:..\..\..\..\College-MIT\S6Spring2020\6.115\FinalProject\BunkerKnowledge\PSoC_5_Files\Processor.cydsn/GUI_X.c ****         }
 157:..\..\..\..\College-MIT\S6Spring2020\6.115\FinalProject\BunkerKnowledge\PSoC_5_Files\Processor.cydsn/GUI_X.c ****     }
 158:..\..\..\..\College-MIT\S6Spring2020\6.115\FinalProject\BunkerKnowledge\PSoC_5_Files\Processor.cydsn/GUI_X.c ****     
 159:..\..\..\..\College-MIT\S6Spring2020\6.115\FinalProject\BunkerKnowledge\PSoC_5_Files\Processor.cydsn/GUI_X.c ****     CYASSERT(i < CY_SYS_SYST_NUM_OF_CALLBACKS);
 222              		.loc 1 159 0 is_stmt 1
 223 0022 042C     		cmp	r4, #4
 224 0024 02D9     		bls	.L15
 225              		.loc 1 159 0 is_stmt 0 discriminator 1
 226 0026 0020     		movs	r0, #0
 227 0028 FFF7FEFF 		bl	CyHalt
ARM GAS  C:\Users\mark6\AppData\Local\Temp\cc7ovjaw.s 			page 8


 228              	.LVL10:
 229              	.L15:
 230 002c 10BD     		pop	{r4, pc}
 231              	.LVL11:
 232              	.L23:
 233 002e 00BF     		.align	2
 234              	.L22:
 235 0030 00000000 		.word	GUI_X_Systick_Intr
 236              		.cfi_endproc
 237              	.LFE71:
 238              		.size	GUI_X_Systick_Init, .-GUI_X_Systick_Init
 239              		.section	.text.GUI_X_Init,"ax",%progbits
 240              		.align	2
 241              		.global	GUI_X_Init
 242              		.thumb
 243              		.thumb_func
 244              		.type	GUI_X_Init, %function
 245              	GUI_X_Init:
 246              	.LFB65:
  89:..\..\..\..\College-MIT\S6Spring2020\6.115\FinalProject\BunkerKnowledge\PSoC_5_Files\Processor.cydsn/GUI_X.c ****   GUI_X_Systick_Init();
 247              		.loc 1 89 0 is_stmt 1
 248              		.cfi_startproc
 249              		@ args = 0, pretend = 0, frame = 0
 250              		@ frame_needed = 0, uses_anonymous_args = 0
 251 0000 08B5     		push	{r3, lr}
 252              		.cfi_def_cfa_offset 8
 253              		.cfi_offset 3, -8
 254              		.cfi_offset 14, -4
  90:..\..\..\..\College-MIT\S6Spring2020\6.115\FinalProject\BunkerKnowledge\PSoC_5_Files\Processor.cydsn/GUI_X.c **** }
 255              		.loc 1 90 0
 256 0002 FFF7FEFF 		bl	GUI_X_Systick_Init
 257              	.LVL12:
 258 0006 08BD     		pop	{r3, pc}
 259              		.cfi_endproc
 260              	.LFE65:
 261              		.size	GUI_X_Init, .-GUI_X_Init
 262              		.comm	OS_TimeMS,4,4
 263              		.text
 264              	.Letext0:
 265              		.file 2 "c:\\program files (x86)\\cypress\\psoc creator\\3.3\\psoc creator\\import\\gnu\\arm\\4.9.
 266              		.file 3 "c:\\program files (x86)\\cypress\\psoc creator\\3.3\\psoc creator\\import\\gnu\\arm\\4.9.
 267              		.file 4 "Generated_Source\\PSoC5/cytypes.h"
 268              		.file 5 "Generated_Source\\PSoC5/CyLib.h"
 269              		.file 6 "Generated_Source\\PSoC5/core_cm3.h"