ARM GAS  C:\Users\mark6\AppData\Local\Temp\ccm1Ykfm.s 			page 1


   1              		.syntax unified
   2              		.cpu cortex-m3
   3              		.fpu softvfp
   4              		.eabi_attribute 20, 1
   5              		.eabi_attribute 21, 1
   6              		.eabi_attribute 23, 3
   7              		.eabi_attribute 24, 1
   8              		.eabi_attribute 25, 1
   9              		.eabi_attribute 26, 1
  10              		.eabi_attribute 30, 1
  11              		.eabi_attribute 34, 1
  12              		.eabi_attribute 18, 4
  13              		.thumb
  14              		.file	"main.c"
  15              		.text
  16              	.Ltext0:
  17              		.cfi_sections	.debug_frame
  18              		.section	.text.push_to_list,"ax",%progbits
  19              		.align	2
  20              		.global	push_to_list
  21              		.thumb
  22              		.thumb_func
  23              		.type	push_to_list, %function
  24              	push_to_list:
  25              	.LFB68:
  26              		.file 1 ".\\main.c"
   1:.\main.c      **** /* ========================================
   2:.\main.c      ****  *
   3:.\main.c      ****  * Copyright YOUR COMPANY, THE YEAR
   4:.\main.c      ****  * All Rights Reserved
   5:.\main.c      ****  * UNPUBLISHED, LICENSED SOFTWARE.
   6:.\main.c      ****  *
   7:.\main.c      ****  * CONFIDENTIAL AND PROPRIETARY INFORMATION
   8:.\main.c      ****  * WHICH IS THE PROPERTY OF your company.
   9:.\main.c      ****  *
  10:.\main.c      ****  * ========================================
  11:.\main.c      **** */
  12:.\main.c      **** #include <project.h>
  13:.\main.c      **** #include <stdio.h>
  14:.\main.c      **** #include "GUI.h"
  15:.\main.c      **** #include "tft.h"
  16:.\main.c      **** #include "drinks.h"
  17:.\main.c      **** 
  18:.\main.c      **** // Function Defintions
  19:.\main.c      **** void create_config_rects(); // Creates and stores the rectangles for stat display on GUI
  20:.\main.c      **** void clear_config(); // Clears the configuration menu
  21:.\main.c      **** void display_config(); // Displays sent stats on the GUI
  22:.\main.c      **** void draw_active_config(int new_motor, int old_motor, int color);
  23:.\main.c      **** void draw_new_mixie(int motor, int drink_number, int color);
  24:.\main.c      **** void redraw_config_text(char* text, int motor, int color);
  25:.\main.c      **** void MainTask(void);
  26:.\main.c      **** int clean_number(int num, int count);
  27:.\main.c      **** void relay_flip(int button_num);
  28:.\main.c      **** void change_config_color(int motor, int color);
  29:.\main.c      **** void display_dispenser();
  30:.\main.c      **** void push_to_list(int* list, int value, int size);
  31:.\main.c      **** int compare_lists(int* list1, int* list2, int size);
ARM GAS  C:\Users\mark6\AppData\Local\Temp\ccm1Ykfm.s 			page 2


  32:.\main.c      **** void clean_tubing();
  33:.\main.c      **** void create_dispenser_rects();
  34:.\main.c      **** void update_dispenser_text();
  35:.\main.c      **** void prime_pump(int motor);
  36:.\main.c      **** void relay_on(int motor);
  37:.\main.c      **** void relay_off(int motor);
  38:.\main.c      **** void generate_menu();
  39:.\main.c      **** int check_availability(Drink* drink);
  40:.\main.c      **** void dispense_drink(int drink_number);
  41:.\main.c      **** void get_required_motors(Drink* drink);
  42:.\main.c      **** int ms_to_dispense(int amount);
  43:.\main.c      **** 
  44:.\main.c      **** // Constants
  45:.\main.c      **** #define MARGIN 10 // 10 from the edge to look nice
  46:.\main.c      **** #define Y_INC 90 // go down by 90 pixels when y is incremented
  47:.\main.c      **** #define SCREEN_X 320
  48:.\main.c      **** #define SCREEN_Y 240
  49:.\main.c      **** #define PRESS_SEQUENCE 8
  50:.\main.c      **** #define CONFIG_RECTS 8 //
  51:.\main.c      **** #define MOTOR_COUNT 6
  52:.\main.c      **** #define PUMP_RATE 400.0 // mL / min
  53:.\main.c      **** #define PRIME_TIME 6 // TODO calculate this for real
  54:.\main.c      **** #define SHOWN_DRINKS 3
  55:.\main.c      **** 
  56:.\main.c      **** #define BABYBLUE 0x03fcf8
  57:.\main.c      **** #define WHITE    0xFFFFFF
  58:.\main.c      **** #define RED      0xFF0000
  59:.\main.c      **** #define GREEN    0x00FF00
  60:.\main.c      **** #define BLUE     0x0000FF
  61:.\main.c      **** #define CYAN     0x00FFFF
  62:.\main.c      **** #define ORANGE   0xFF9933
  63:.\main.c      **** #define MAGENTA  0xFF00FF
  64:.\main.c      **** #define YELLOW   0xFFFF00
  65:.\main.c      **** #define BLACK    0x000000
  66:.\main.c      **** #define PINK     0xF670E3
  67:.\main.c      **** #define LIGHTGRAY 0xD3D3D3
  68:.\main.c      **** // Enums and Structs
  69:.\main.c      **** enum Buttons { UP, DOWN, SUBMIT };
  70:.\main.c      **** typedef enum Modes {CONFIG, DISPLAY, SELECTMIXIE, CLEANING} Modes;
  71:.\main.c      **** 
  72:.\main.c      **** 
  73:.\main.c      **** // Global Variables
  74:.\main.c      **** GUI_RECT rects[CONFIG_RECTS]; // predefined rectangles to store in
  75:.\main.c      **** GUI_RECT dispenser_rects[SHOWN_DRINKS + 1];
  76:.\main.c      **** //char config_data[CONFIG_RECTS][WORD_SIZE] = {"Configuration Menu", "Pink Whitney", "Tequila", "Do
  77:.\main.c      **** static const uint8 CYCODE eeprom_config_data[MOTOR_COUNT] = {255, 255, 255, 255, 255, 255};
  78:.\main.c      **** uint8 config_data[MOTOR_COUNT] = {0, 0, 0, 0, 0, 0}; // Vodka, Tonic, Beer, Gin, Seltzer, Pink Whit
  79:.\main.c      **** 
  80:.\main.c      **** extern const int NUM_DRINKS;
  81:.\main.c      **** extern char Liquids[NUM_MIXIES][WORD_SIZE];
  82:.\main.c      **** 
  83:.\main.c      **** Drink** drinks;
  84:.\main.c      **** Drink** menu;
  85:.\main.c      **** int previous_presses[PRESS_SEQUENCE] = {0, 0, 0, 0, 0, 0, 0, 0};
  86:.\main.c      **** int special_sequence[PRESS_SEQUENCE] = {UP, DOWN, UP, DOWN, UP, UP, DOWN, DOWN};
  87:.\main.c      **** int required_motors[MOTOR_COUNT] = {0, 0, 0, 0, 0, 0};
  88:.\main.c      **** int dispense_amount[MOTOR_COUNT] = {0, 0, 0, 0, 0, 0};
ARM GAS  C:\Users\mark6\AppData\Local\Temp\ccm1Ykfm.s 			page 3


  89:.\main.c      **** int button_number = 0;
  90:.\main.c      **** int mixie_scroll = 0;
  91:.\main.c      **** int motor_scroll = 0;
  92:.\main.c      **** int drink_scroll = 0;
  93:.\main.c      **** int timer_count = 0;
  94:.\main.c      **** int menu_length = 1;
  95:.\main.c      **** uint8* menu_indices;
  96:.\main.c      **** Modes current_display;
  97:.\main.c      **** 
  98:.\main.c      **** 
  99:.\main.c      **** const GUI_POINT UpArrowPoints[] = {
 100:.\main.c      ****  { 30, 20},
 101:.\main.c      ****  { 10, 20},
 102:.\main.c      ****  { 20, 0}
 103:.\main.c      **** };
 104:.\main.c      **** const GUI_POINT DownArrowPoints[] = {
 105:.\main.c      ****  { 30, 0},
 106:.\main.c      ****  { 20, 20},
 107:.\main.c      ****  { 10, 0}
 108:.\main.c      **** };
 109:.\main.c      **** CY_ISR ( Down_Button_Handler ) {
 110:.\main.c      **** 
 111:.\main.c      ****     if (current_display == CONFIG) {
 112:.\main.c      ****         int old_motor = motor_scroll;
 113:.\main.c      ****         motor_scroll--;
 114:.\main.c      ****         motor_scroll = clean_number(motor_scroll, MOTOR_COUNT+1);
 115:.\main.c      ****         if (motor_scroll == MOTOR_COUNT) {
 116:.\main.c      ****             redraw_config_text("Clean Tubing", 7, BABYBLUE);
 117:.\main.c      ****             draw_active_config(old_motor, old_motor, WHITE); // clear the old motor still
 118:.\main.c      ****         } else if (old_motor == MOTOR_COUNT) {
 119:.\main.c      ****             redraw_config_text("Clean Tubing", 7, WHITE);
 120:.\main.c      ****             draw_active_config(motor_scroll, motor_scroll, PINK);
 121:.\main.c      ****         } else {
 122:.\main.c      ****             draw_active_config(motor_scroll, old_motor, PINK);
 123:.\main.c      ****         }
 124:.\main.c      ****     } else if (current_display == SELECTMIXIE) {
 125:.\main.c      ****         redraw_config_text(Liquids[mixie_scroll], motor_scroll, BLACK);
 126:.\main.c      ****         mixie_scroll--;
 127:.\main.c      ****         mixie_scroll = clean_number(mixie_scroll, NUM_MIXIES);
 128:.\main.c      ****         redraw_config_text(Liquids[mixie_scroll], motor_scroll, ORANGE);
 129:.\main.c      ****     } 
 130:.\main.c      ****     else if (current_display == DISPLAY) {
 131:.\main.c      ****         drink_scroll--;
 132:.\main.c      ****         drink_scroll = clean_number(drink_scroll, menu_length);
 133:.\main.c      ****         update_dispenser_text();
 134:.\main.c      ****     }
 135:.\main.c      ****     push_to_list(previous_presses, DOWN, PRESS_SEQUENCE);
 136:.\main.c      **** }
 137:.\main.c      **** 
 138:.\main.c      **** CY_ISR ( Up_Button_Handler ) {
 139:.\main.c      ****     if (current_display == CONFIG) {
 140:.\main.c      ****         int old_motor = motor_scroll;
 141:.\main.c      ****         motor_scroll++;
 142:.\main.c      ****         motor_scroll = clean_number(motor_scroll, MOTOR_COUNT+1);
 143:.\main.c      ****         if (motor_scroll == MOTOR_COUNT) {
 144:.\main.c      ****             redraw_config_text("Clean Tubing", 7, BABYBLUE);
 145:.\main.c      ****             draw_active_config(old_motor, old_motor, WHITE); // clear the old motor still
ARM GAS  C:\Users\mark6\AppData\Local\Temp\ccm1Ykfm.s 			page 4


 146:.\main.c      ****         } else if (old_motor == MOTOR_COUNT) {
 147:.\main.c      ****             redraw_config_text("Clean Tubing", 7, WHITE);
 148:.\main.c      ****             draw_active_config(motor_scroll, motor_scroll, PINK);
 149:.\main.c      ****         } else {
 150:.\main.c      ****             draw_active_config(motor_scroll, old_motor, PINK);  
 151:.\main.c      ****         }
 152:.\main.c      ****     } else if (current_display == SELECTMIXIE) {
 153:.\main.c      ****         redraw_config_text(Liquids[mixie_scroll], motor_scroll, BLACK);
 154:.\main.c      ****         mixie_scroll++;
 155:.\main.c      ****         mixie_scroll = clean_number(mixie_scroll, NUM_MIXIES);
 156:.\main.c      ****         redraw_config_text(Liquids[mixie_scroll], motor_scroll, ORANGE);
 157:.\main.c      ****     } 
 158:.\main.c      ****     else if (current_display == DISPLAY) {
 159:.\main.c      ****         drink_scroll++;
 160:.\main.c      ****         drink_scroll = clean_number(drink_scroll, menu_length);
 161:.\main.c      ****         update_dispenser_text();
 162:.\main.c      ****     }
 163:.\main.c      ****     push_to_list(previous_presses, UP, PRESS_SEQUENCE);
 164:.\main.c      **** }
 165:.\main.c      **** 
 166:.\main.c      **** CY_ISR ( Submit_Button_Handler ) {
 167:.\main.c      ****     if (compare_lists(previous_presses, special_sequence, PRESS_SEQUENCE)) {
 168:.\main.c      ****         // Sequence entered, switch configuration
 169:.\main.c      ****         if (current_display == CONFIG) {
 170:.\main.c      ****             display_dispenser(); 
 171:.\main.c      ****             push_to_list(previous_presses, SUBMIT, PRESS_SEQUENCE);    
 172:.\main.c      ****             return;
 173:.\main.c      ****         } else if (current_display == DISPLAY) {
 174:.\main.c      ****             display_config(); 
 175:.\main.c      ****             push_to_list(previous_presses, SUBMIT, PRESS_SEQUENCE);
 176:.\main.c      ****             return;
 177:.\main.c      ****         }
 178:.\main.c      ****     } 
 179:.\main.c      ****     if (current_display == CONFIG) {
 180:.\main.c      ****         if (motor_scroll == MOTOR_COUNT) {
 181:.\main.c      ****             redraw_config_text("Clean Tubing", 7, GREEN);
 182:.\main.c      ****             clean_tubing();
 183:.\main.c      ****         } else {
 184:.\main.c      ****             change_config_color(motor_scroll, ORANGE);
 185:.\main.c      ****             mixie_scroll = config_data[motor_scroll];
 186:.\main.c      ****             current_display = SELECTMIXIE;
 187:.\main.c      ****         }
 188:.\main.c      ****     } else if (current_display == SELECTMIXIE) {     
 189:.\main.c      ****         current_display = CONFIG;
 190:.\main.c      ****         config_data[motor_scroll] = mixie_scroll;
 191:.\main.c      ****         change_config_color(motor_scroll, GREEN);
 192:.\main.c      ****         Em_EEPROM_Write(config_data, eeprom_config_data, sizeof(config_data));
 193:.\main.c      ****         prime_pump(motor_scroll);
 194:.\main.c      ****         display_config();
 195:.\main.c      ****     } 
 196:.\main.c      ****     else if (current_display == DISPLAY) {
 197:.\main.c      ****         dispense_drink(menu_indices[drink_scroll]);
 198:.\main.c      ****     }
 199:.\main.c      ****     push_to_list(previous_presses, SUBMIT, PRESS_SEQUENCE);
 200:.\main.c      **** }
 201:.\main.c      **** 
 202:.\main.c      **** 
ARM GAS  C:\Users\mark6\AppData\Local\Temp\ccm1Ykfm.s 			page 5


 203:.\main.c      **** int main()
 204:.\main.c      **** {
 205:.\main.c      ****     CyGlobalIntEnable; /* Enable global interrupts. */
 206:.\main.c      ****     SPIM_1_Start();
 207:.\main.c      ****     Em_EEPROM_Start();
 208:.\main.c      ****     uint8 eeprom_i = 0;
 209:.\main.c      ****     for (eeprom_i=0; eeprom_i<MOTOR_COUNT; eeprom_i++) {
 210:.\main.c      ****         if (eeprom_config_data[eeprom_i] != 255) {
 211:.\main.c      ****             config_data[eeprom_i] = eeprom_config_data[eeprom_i];
 212:.\main.c      ****         }
 213:.\main.c      ****     }
 214:.\main.c      ****     /* Place your initialization/startup code here (e.g. MyInst_Start()) */
 215:.\main.c      ****     menu_indices = malloc(NUM_DRINKS * sizeof(uint8));
 216:.\main.c      ****     drinks = generate_drinks();
 217:.\main.c      ****     Submit_Int_StartEx( Submit_Button_Handler );
 218:.\main.c      ****     Up_Int_StartEx( Up_Button_Handler );
 219:.\main.c      ****     Down_Int_StartEx( Down_Button_Handler );
 220:.\main.c      ****     
 221:.\main.c      ****     MainTask();
 222:.\main.c      ****     for(;;)
 223:.\main.c      ****     {
 224:.\main.c      ****         /* Place your application code here. */
 225:.\main.c      ****     }
 226:.\main.c      **** }
 227:.\main.c      **** void MainTask()
 228:.\main.c      **** {
 229:.\main.c      ****     GUI_Init();                             // initilize graphics library
 230:.\main.c      ****     //GUI_SetOrientation(GUI_SWAP_XY | GUI_MIRROR_X);
 231:.\main.c      ****     GUI_SetTextAlign(GUI_TA_HCENTER | GUI_TA_VCENTER);
 232:.\main.c      ****     create_config_rects();
 233:.\main.c      ****     create_dispenser_rects();
 234:.\main.c      ****     GUI_Clear();
 235:.\main.c      ****     GUI_SetFont(&GUI_Font8x16);
 236:.\main.c      ****     display_dispenser();
 237:.\main.c      **** 
 238:.\main.c      **** }
 239:.\main.c      **** 
 240:.\main.c      **** // Sequence Functions
 241:.\main.c      **** void push_to_list(int* list, int value, int size) {
  27              		.loc 1 241 0
  28              		.cfi_startproc
  29              		@ args = 0, pretend = 0, frame = 0
  30              		@ frame_needed = 0, uses_anonymous_args = 0
  31              		@ link register save eliminated.
  32              	.LVL0:
  33 0000 30B4     		push	{r4, r5}
  34              		.cfi_def_cfa_offset 8
  35              		.cfi_offset 4, -8
  36              		.cfi_offset 5, -4
  37              	.LVL1:
 242:.\main.c      ****     int i;
 243:.\main.c      ****     for (i = 0; i < size-1; i++) {
  38              		.loc 1 243 0
  39 0002 0023     		movs	r3, #0
  40 0004 05E0     		b	.L2
  41              	.LVL2:
  42              	.L3:
ARM GAS  C:\Users\mark6\AppData\Local\Temp\ccm1Ykfm.s 			page 6


 244:.\main.c      ****         list[i] = list[i+1];   
  43              		.loc 1 244 0 discriminator 3
  44 0006 5C1C     		adds	r4, r3, #1
  45 0008 50F82450 		ldr	r5, [r0, r4, lsl #2]
  46 000c 40F82350 		str	r5, [r0, r3, lsl #2]
 243:.\main.c      ****         list[i] = list[i+1];   
  47              		.loc 1 243 0 discriminator 3
  48 0010 2346     		mov	r3, r4
  49              	.LVL3:
  50              	.L2:
 243:.\main.c      ****         list[i] = list[i+1];   
  51              		.loc 1 243 0 is_stmt 0 discriminator 1
  52 0012 541E     		subs	r4, r2, #1
  53 0014 9C42     		cmp	r4, r3
  54 0016 F6DC     		bgt	.L3
 245:.\main.c      ****     }
 246:.\main.c      ****     list[size-1] = value;
  55              		.loc 1 246 0 is_stmt 1
  56 0018 02F18042 		add	r2, r2, #1073741824
  57              	.LVL4:
  58 001c 013A     		subs	r2, r2, #1
  59              	.LVL5:
  60 001e 40F82210 		str	r1, [r0, r2, lsl #2]
 247:.\main.c      **** }
  61              		.loc 1 247 0
  62 0022 30BC     		pop	{r4, r5}
  63              		.cfi_restore 5
  64              		.cfi_restore 4
  65              		.cfi_def_cfa_offset 0
  66 0024 7047     		bx	lr
  67              		.cfi_endproc
  68              	.LFE68:
  69              		.size	push_to_list, .-push_to_list
  70 0026 00BF     		.section	.text.compare_lists,"ax",%progbits
  71              		.align	2
  72              		.global	compare_lists
  73              		.thumb
  74              		.thumb_func
  75              		.type	compare_lists, %function
  76              	compare_lists:
  77              	.LFB69:
 248:.\main.c      **** 
 249:.\main.c      **** int compare_lists(int* list1, int* list2, int size) {
  78              		.loc 1 249 0
  79              		.cfi_startproc
  80              		@ args = 0, pretend = 0, frame = 0
  81              		@ frame_needed = 0, uses_anonymous_args = 0
  82              		@ link register save eliminated.
  83              	.LVL6:
  84 0000 30B4     		push	{r4, r5}
  85              		.cfi_def_cfa_offset 8
  86              		.cfi_offset 4, -8
  87              		.cfi_offset 5, -4
  88              	.LVL7:
 250:.\main.c      ****     int i;
 251:.\main.c      ****     for (i = 0; i < size; i++) {
  89              		.loc 1 251 0
ARM GAS  C:\Users\mark6\AppData\Local\Temp\ccm1Ykfm.s 			page 7


  90 0002 0023     		movs	r3, #0
  91 0004 06E0     		b	.L6
  92              	.LVL8:
  93              	.L8:
 252:.\main.c      ****         if (list1[i] != list2[i]) {
  94              		.loc 1 252 0
  95 0006 50F82350 		ldr	r5, [r0, r3, lsl #2]
  96 000a 51F82340 		ldr	r4, [r1, r3, lsl #2]
  97 000e A542     		cmp	r5, r4
  98 0010 04D1     		bne	.L9
 251:.\main.c      ****         if (list1[i] != list2[i]) {
  99              		.loc 1 251 0 discriminator 2
 100 0012 0133     		adds	r3, r3, #1
 101              	.LVL9:
 102              	.L6:
 251:.\main.c      ****         if (list1[i] != list2[i]) {
 103              		.loc 1 251 0 is_stmt 0 discriminator 1
 104 0014 9342     		cmp	r3, r2
 105 0016 F6DB     		blt	.L8
 253:.\main.c      ****             return 0;    
 254:.\main.c      ****         }
 255:.\main.c      ****     }
 256:.\main.c      ****     return 1;
 106              		.loc 1 256 0 is_stmt 1
 107 0018 0120     		movs	r0, #1
 108              	.LVL10:
 109 001a 00E0     		b	.L7
 110              	.LVL11:
 111              	.L9:
 253:.\main.c      ****             return 0;    
 112              		.loc 1 253 0
 113 001c 0020     		movs	r0, #0
 114              	.LVL12:
 115              	.L7:
 257:.\main.c      **** }
 116              		.loc 1 257 0
 117 001e 30BC     		pop	{r4, r5}
 118              		.cfi_restore 5
 119              		.cfi_restore 4
 120              		.cfi_def_cfa_offset 0
 121 0020 7047     		bx	lr
 122              		.cfi_endproc
 123              	.LFE69:
 124              		.size	compare_lists, .-compare_lists
 125 0022 00BF     		.section	.text.change_config_color,"ax",%progbits
 126              		.align	2
 127              		.global	change_config_color
 128              		.thumb
 129              		.thumb_func
 130              		.type	change_config_color, %function
 131              	change_config_color:
 132              	.LFB71:
 258:.\main.c      **** 
 259:.\main.c      **** // Drawing Functions
 260:.\main.c      **** 
 261:.\main.c      **** void draw_active_config(int new_motor, int old_motor, int color) {
 262:.\main.c      ****     // Makes the old motor white again
ARM GAS  C:\Users\mark6\AppData\Local\Temp\ccm1Ykfm.s 			page 8


 263:.\main.c      ****     change_config_color(old_motor, WHITE);
 264:.\main.c      ****     // Makes the active motor pink
 265:.\main.c      ****     change_config_color(new_motor, color);
 266:.\main.c      **** }
 267:.\main.c      **** 
 268:.\main.c      **** void change_config_color(int motor, int color) {
 133              		.loc 1 268 0
 134              		.cfi_startproc
 135              		@ args = 0, pretend = 0, frame = 8
 136              		@ frame_needed = 0, uses_anonymous_args = 0
 137              	.LVL13:
 138 0000 10B5     		push	{r4, lr}
 139              		.cfi_def_cfa_offset 8
 140              		.cfi_offset 4, -8
 141              		.cfi_offset 14, -4
 142 0002 82B0     		sub	sp, sp, #8
 143              		.cfi_def_cfa_offset 16
 144 0004 0446     		mov	r4, r0
 269:.\main.c      ****     GUI_SetColor(color);
 145              		.loc 1 269 0
 146 0006 0846     		mov	r0, r1
 147              	.LVL14:
 148 0008 FFF7FEFF 		bl	GUI_SetColor
 149              	.LVL15:
 270:.\main.c      ****     GUI_RECT rect = rects[motor];
 150              		.loc 1 270 0
 151 000c 6B46     		mov	r3, sp
 152 000e 1B4A     		ldr	r2, .L13
 153 0010 02EBC402 		add	r2, r2, r4, lsl #3
 154 0014 1068     		ldr	r0, [r2]	@ unaligned
 155 0016 5168     		ldr	r1, [r2, #4]	@ unaligned
 156 0018 03C3     		stmia	r3!, {r0, r1}
 271:.\main.c      ****     // Top Line
 272:.\main.c      ****     GUI_DrawLine(rect.x0, rect.y0, rect.x1, rect.y0);
 157              		.loc 1 272 0
 158 001a BDF90230 		ldrsh	r3, [sp, #2]
 159 001e BDF90000 		ldrsh	r0, [sp]
 160 0022 1946     		mov	r1, r3
 161 0024 BDF90420 		ldrsh	r2, [sp, #4]
 162 0028 FFF7FEFF 		bl	GUI_DrawLine
 163              	.LVL16:
 273:.\main.c      ****     // Left Line
 274:.\main.c      ****     GUI_DrawLine(rect.x0, rect.y0, rect.x0, rect.y1);
 164              		.loc 1 274 0
 165 002c BDF90020 		ldrsh	r2, [sp]
 166 0030 1046     		mov	r0, r2
 167 0032 BDF90210 		ldrsh	r1, [sp, #2]
 168 0036 BDF90630 		ldrsh	r3, [sp, #6]
 169 003a FFF7FEFF 		bl	GUI_DrawLine
 170              	.LVL17:
 275:.\main.c      ****     // Right Line
 276:.\main.c      ****     GUI_DrawLine(rect.x1, rect.y0, rect.x1, rect.y1);
 171              		.loc 1 276 0
 172 003e BDF90420 		ldrsh	r2, [sp, #4]
 173 0042 1046     		mov	r0, r2
 174 0044 BDF90210 		ldrsh	r1, [sp, #2]
 175 0048 BDF90630 		ldrsh	r3, [sp, #6]
ARM GAS  C:\Users\mark6\AppData\Local\Temp\ccm1Ykfm.s 			page 9


 176 004c FFF7FEFF 		bl	GUI_DrawLine
 177              	.LVL18:
 277:.\main.c      ****     // Bottom Line
 278:.\main.c      ****     GUI_DrawLine(rect.x0, rect.y1, rect.x1, rect.y1);
 178              		.loc 1 278 0
 179 0050 BDF90630 		ldrsh	r3, [sp, #6]
 180 0054 BDF90000 		ldrsh	r0, [sp]
 181 0058 1946     		mov	r1, r3
 182 005a BDF90420 		ldrsh	r2, [sp, #4]
 183 005e FFF7FEFF 		bl	GUI_DrawLine
 184              	.LVL19:
 279:.\main.c      ****     GUI_DispStringInRectWrap(Liquids[config_data[motor]], &rect, GUI_TA_HCENTER | GUI_TA_VCENTER, G
 185              		.loc 1 279 0
 186 0062 074B     		ldr	r3, .L13+4
 187 0064 1A5D     		ldrb	r2, [r3, r4]	@ zero_extendqisi2
 188 0066 074B     		ldr	r3, .L13+8
 189 0068 3220     		movs	r0, #50
 190 006a 00FB0230 		mla	r0, r0, r2, r3
 191 006e 6946     		mov	r1, sp
 192 0070 0E22     		movs	r2, #14
 193 0072 0123     		movs	r3, #1
 194 0074 FFF7FEFF 		bl	GUI_DispStringInRectWrap
 195              	.LVL20:
 280:.\main.c      **** }
 196              		.loc 1 280 0
 197 0078 02B0     		add	sp, sp, #8
 198              		.cfi_def_cfa_offset 8
 199              		@ sp needed
 200 007a 10BD     		pop	{r4, pc}
 201              	.LVL21:
 202              	.L14:
 203              		.align	2
 204              	.L13:
 205 007c 00000000 		.word	rects
 206 0080 00000000 		.word	.LANCHOR0
 207 0084 00000000 		.word	Liquids
 208              		.cfi_endproc
 209              	.LFE71:
 210              		.size	change_config_color, .-change_config_color
 211              		.section	.text.draw_active_config,"ax",%progbits
 212              		.align	2
 213              		.global	draw_active_config
 214              		.thumb
 215              		.thumb_func
 216              		.type	draw_active_config, %function
 217              	draw_active_config:
 218              	.LFB70:
 261:.\main.c      ****     // Makes the old motor white again
 219              		.loc 1 261 0
 220              		.cfi_startproc
 221              		@ args = 0, pretend = 0, frame = 0
 222              		@ frame_needed = 0, uses_anonymous_args = 0
 223              	.LVL22:
 224 0000 38B5     		push	{r3, r4, r5, lr}
 225              		.cfi_def_cfa_offset 16
 226              		.cfi_offset 3, -16
 227              		.cfi_offset 4, -12
ARM GAS  C:\Users\mark6\AppData\Local\Temp\ccm1Ykfm.s 			page 10


 228              		.cfi_offset 5, -8
 229              		.cfi_offset 14, -4
 230 0002 0546     		mov	r5, r0
 231 0004 1446     		mov	r4, r2
 263:.\main.c      ****     // Makes the active motor pink
 232              		.loc 1 263 0
 233 0006 0846     		mov	r0, r1
 234              	.LVL23:
 235 0008 6FF07F41 		mvn	r1, #-16777216
 236              	.LVL24:
 237 000c FFF7FEFF 		bl	change_config_color
 238              	.LVL25:
 265:.\main.c      **** }
 239              		.loc 1 265 0
 240 0010 2846     		mov	r0, r5
 241 0012 2146     		mov	r1, r4
 242 0014 FFF7FEFF 		bl	change_config_color
 243              	.LVL26:
 244 0018 38BD     		pop	{r3, r4, r5, pc}
 245              		.cfi_endproc
 246              	.LFE70:
 247              		.size	draw_active_config, .-draw_active_config
 248 001a 00BF     		.section	.text.redraw_config_text,"ax",%progbits
 249              		.align	2
 250              		.global	redraw_config_text
 251              		.thumb
 252              		.thumb_func
 253              		.type	redraw_config_text, %function
 254              	redraw_config_text:
 255              	.LFB72:
 281:.\main.c      **** 
 282:.\main.c      **** void redraw_config_text(char* text, int motor, int color) {
 256              		.loc 1 282 0
 257              		.cfi_startproc
 258              		@ args = 0, pretend = 0, frame = 0
 259              		@ frame_needed = 0, uses_anonymous_args = 0
 260              	.LVL27:
 261 0000 38B5     		push	{r3, r4, r5, lr}
 262              		.cfi_def_cfa_offset 16
 263              		.cfi_offset 3, -16
 264              		.cfi_offset 4, -12
 265              		.cfi_offset 5, -8
 266              		.cfi_offset 14, -4
 267 0002 0546     		mov	r5, r0
 268 0004 0C46     		mov	r4, r1
 283:.\main.c      ****     GUI_SetColor(color);
 269              		.loc 1 283 0
 270 0006 1046     		mov	r0, r2
 271              	.LVL28:
 272 0008 FFF7FEFF 		bl	GUI_SetColor
 273              	.LVL29:
 284:.\main.c      ****     GUI_DispStringInRectWrap(text, &rects[motor], GUI_TA_HCENTER | GUI_TA_VCENTER, GUI_WRAPMODE_WOR
 274              		.loc 1 284 0
 275 000c 2846     		mov	r0, r5
 276 000e 0449     		ldr	r1, .L19
 277 0010 01EBC401 		add	r1, r1, r4, lsl #3
 278 0014 0E22     		movs	r2, #14
ARM GAS  C:\Users\mark6\AppData\Local\Temp\ccm1Ykfm.s 			page 11


 279 0016 0123     		movs	r3, #1
 280 0018 FFF7FEFF 		bl	GUI_DispStringInRectWrap
 281              	.LVL30:
 282 001c 38BD     		pop	{r3, r4, r5, pc}
 283              	.LVL31:
 284              	.L20:
 285 001e 00BF     		.align	2
 286              	.L19:
 287 0020 00000000 		.word	rects
 288              		.cfi_endproc
 289              	.LFE72:
 290              		.size	redraw_config_text, .-redraw_config_text
 291              		.section	.text.display_cleaning,"ax",%progbits
 292              		.align	2
 293              		.global	display_cleaning
 294              		.thumb
 295              		.thumb_func
 296              		.type	display_cleaning, %function
 297              	display_cleaning:
 298              	.LFB73:
 285:.\main.c      **** }
 286:.\main.c      **** 
 287:.\main.c      **** void display_cleaning() {
 299              		.loc 1 287 0
 300              		.cfi_startproc
 301              		@ args = 0, pretend = 0, frame = 0
 302              		@ frame_needed = 0, uses_anonymous_args = 0
 303 0000 08B5     		push	{r3, lr}
 304              		.cfi_def_cfa_offset 8
 305              		.cfi_offset 3, -8
 306              		.cfi_offset 14, -4
 288:.\main.c      ****     GUI_Clear();
 307              		.loc 1 288 0
 308 0002 FFF7FEFF 		bl	GUI_Clear
 309              	.LVL32:
 289:.\main.c      ****     GUI_SetColor(BABYBLUE);
 310              		.loc 1 289 0
 311 0006 0648     		ldr	r0, .L23
 312 0008 FFF7FEFF 		bl	GUI_SetColor
 313              	.LVL33:
 290:.\main.c      ****     GUI_DispStringAt("Cleaning... Please wait 2 minutes", SCREEN_X/2, SCREEN_Y/2);
 314              		.loc 1 290 0
 315 000c 0548     		ldr	r0, .L23+4
 316 000e A021     		movs	r1, #160
 317 0010 7822     		movs	r2, #120
 318 0012 FFF7FEFF 		bl	GUI_DispStringAt
 319              	.LVL34:
 291:.\main.c      ****     current_display = CLEANING;
 320              		.loc 1 291 0
 321 0016 0322     		movs	r2, #3
 322 0018 034B     		ldr	r3, .L23+8
 323 001a 1A70     		strb	r2, [r3]
 324 001c 08BD     		pop	{r3, pc}
 325              	.L24:
 326 001e 00BF     		.align	2
 327              	.L23:
 328 0020 F8FC0300 		.word	261368
ARM GAS  C:\Users\mark6\AppData\Local\Temp\ccm1Ykfm.s 			page 12


 329 0024 00000000 		.word	.LC0
 330 0028 00000000 		.word	current_display
 331              		.cfi_endproc
 332              	.LFE73:
 333              		.size	display_cleaning, .-display_cleaning
 334              		.section	.text.check_availability,"ax",%progbits
 335              		.align	2
 336              		.global	check_availability
 337              		.thumb
 338              		.thumb_func
 339              		.type	check_availability, %function
 340              	check_availability:
 341              	.LFB74:
 292:.\main.c      **** }
 293:.\main.c      **** 
 294:.\main.c      **** int check_availability(Drink* drink) {
 342              		.loc 1 294 0
 343              		.cfi_startproc
 344              		@ args = 0, pretend = 0, frame = 0
 345              		@ frame_needed = 0, uses_anonymous_args = 0
 346              	.LVL35:
 347 0000 F8B5     		push	{r3, r4, r5, r6, r7, lr}
 348              		.cfi_def_cfa_offset 24
 349              		.cfi_offset 3, -24
 350              		.cfi_offset 4, -20
 351              		.cfi_offset 5, -16
 352              		.cfi_offset 6, -12
 353              		.cfi_offset 7, -8
 354              		.cfi_offset 14, -4
 355 0002 0746     		mov	r7, r0
 295:.\main.c      ****     GUI_Clear();
 356              		.loc 1 295 0
 357 0004 FFF7FEFF 		bl	GUI_Clear
 358              	.LVL36:
 296:.\main.c      ****     int available = 1;
 297:.\main.c      ****     int i, j;
 298:.\main.c      ****     for (i = 0; i < drink->num_ingredients; i++) {
 359              		.loc 1 298 0
 360 0008 0026     		movs	r6, #0
 296:.\main.c      ****     int available = 1;
 361              		.loc 1 296 0
 362 000a 0120     		movs	r0, #1
 363              		.loc 1 298 0
 364 000c 11E0     		b	.L26
 365              	.LVL37:
 366              	.L31:
 367              	.LBB2:
 299:.\main.c      ****         Ingredient* ingredient = drink->ingredients[i];
 368              		.loc 1 299 0
 369 000e 7B6B     		ldr	r3, [r7, #52]
 370 0010 53F82640 		ldr	r4, [r3, r6, lsl #2]
 371              	.LVL38:
 300:.\main.c      ****         int ingredient_check = 0;
 372              		.loc 1 300 0
 373 0014 0025     		movs	r5, #0
 301:.\main.c      ****         for (j = 0; j < MOTOR_COUNT; j++) {
 374              		.loc 1 301 0
ARM GAS  C:\Users\mark6\AppData\Local\Temp\ccm1Ykfm.s 			page 13


 375 0016 2B46     		mov	r3, r5
 376 0018 06E0     		b	.L27
 377              	.LVL39:
 378              	.L29:
 379              	.LBB3:
 302:.\main.c      ****             int liquid_check = config_data[j];
 380              		.loc 1 302 0
 381 001a 084A     		ldr	r2, .L35
 382 001c D25C     		ldrb	r2, [r2, r3]	@ zero_extendqisi2
 383              	.LVL40:
 303:.\main.c      ****             if ( ingredient->liquid == liquid_check ) {
 384              		.loc 1 303 0
 385 001e 2178     		ldrb	r1, [r4]	@ zero_extendqisi2
 386 0020 9142     		cmp	r1, r2
 387 0022 00D1     		bne	.L28
 304:.\main.c      ****                 ingredient_check = 1;   
 388              		.loc 1 304 0
 389 0024 0125     		movs	r5, #1
 390              	.LVL41:
 391              	.L28:
 392              	.LBE3:
 301:.\main.c      ****             int liquid_check = config_data[j];
 393              		.loc 1 301 0 discriminator 2
 394 0026 0133     		adds	r3, r3, #1
 395              	.LVL42:
 396              	.L27:
 301:.\main.c      ****             int liquid_check = config_data[j];
 397              		.loc 1 301 0 is_stmt 0 discriminator 1
 398 0028 052B     		cmp	r3, #5
 399 002a F6DD     		ble	.L29
 305:.\main.c      ****             }
 306:.\main.c      ****         }
 307:.\main.c      ****         if (ingredient_check == 0) {
 400              		.loc 1 307 0 is_stmt 1
 401 002c 05B9     		cbnz	r5, .L30
 308:.\main.c      ****             available = 0;    
 402              		.loc 1 308 0
 403 002e 0020     		movs	r0, #0
 404              	.LVL43:
 405              	.L30:
 406              	.LBE2:
 298:.\main.c      ****         Ingredient* ingredient = drink->ingredients[i];
 407              		.loc 1 298 0 discriminator 2
 408 0030 0136     		adds	r6, r6, #1
 409              	.LVL44:
 410              	.L26:
 298:.\main.c      ****         Ingredient* ingredient = drink->ingredients[i];
 411              		.loc 1 298 0 is_stmt 0 discriminator 1
 412 0032 BB6B     		ldr	r3, [r7, #56]
 413 0034 B342     		cmp	r3, r6
 414 0036 EADC     		bgt	.L31
 309:.\main.c      ****         }
 310:.\main.c      ****     }
 311:.\main.c      ****     return available;
 312:.\main.c      **** }
 415              		.loc 1 312 0 is_stmt 1
 416 0038 F8BD     		pop	{r3, r4, r5, r6, r7, pc}
ARM GAS  C:\Users\mark6\AppData\Local\Temp\ccm1Ykfm.s 			page 14


 417              	.LVL45:
 418              	.L36:
 419 003a 00BF     		.align	2
 420              	.L35:
 421 003c 00000000 		.word	.LANCHOR0
 422              		.cfi_endproc
 423              	.LFE74:
 424              		.size	check_availability, .-check_availability
 425              		.section	.text.generate_menu,"ax",%progbits
 426              		.align	2
 427              		.global	generate_menu
 428              		.thumb
 429              		.thumb_func
 430              		.type	generate_menu, %function
 431              	generate_menu:
 432              	.LFB75:
 313:.\main.c      **** 
 314:.\main.c      **** void generate_menu() {
 433              		.loc 1 314 0
 434              		.cfi_startproc
 435              		@ args = 0, pretend = 0, frame = 0
 436              		@ frame_needed = 0, uses_anonymous_args = 0
 437 0000 10B5     		push	{r4, lr}
 438              		.cfi_def_cfa_offset 8
 439              		.cfi_offset 4, -8
 440              		.cfi_offset 14, -4
 315:.\main.c      ****     // Generates the menu based on what drinks are configured
 316:.\main.c      ****     menu_length = 0;
 441              		.loc 1 316 0
 442 0002 0024     		movs	r4, #0
 443 0004 0B4B     		ldr	r3, .L42
 444 0006 1C60     		str	r4, [r3]
 445              	.LVL46:
 317:.\main.c      ****     int i;
 318:.\main.c      ****     for (i = 0; i < NUM_DRINKS; i++) {
 446              		.loc 1 318 0
 447 0008 0FE0     		b	.L38
 448              	.LVL47:
 449              	.L40:
 450              	.LBB4:
 319:.\main.c      ****         int available = check_availability(drinks[i]);
 451              		.loc 1 319 0
 452 000a 0B4B     		ldr	r3, .L42+4
 453 000c 1B68     		ldr	r3, [r3]
 454 000e 53F82400 		ldr	r0, [r3, r4, lsl #2]
 455 0012 FFF7FEFF 		bl	check_availability
 456              	.LVL48:
 320:.\main.c      ****         if (available) {
 457              		.loc 1 320 0
 458 0016 38B1     		cbz	r0, .L39
 321:.\main.c      ****             menu_indices[menu_length] = i;
 459              		.loc 1 321 0
 460 0018 064B     		ldr	r3, .L42
 461 001a 084A     		ldr	r2, .L42+8
 462 001c 1168     		ldr	r1, [r2]
 463 001e 1A68     		ldr	r2, [r3]
 464 0020 8C54     		strb	r4, [r1, r2]
ARM GAS  C:\Users\mark6\AppData\Local\Temp\ccm1Ykfm.s 			page 15


 322:.\main.c      ****             menu_length++;
 465              		.loc 1 322 0
 466 0022 1A68     		ldr	r2, [r3]
 467 0024 0132     		adds	r2, r2, #1
 468 0026 1A60     		str	r2, [r3]
 469              	.L39:
 470              	.LBE4:
 318:.\main.c      ****         int available = check_availability(drinks[i]);
 471              		.loc 1 318 0 discriminator 2
 472 0028 0134     		adds	r4, r4, #1
 473              	.LVL49:
 474              	.L38:
 318:.\main.c      ****         int available = check_availability(drinks[i]);
 475              		.loc 1 318 0 is_stmt 0 discriminator 1
 476 002a 054B     		ldr	r3, .L42+12
 477 002c 1B68     		ldr	r3, [r3]
 478 002e 9C42     		cmp	r4, r3
 479 0030 EBDB     		blt	.L40
 323:.\main.c      ****         }
 324:.\main.c      ****     }
 325:.\main.c      **** }
 480              		.loc 1 325 0 is_stmt 1
 481 0032 10BD     		pop	{r4, pc}
 482              	.LVL50:
 483              	.L43:
 484              		.align	2
 485              	.L42:
 486 0034 00000000 		.word	.LANCHOR1
 487 0038 00000000 		.word	drinks
 488 003c 00000000 		.word	menu_indices
 489 0040 00000000 		.word	NUM_DRINKS
 490              		.cfi_endproc
 491              	.LFE75:
 492              		.size	generate_menu, .-generate_menu
 493              		.section	.text.display_config,"ax",%progbits
 494              		.align	2
 495              		.global	display_config
 496              		.thumb
 497              		.thumb_func
 498              		.type	display_config, %function
 499              	display_config:
 500              	.LFB78:
 326:.\main.c      **** 
 327:.\main.c      **** void update_dispenser_text() {
 328:.\main.c      ****     if (menu_length != 0) {
 329:.\main.c      ****         GUI_SetColor(LIGHTGRAY); // Show two inactive  
 330:.\main.c      ****         
 331:.\main.c      ****         GUI_DispStringInRectWrap("                   ", &dispenser_rects[2], GUI_TA_HCENTER | GUI_T
 332:.\main.c      ****         GUI_DispStringInRectWrap(drinks[menu_indices[clean_number(drink_scroll-1, menu_length)]]->n
 333:.\main.c      ****         
 334:.\main.c      ****         GUI_DispStringInRectWrap("                   ", &dispenser_rects[0], GUI_TA_HCENTER | GUI_T
 335:.\main.c      ****         GUI_DispStringInRectWrap(drinks[menu_indices[clean_number(drink_scroll+1, menu_length)]]->n
 336:.\main.c      ****         
 337:.\main.c      ****         GUI_SetColor(WHITE); // Active one
 338:.\main.c      ****         
 339:.\main.c      ****         GUI_DispStringInRectWrap("                   ", &dispenser_rects[1], GUI_TA_HCENTER | GUI_T
 340:.\main.c      ****         GUI_DispStringInRectWrap(drinks[menu_indices[drink_scroll]]->name, &dispenser_rects[1], GUI
ARM GAS  C:\Users\mark6\AppData\Local\Temp\ccm1Ykfm.s 			page 16


 341:.\main.c      ****     }
 342:.\main.c      **** }
 343:.\main.c      **** 
 344:.\main.c      **** void display_dispenser() {
 345:.\main.c      ****     current_display = DISPLAY;
 346:.\main.c      ****     generate_menu();
 347:.\main.c      ****     GUI_Clear();
 348:.\main.c      ****     if (menu_length == 0) {
 349:.\main.c      ****         GUI_DispStringInRectWrap("Mork or Chungie, set this bitch up", &dispenser_rects[1], GUI_TA_
 350:.\main.c      ****     } else {
 351:.\main.c      **** 
 352:.\main.c      ****     GUI_SetColor(WHITE);
 353:.\main.c      ****     GUI_FillCircle(20, SCREEN_Y/2, 10); // Submit Symbol
 354:.\main.c      ****     GUI_SetColor(GREEN);
 355:.\main.c      ****     GUI_FillCircle(20, SCREEN_Y/2, 5);
 356:.\main.c      ****     GUI_SetColor(WHITE);
 357:.\main.c      ****     GUI_FillPolygon(UpArrowPoints, GUI_COUNTOF(UpArrowPoints), 280, 40);
 358:.\main.c      ****     GUI_FillPolygon(DownArrowPoints, GUI_COUNTOF(DownArrowPoints), 280, 180);
 359:.\main.c      ****     GUI_RECT rect = dispenser_rects[SHOWN_DRINKS];
 360:.\main.c      ****     GUI_DispStringInRectWrap("Welcome to Mork and Chungus's Bar Bot!", &rect, GUI_TA_HCENTER | GUI_
 361:.\main.c      ****     rect = dispenser_rects[1];
 362:.\main.c      ****     // Top Line
 363:.\main.c      ****     GUI_DrawLine(rect.x0, rect.y0, rect.x1, rect.y0);
 364:.\main.c      ****     // Left Line
 365:.\main.c      ****     GUI_DrawLine(rect.x0, rect.y0, rect.x0, rect.y1);
 366:.\main.c      ****     // Right Line
 367:.\main.c      ****     GUI_DrawLine(rect.x1, rect.y0, rect.x1, rect.y1);
 368:.\main.c      ****     // Bottom Line
 369:.\main.c      ****     GUI_DrawLine(rect.x0, rect.y1, rect.x1, rect.y1);
 370:.\main.c      ****     update_dispenser_text();
 371:.\main.c      ****     }
 372:.\main.c      **** }
 373:.\main.c      **** 
 374:.\main.c      **** 
 375:.\main.c      **** 
 376:.\main.c      **** void display_config() {
 501              		.loc 1 376 0
 502              		.cfi_startproc
 503              		@ args = 0, pretend = 0, frame = 16
 504              		@ frame_needed = 0, uses_anonymous_args = 0
 505 0000 10B5     		push	{r4, lr}
 506              		.cfi_def_cfa_offset 8
 507              		.cfi_offset 4, -8
 508              		.cfi_offset 14, -4
 509 0002 84B0     		sub	sp, sp, #16
 510              		.cfi_def_cfa_offset 24
 377:.\main.c      ****     GUI_Clear();
 511              		.loc 1 377 0
 512 0004 FFF7FEFF 		bl	GUI_Clear
 513              	.LVL51:
 378:.\main.c      ****     GUI_SetColor(WHITE);
 514              		.loc 1 378 0
 515 0008 6FF07F40 		mvn	r0, #-16777216
 516 000c FFF7FEFF 		bl	GUI_SetColor
 517              	.LVL52:
 379:.\main.c      ****     // Configuration Menu at top
 380:.\main.c      ****     GUI_RECT rect = rects[6];
ARM GAS  C:\Users\mark6\AppData\Local\Temp\ccm1Ykfm.s 			page 17


 518              		.loc 1 380 0
 519 0010 524C     		ldr	r4, .L48
 520 0012 02AB     		add	r3, sp, #8
 521 0014 2246     		mov	r2, r4
 522 0016 52F8300F 		ldr	r0, [r2, #48]!	@ unaligned
 523 001a 5168     		ldr	r1, [r2, #4]	@ unaligned
 524 001c 03C3     		stmia	r3!, {r0, r1}
 381:.\main.c      ****     // Top Line
 382:.\main.c      ****     GUI_DrawLine(rect.x0, rect.y0, rect.x1, rect.y0);
 525              		.loc 1 382 0
 526 001e BDF90A30 		ldrsh	r3, [sp, #10]
 527 0022 BDF90800 		ldrsh	r0, [sp, #8]
 528 0026 1946     		mov	r1, r3
 529 0028 BDF90C20 		ldrsh	r2, [sp, #12]
 530 002c FFF7FEFF 		bl	GUI_DrawLine
 531              	.LVL53:
 383:.\main.c      ****     // Left Line
 384:.\main.c      ****     GUI_DrawLine(rect.x0, rect.y0, rect.x0, rect.y1);
 532              		.loc 1 384 0
 533 0030 BDF90820 		ldrsh	r2, [sp, #8]
 534 0034 1046     		mov	r0, r2
 535 0036 BDF90A10 		ldrsh	r1, [sp, #10]
 536 003a BDF90E30 		ldrsh	r3, [sp, #14]
 537 003e FFF7FEFF 		bl	GUI_DrawLine
 538              	.LVL54:
 385:.\main.c      ****     // Right Line
 386:.\main.c      ****     GUI_DrawLine(rect.x1, rect.y0, rect.x1, rect.y1);
 539              		.loc 1 386 0
 540 0042 BDF90C20 		ldrsh	r2, [sp, #12]
 541 0046 1046     		mov	r0, r2
 542 0048 BDF90A10 		ldrsh	r1, [sp, #10]
 543 004c BDF90E30 		ldrsh	r3, [sp, #14]
 544 0050 FFF7FEFF 		bl	GUI_DrawLine
 545              	.LVL55:
 387:.\main.c      ****     // Bottom Line
 388:.\main.c      ****     GUI_DrawLine(rect.x0, rect.y1, rect.x1, rect.y1);    
 546              		.loc 1 388 0
 547 0054 BDF90E30 		ldrsh	r3, [sp, #14]
 548 0058 BDF90800 		ldrsh	r0, [sp, #8]
 549 005c 1946     		mov	r1, r3
 550 005e BDF90C20 		ldrsh	r2, [sp, #12]
 551 0062 FFF7FEFF 		bl	GUI_DrawLine
 552              	.LVL56:
 389:.\main.c      ****     GUI_DispStringInRectWrap("Configuration Menu", &rect, GUI_TA_HCENTER | GUI_TA_VCENTER, GUI_WRAP
 553              		.loc 1 389 0
 554 0066 3E48     		ldr	r0, .L48+4
 555 0068 02A9     		add	r1, sp, #8
 556 006a 0E22     		movs	r2, #14
 557 006c 0123     		movs	r3, #1
 558 006e FFF7FEFF 		bl	GUI_DispStringInRectWrap
 559              	.LVL57:
 390:.\main.c      ****     
 391:.\main.c      ****     // Clean tubes at bottom
 392:.\main.c      ****     rect = rects[7];
 560              		.loc 1 392 0
 561 0072 02AA     		add	r2, sp, #8
 562 0074 2346     		mov	r3, r4
ARM GAS  C:\Users\mark6\AppData\Local\Temp\ccm1Ykfm.s 			page 18


 563 0076 53F8380F 		ldr	r0, [r3, #56]!	@ unaligned
 564 007a 5968     		ldr	r1, [r3, #4]	@ unaligned
 565 007c 03C2     		stmia	r2!, {r0, r1}
 393:.\main.c      ****     // Top Line
 394:.\main.c      ****     GUI_DrawLine(rect.x0, rect.y0, rect.x1, rect.y0);
 566              		.loc 1 394 0
 567 007e BDF90A30 		ldrsh	r3, [sp, #10]
 568 0082 BDF90800 		ldrsh	r0, [sp, #8]
 569 0086 1946     		mov	r1, r3
 570 0088 BDF90C20 		ldrsh	r2, [sp, #12]
 571 008c FFF7FEFF 		bl	GUI_DrawLine
 572              	.LVL58:
 395:.\main.c      ****     // Left Line
 396:.\main.c      ****     GUI_DrawLine(rect.x0, rect.y0, rect.x0, rect.y1);
 573              		.loc 1 396 0
 574 0090 BDF90820 		ldrsh	r2, [sp, #8]
 575 0094 1046     		mov	r0, r2
 576 0096 BDF90A10 		ldrsh	r1, [sp, #10]
 577 009a BDF90E30 		ldrsh	r3, [sp, #14]
 578 009e FFF7FEFF 		bl	GUI_DrawLine
 579              	.LVL59:
 397:.\main.c      ****     // Right Line
 398:.\main.c      ****     GUI_DrawLine(rect.x1, rect.y0, rect.x1, rect.y1);
 580              		.loc 1 398 0
 581 00a2 BDF90C20 		ldrsh	r2, [sp, #12]
 582 00a6 1046     		mov	r0, r2
 583 00a8 BDF90A10 		ldrsh	r1, [sp, #10]
 584 00ac BDF90E30 		ldrsh	r3, [sp, #14]
 585 00b0 FFF7FEFF 		bl	GUI_DrawLine
 586              	.LVL60:
 399:.\main.c      ****     // Bottom Line
 400:.\main.c      ****     GUI_DrawLine(rect.x0, rect.y1, rect.x1, rect.y1);    
 587              		.loc 1 400 0
 588 00b4 BDF90E30 		ldrsh	r3, [sp, #14]
 589 00b8 BDF90800 		ldrsh	r0, [sp, #8]
 590 00bc 1946     		mov	r1, r3
 591 00be BDF90C20 		ldrsh	r2, [sp, #12]
 592 00c2 FFF7FEFF 		bl	GUI_DrawLine
 593              	.LVL61:
 401:.\main.c      ****     GUI_DispStringInRectWrap("Clean Tubing", &rect, GUI_TA_HCENTER | GUI_TA_VCENTER, GUI_WRAPMODE_W
 594              		.loc 1 401 0
 595 00c6 2748     		ldr	r0, .L48+8
 596 00c8 02A9     		add	r1, sp, #8
 597 00ca 0E22     		movs	r2, #14
 598 00cc 0123     		movs	r3, #1
 599 00ce FFF7FEFF 		bl	GUI_DispStringInRectWrap
 600              	.LVL62:
 402:.\main.c      ****     int i = 0;     
 403:.\main.c      ****     for (i = 0; i < MOTOR_COUNT; i++) {
 601              		.loc 1 403 0
 602 00d2 0024     		movs	r4, #0
 603 00d4 36E0     		b	.L45
 604              	.LVL63:
 605              	.L46:
 606              	.LBB5:
 404:.\main.c      ****         GUI_RECT rect = rects[i];
 607              		.loc 1 404 0 discriminator 3
ARM GAS  C:\Users\mark6\AppData\Local\Temp\ccm1Ykfm.s 			page 19


 608 00d6 6B46     		mov	r3, sp
 609 00d8 204A     		ldr	r2, .L48
 610 00da 02EBC402 		add	r2, r2, r4, lsl #3
 611 00de 1068     		ldr	r0, [r2]	@ unaligned
 612 00e0 5168     		ldr	r1, [r2, #4]	@ unaligned
 613 00e2 03C3     		stmia	r3!, {r0, r1}
 405:.\main.c      ****         // Top Line
 406:.\main.c      ****         GUI_DrawLine(rect.x0, rect.y0, rect.x1, rect.y0);
 614              		.loc 1 406 0 discriminator 3
 615 00e4 BDF90230 		ldrsh	r3, [sp, #2]
 616 00e8 BDF90000 		ldrsh	r0, [sp]
 617 00ec 1946     		mov	r1, r3
 618 00ee BDF90420 		ldrsh	r2, [sp, #4]
 619 00f2 FFF7FEFF 		bl	GUI_DrawLine
 620              	.LVL64:
 407:.\main.c      ****         // Left Line
 408:.\main.c      ****         GUI_DrawLine(rect.x0, rect.y0, rect.x0, rect.y1);
 621              		.loc 1 408 0 discriminator 3
 622 00f6 BDF90020 		ldrsh	r2, [sp]
 623 00fa 1046     		mov	r0, r2
 624 00fc BDF90210 		ldrsh	r1, [sp, #2]
 625 0100 BDF90630 		ldrsh	r3, [sp, #6]
 626 0104 FFF7FEFF 		bl	GUI_DrawLine
 627              	.LVL65:
 409:.\main.c      ****         // Right Line
 410:.\main.c      ****         GUI_DrawLine(rect.x1, rect.y0, rect.x1, rect.y1);
 628              		.loc 1 410 0 discriminator 3
 629 0108 BDF90420 		ldrsh	r2, [sp, #4]
 630 010c 1046     		mov	r0, r2
 631 010e BDF90210 		ldrsh	r1, [sp, #2]
 632 0112 BDF90630 		ldrsh	r3, [sp, #6]
 633 0116 FFF7FEFF 		bl	GUI_DrawLine
 634              	.LVL66:
 411:.\main.c      ****         // Bottom Line
 412:.\main.c      ****         GUI_DrawLine(rect.x0, rect.y1, rect.x1, rect.y1);
 635              		.loc 1 412 0 discriminator 3
 636 011a BDF90630 		ldrsh	r3, [sp, #6]
 637 011e BDF90000 		ldrsh	r0, [sp]
 638 0122 1946     		mov	r1, r3
 639 0124 BDF90420 		ldrsh	r2, [sp, #4]
 640 0128 FFF7FEFF 		bl	GUI_DrawLine
 641              	.LVL67:
 413:.\main.c      ****         
 414:.\main.c      ****         GUI_DispStringInRectWrap(Liquids[config_data[i]], &rect, GUI_TA_HCENTER | GUI_TA_VCENTER, G
 642              		.loc 1 414 0 discriminator 3
 643 012c 0E4B     		ldr	r3, .L48+12
 644 012e 1A5D     		ldrb	r2, [r3, r4]	@ zero_extendqisi2
 645 0130 0E4B     		ldr	r3, .L48+16
 646 0132 3220     		movs	r0, #50
 647 0134 00FB0230 		mla	r0, r0, r2, r3
 648 0138 6946     		mov	r1, sp
 649 013a 0E22     		movs	r2, #14
 650 013c 0123     		movs	r3, #1
 651 013e FFF7FEFF 		bl	GUI_DispStringInRectWrap
 652              	.LVL68:
 653              	.LBE5:
 403:.\main.c      ****         GUI_RECT rect = rects[i];
ARM GAS  C:\Users\mark6\AppData\Local\Temp\ccm1Ykfm.s 			page 20


 654              		.loc 1 403 0 discriminator 3
 655 0142 0134     		adds	r4, r4, #1
 656              	.LVL69:
 657              	.L45:
 403:.\main.c      ****         GUI_RECT rect = rects[i];
 658              		.loc 1 403 0 is_stmt 0 discriminator 1
 659 0144 052C     		cmp	r4, #5
 660 0146 C6DD     		ble	.L46
 415:.\main.c      ****     }
 416:.\main.c      ****     current_display = CONFIG;
 661              		.loc 1 416 0 is_stmt 1
 662 0148 0021     		movs	r1, #0
 663 014a 094B     		ldr	r3, .L48+20
 664 014c 1970     		strb	r1, [r3]
 417:.\main.c      ****     draw_active_config(0, 0, PINK);
 665              		.loc 1 417 0
 666 014e 0846     		mov	r0, r1
 667 0150 084A     		ldr	r2, .L48+24
 668 0152 FFF7FEFF 		bl	draw_active_config
 669              	.LVL70:
 418:.\main.c      **** }
 670              		.loc 1 418 0
 671 0156 04B0     		add	sp, sp, #16
 672              		.cfi_def_cfa_offset 8
 673              		@ sp needed
 674 0158 10BD     		pop	{r4, pc}
 675              	.LVL71:
 676              	.L49:
 677 015a 00BF     		.align	2
 678              	.L48:
 679 015c 00000000 		.word	rects
 680 0160 24000000 		.word	.LC1
 681 0164 38000000 		.word	.LC2
 682 0168 00000000 		.word	.LANCHOR0
 683 016c 00000000 		.word	Liquids
 684 0170 00000000 		.word	current_display
 685 0174 E370F600 		.word	16150755
 686              		.cfi_endproc
 687              	.LFE78:
 688              		.size	display_config, .-display_config
 689              		.section	.text.create_dispenser_rects,"ax",%progbits
 690              		.align	2
 691              		.global	create_dispenser_rects
 692              		.thumb
 693              		.thumb_func
 694              		.type	create_dispenser_rects, %function
 695              	create_dispenser_rects:
 696              	.LFB79:
 419:.\main.c      **** // Setup Display Functions
 420:.\main.c      **** void create_dispenser_rects() {
 697              		.loc 1 420 0
 698              		.cfi_startproc
 699              		@ args = 0, pretend = 0, frame = 16
 700              		@ frame_needed = 0, uses_anonymous_args = 0
 701              		@ link register save eliminated.
 702 0000 70B4     		push	{r4, r5, r6}
 703              		.cfi_def_cfa_offset 12
ARM GAS  C:\Users\mark6\AppData\Local\Temp\ccm1Ykfm.s 			page 21


 704              		.cfi_offset 4, -12
 705              		.cfi_offset 5, -8
 706              		.cfi_offset 6, -4
 707 0002 85B0     		sub	sp, sp, #20
 708              		.cfi_def_cfa_offset 32
 709              	.LVL72:
 421:.\main.c      ****     int i;
 422:.\main.c      ****     int x_padding = 60;
 423:.\main.c      ****     int y_padding = 75;
 424:.\main.c      ****     int y_inc = 30;
 425:.\main.c      ****     int y = 0;
 426:.\main.c      ****     GUI_RECT title_rect = {MARGIN, MARGIN, SCREEN_X-MARGIN, MARGIN+y_inc};
 710              		.loc 1 426 0
 711 0004 0A23     		movs	r3, #10
 712 0006 ADF80830 		strh	r3, [sp, #8]	@ movhi
 713 000a ADF80A30 		strh	r3, [sp, #10]	@ movhi
 714 000e 4FF49B73 		mov	r3, #310
 715 0012 ADF80C30 		strh	r3, [sp, #12]	@ movhi
 716 0016 2823     		movs	r3, #40
 717 0018 ADF80E30 		strh	r3, [sp, #14]	@ movhi
 427:.\main.c      ****     dispenser_rects[SHOWN_DRINKS] = title_rect;
 718              		.loc 1 427 0
 719 001c 144A     		ldr	r2, .L54
 720 001e 02AB     		add	r3, sp, #8
 721 0020 03CB     		ldmia	r3!, {r0, r1}
 722 0022 9061     		str	r0, [r2, #24]	@ unaligned
 723 0024 D161     		str	r1, [r2, #28]	@ unaligned
 724              	.LVL73:
 425:.\main.c      ****     GUI_RECT title_rect = {MARGIN, MARGIN, SCREEN_X-MARGIN, MARGIN+y_inc};
 725              		.loc 1 425 0
 726 0026 0023     		movs	r3, #0
 428:.\main.c      ****     for (i = 0; i < SHOWN_DRINKS; i++) {
 727              		.loc 1 428 0
 728 0028 1A46     		mov	r2, r3
 729 002a 1CE0     		b	.L51
 730              	.LVL74:
 731              	.L52:
 732              	.LBB6:
 429:.\main.c      ****         GUI_RECT new_rect = {x_padding, (y*y_inc)+y_padding, (SCREEN_X-x_padding), ((y+1)*y_inc)+ y
 733              		.loc 1 429 0 discriminator 3
 734 002c 3C21     		movs	r1, #60
 735 002e ADF80010 		strh	r1, [sp]	@ movhi
 736 0032 C3EB0310 		rsb	r0, r3, r3, lsl #4
 737 0036 4100     		lsls	r1, r0, #1
 738 0038 4B31     		adds	r1, r1, #75
 739 003a ADF80210 		strh	r1, [sp, #2]	@ movhi
 740 003e 4FF48271 		mov	r1, #260
 741 0042 ADF80410 		strh	r1, [sp, #4]	@ movhi
 742 0046 0133     		adds	r3, r3, #1
 743              	.LVL75:
 744 0048 C3EB0310 		rsb	r0, r3, r3, lsl #4
 745 004c 4100     		lsls	r1, r0, #1
 746 004e 4B31     		adds	r1, r1, #75
 747 0050 ADF80610 		strh	r1, [sp, #6]	@ movhi
 430:.\main.c      ****         dispenser_rects[i] = new_rect;      
 748              		.loc 1 430 0 discriminator 3
 749 0054 064D     		ldr	r5, .L54
ARM GAS  C:\Users\mark6\AppData\Local\Temp\ccm1Ykfm.s 			page 22


 750 0056 05EBC206 		add	r6, r5, r2, lsl #3
 751 005a 6C46     		mov	r4, sp
 752 005c 03CC     		ldmia	r4!, {r0, r1}
 753 005e 45F83200 		str	r0, [r5, r2, lsl #3]	@ unaligned
 754 0062 7160     		str	r1, [r6, #4]	@ unaligned
 755              	.LVL76:
 756              	.LBE6:
 428:.\main.c      ****     for (i = 0; i < SHOWN_DRINKS; i++) {
 757              		.loc 1 428 0 discriminator 3
 758 0064 0132     		adds	r2, r2, #1
 759              	.LVL77:
 760              	.L51:
 428:.\main.c      ****     for (i = 0; i < SHOWN_DRINKS; i++) {
 761              		.loc 1 428 0 is_stmt 0 discriminator 1
 762 0066 022A     		cmp	r2, #2
 763 0068 E0DD     		ble	.L52
 431:.\main.c      ****         y++;
 432:.\main.c      ****     }
 433:.\main.c      **** }
 764              		.loc 1 433 0 is_stmt 1
 765 006a 05B0     		add	sp, sp, #20
 766              		.cfi_def_cfa_offset 12
 767              		@ sp needed
 768 006c 70BC     		pop	{r4, r5, r6}
 769              		.cfi_restore 6
 770              		.cfi_restore 5
 771              		.cfi_restore 4
 772              		.cfi_def_cfa_offset 0
 773 006e 7047     		bx	lr
 774              	.L55:
 775              		.align	2
 776              	.L54:
 777 0070 00000000 		.word	dispenser_rects
 778              		.cfi_endproc
 779              	.LFE79:
 780              		.size	create_dispenser_rects, .-create_dispenser_rects
 781              		.section	.text.create_config_rects,"ax",%progbits
 782              		.align	2
 783              		.global	create_config_rects
 784              		.thumb
 785              		.thumb_func
 786              		.type	create_config_rects, %function
 787              	create_config_rects:
 788              	.LFB80:
 434:.\main.c      **** void create_config_rects() {
 789              		.loc 1 434 0
 790              		.cfi_startproc
 791              		@ args = 0, pretend = 0, frame = 24
 792              		@ frame_needed = 0, uses_anonymous_args = 0
 793              		@ link register save eliminated.
 794 0000 F0B4     		push	{r4, r5, r6, r7}
 795              		.cfi_def_cfa_offset 16
 796              		.cfi_offset 4, -16
 797              		.cfi_offset 5, -12
 798              		.cfi_offset 6, -8
 799              		.cfi_offset 7, -4
 800 0002 86B0     		sub	sp, sp, #24
ARM GAS  C:\Users\mark6\AppData\Local\Temp\ccm1Ykfm.s 			page 23


 801              		.cfi_def_cfa_offset 40
 802              	.LVL78:
 435:.\main.c      ****     // Creates the rectangles needed to display our data, creates two full width
 436:.\main.c      ****     // rectangles then pairs the rest of the way down.
 437:.\main.c      ****     int x = 0;
 438:.\main.c      ****     int y = 0;
 439:.\main.c      ****     uint i;
 440:.\main.c      ****     int config_inc = 20;
 441:.\main.c      ****     GUI_RECT title_rect = {MARGIN, MARGIN, SCREEN_X-MARGIN, MARGIN+config_inc};
 803              		.loc 1 441 0
 804 0004 0A24     		movs	r4, #10
 805 0006 ADF81040 		strh	r4, [sp, #16]	@ movhi
 806 000a ADF81240 		strh	r4, [sp, #18]	@ movhi
 807 000e 4FF49B75 		mov	r5, #310
 808 0012 ADF81450 		strh	r5, [sp, #20]	@ movhi
 809 0016 1E23     		movs	r3, #30
 810 0018 ADF81630 		strh	r3, [sp, #22]	@ movhi
 442:.\main.c      ****     rects[6] = title_rect;
 811              		.loc 1 442 0
 812 001c 454B     		ldr	r3, .L64
 813 001e 04AA     		add	r2, sp, #16
 814 0020 03CA     		ldmia	r2!, {r0, r1}
 815 0022 1863     		str	r0, [r3, #48]	@ unaligned
 816 0024 5963     		str	r1, [r3, #52]	@ unaligned
 443:.\main.c      ****     GUI_RECT clean_rect = {MARGIN, SCREEN_Y-MARGIN-config_inc, SCREEN_X-MARGIN, SCREEN_Y-MARGIN};
 817              		.loc 1 443 0
 818 0026 ADF80840 		strh	r4, [sp, #8]	@ movhi
 819 002a D222     		movs	r2, #210
 820 002c ADF80A20 		strh	r2, [sp, #10]	@ movhi
 821 0030 ADF80C50 		strh	r5, [sp, #12]	@ movhi
 822 0034 E622     		movs	r2, #230
 823 0036 ADF80E20 		strh	r2, [sp, #14]	@ movhi
 444:.\main.c      ****     rects[7] = clean_rect;
 824              		.loc 1 444 0
 825 003a 02AA     		add	r2, sp, #8
 826 003c 03CA     		ldmia	r2!, {r0, r1}
 827 003e 9863     		str	r0, [r3, #56]	@ unaligned
 828 0040 D963     		str	r1, [r3, #60]	@ unaligned
 829              	.LVL79:
 445:.\main.c      **** 
 446:.\main.c      ****     for (i = 0; i < MOTOR_COUNT; i++) {
 830              		.loc 1 446 0
 831 0042 0024     		movs	r4, #0
 438:.\main.c      ****     uint i;
 832              		.loc 1 438 0
 833 0044 2546     		mov	r5, r4
 437:.\main.c      ****     int y = 0;
 834              		.loc 1 437 0
 835 0046 2346     		mov	r3, r4
 836              		.loc 1 446 0
 837 0048 6FE0     		b	.L57
 838              	.LVL80:
 839              	.L62:
 447:.\main.c      ****         if (x == 0) {
 840              		.loc 1 447 0
 841 004a FBB9     		cbnz	r3, .L58
 842              	.LBB7:
ARM GAS  C:\Users\mark6\AppData\Local\Temp\ccm1Ykfm.s 			page 24


 448:.\main.c      ****             // left
 449:.\main.c      ****             GUI_RECT new_rect = {MARGIN, MARGIN+(y*Y_INC)+config_inc, (SCREEN_X-MARGIN) /3, MARGIN+
 843              		.loc 1 449 0
 844 004c 0A22     		movs	r2, #10
 845 004e ADF80020 		strh	r2, [sp]	@ movhi
 846 0052 05EB4502 		add	r2, r5, r5, lsl #1
 847 0056 C2EB0212 		rsb	r2, r2, r2, lsl #4
 848 005a 5100     		lsls	r1, r2, #1
 849 005c 1E31     		adds	r1, r1, #30
 850 005e ADF80210 		strh	r1, [sp, #2]	@ movhi
 851 0062 6722     		movs	r2, #103
 852 0064 ADF80420 		strh	r2, [sp, #4]	@ movhi
 853 0068 6A1C     		adds	r2, r5, #1
 854 006a 02EB4202 		add	r2, r2, r2, lsl #1
 855 006e C2EB0212 		rsb	r2, r2, r2, lsl #4
 856 0072 5100     		lsls	r1, r2, #1
 857 0074 1E31     		adds	r1, r1, #30
 858 0076 ADF80610 		strh	r1, [sp, #6]	@ movhi
 450:.\main.c      ****             rects[i] = new_rect;
 859              		.loc 1 450 0
 860 007a 2E4E     		ldr	r6, .L64
 861 007c 06EBC407 		add	r7, r6, r4, lsl #3
 862 0080 6A46     		mov	r2, sp
 863 0082 03CA     		ldmia	r2!, {r0, r1}
 864 0084 46F83400 		str	r0, [r6, r4, lsl #3]	@ unaligned
 865 0088 7960     		str	r1, [r7, #4]	@ unaligned
 866              	.LBE7:
 867 008a 41E0     		b	.L59
 868              	.L58:
 451:.\main.c      ****         } else if (x == 1) {
 869              		.loc 1 451 0
 870 008c 012B     		cmp	r3, #1
 871 008e 1FD1     		bne	.L60
 872              	.LBB8:
 452:.\main.c      ****             // middle
 453:.\main.c      ****             GUI_RECT new_rect = {(SCREEN_X-MARGIN) /3, MARGIN+(y*Y_INC)+config_inc, (SCREEN_X-MARGI
 873              		.loc 1 453 0
 874 0090 6722     		movs	r2, #103
 875 0092 ADF80020 		strh	r2, [sp]	@ movhi
 876 0096 05EB4502 		add	r2, r5, r5, lsl #1
 877 009a C2EB0212 		rsb	r2, r2, r2, lsl #4
 878 009e 5100     		lsls	r1, r2, #1
 879 00a0 1E31     		adds	r1, r1, #30
 880 00a2 ADF80210 		strh	r1, [sp, #2]	@ movhi
 881 00a6 CE22     		movs	r2, #206
 882 00a8 ADF80420 		strh	r2, [sp, #4]	@ movhi
 883 00ac 6A1C     		adds	r2, r5, #1
 884 00ae 02EB4202 		add	r2, r2, r2, lsl #1
 885 00b2 C2EB0212 		rsb	r2, r2, r2, lsl #4
 886 00b6 5100     		lsls	r1, r2, #1
 887 00b8 1E31     		adds	r1, r1, #30
 888 00ba ADF80610 		strh	r1, [sp, #6]	@ movhi
 454:.\main.c      ****             rects[i] = new_rect;
 889              		.loc 1 454 0
 890 00be 1D4E     		ldr	r6, .L64
 891 00c0 06EBC407 		add	r7, r6, r4, lsl #3
 892 00c4 6A46     		mov	r2, sp
ARM GAS  C:\Users\mark6\AppData\Local\Temp\ccm1Ykfm.s 			page 25


 893 00c6 03CA     		ldmia	r2!, {r0, r1}
 894 00c8 46F83400 		str	r0, [r6, r4, lsl #3]	@ unaligned
 895 00cc 7960     		str	r1, [r7, #4]	@ unaligned
 896              	.LBE8:
 897 00ce 1FE0     		b	.L59
 898              	.L60:
 899              	.LBB9:
 455:.\main.c      ****         }
 456:.\main.c      ****         else {
 457:.\main.c      ****             // right
 458:.\main.c      ****             GUI_RECT new_rect = {(SCREEN_X-MARGIN)*2 /3, MARGIN+(y*Y_INC)+config_inc, SCREEN_X-MARG
 900              		.loc 1 458 0
 901 00d0 CE22     		movs	r2, #206
 902 00d2 ADF80020 		strh	r2, [sp]	@ movhi
 903 00d6 05EB4502 		add	r2, r5, r5, lsl #1
 904 00da C2EB0212 		rsb	r2, r2, r2, lsl #4
 905 00de 5100     		lsls	r1, r2, #1
 906 00e0 1E31     		adds	r1, r1, #30
 907 00e2 ADF80210 		strh	r1, [sp, #2]	@ movhi
 908 00e6 4FF49B72 		mov	r2, #310
 909 00ea ADF80420 		strh	r2, [sp, #4]	@ movhi
 910 00ee 6A1C     		adds	r2, r5, #1
 911 00f0 02EB4202 		add	r2, r2, r2, lsl #1
 912 00f4 C2EB0212 		rsb	r2, r2, r2, lsl #4
 913 00f8 5100     		lsls	r1, r2, #1
 914 00fa 1E31     		adds	r1, r1, #30
 915 00fc ADF80610 		strh	r1, [sp, #6]	@ movhi
 459:.\main.c      ****             rects[i] = new_rect;
 916              		.loc 1 459 0
 917 0100 0C4E     		ldr	r6, .L64
 918 0102 06EBC407 		add	r7, r6, r4, lsl #3
 919 0106 6A46     		mov	r2, sp
 920 0108 03CA     		ldmia	r2!, {r0, r1}
 921 010a 46F83400 		str	r0, [r6, r4, lsl #3]	@ unaligned
 922 010e 7960     		str	r1, [r7, #4]	@ unaligned
 923              	.L59:
 924              	.LBE9:
 460:.\main.c      ****         }
 461:.\main.c      ****         if (x == 2) {
 925              		.loc 1 461 0
 926 0110 022B     		cmp	r3, #2
 927 0112 00D1     		bne	.L61
 462:.\main.c      ****             y++; // go to next line if end of this line
 928              		.loc 1 462 0
 929 0114 0135     		adds	r5, r5, #1
 930              	.LVL81:
 931              	.L61:
 463:.\main.c      ****         }
 464:.\main.c      ****         x++; // increment the side for the next one
 932              		.loc 1 464 0 discriminator 2
 933 0116 5A1C     		adds	r2, r3, #1
 934              	.LVL82:
 465:.\main.c      ****         x %= 3;
 935              		.loc 1 465 0 discriminator 2
 936 0118 074B     		ldr	r3, .L64+4
 937 011a 83FB0213 		smull	r1, r3, r3, r2
 938 011e A3EBE273 		sub	r3, r3, r2, asr #31
ARM GAS  C:\Users\mark6\AppData\Local\Temp\ccm1Ykfm.s 			page 26


 939 0122 03EB4303 		add	r3, r3, r3, lsl #1
 940 0126 D31A     		subs	r3, r2, r3
 941              	.LVL83:
 446:.\main.c      ****         if (x == 0) {
 942              		.loc 1 446 0 discriminator 2
 943 0128 0134     		adds	r4, r4, #1
 944              	.LVL84:
 945              	.L57:
 446:.\main.c      ****         if (x == 0) {
 946              		.loc 1 446 0 is_stmt 0 discriminator 1
 947 012a 052C     		cmp	r4, #5
 948 012c 8DD9     		bls	.L62
 466:.\main.c      ****     }
 467:.\main.c      **** }
 949              		.loc 1 467 0 is_stmt 1
 950 012e 06B0     		add	sp, sp, #24
 951              		.cfi_def_cfa_offset 16
 952              		@ sp needed
 953 0130 F0BC     		pop	{r4, r5, r6, r7}
 954              		.cfi_restore 7
 955              		.cfi_restore 6
 956              		.cfi_restore 5
 957              		.cfi_restore 4
 958              		.cfi_def_cfa_offset 0
 959              	.LVL85:
 960 0132 7047     		bx	lr
 961              	.L65:
 962              		.align	2
 963              	.L64:
 964 0134 00000000 		.word	rects
 965 0138 56555555 		.word	1431655766
 966              		.cfi_endproc
 967              	.LFE80:
 968              		.size	create_config_rects, .-create_config_rects
 969              		.section	.text.clean_number,"ax",%progbits
 970              		.align	2
 971              		.global	clean_number
 972              		.thumb
 973              		.thumb_func
 974              		.type	clean_number, %function
 975              	clean_number:
 976              	.LFB81:
 468:.\main.c      **** 
 469:.\main.c      **** // Utility Functions
 470:.\main.c      **** 
 471:.\main.c      **** int clean_number(int num, int count) {
 977              		.loc 1 471 0
 978              		.cfi_startproc
 979              		@ args = 0, pretend = 0, frame = 0
 980              		@ frame_needed = 0, uses_anonymous_args = 0
 981              		@ link register save eliminated.
 982              	.LVL86:
 472:.\main.c      ****     return (num + count) % count;
 983              		.loc 1 472 0
 984 0000 0844     		add	r0, r0, r1
 985              	.LVL87:
 986 0002 90FBF1F3 		sdiv	r3, r0, r1
ARM GAS  C:\Users\mark6\AppData\Local\Temp\ccm1Ykfm.s 			page 27


 473:.\main.c      **** }
 987              		.loc 1 473 0
 988 0006 01FB1300 		mls	r0, r1, r3, r0
 989 000a 7047     		bx	lr
 990              		.cfi_endproc
 991              	.LFE81:
 992              		.size	clean_number, .-clean_number
 993              		.section	.text.update_dispenser_text,"ax",%progbits
 994              		.align	2
 995              		.global	update_dispenser_text
 996              		.thumb
 997              		.thumb_func
 998              		.type	update_dispenser_text, %function
 999              	update_dispenser_text:
 1000              	.LFB76:
 327:.\main.c      ****     if (menu_length != 0) {
 1001              		.loc 1 327 0
 1002              		.cfi_startproc
 1003              		@ args = 0, pretend = 0, frame = 0
 1004              		@ frame_needed = 0, uses_anonymous_args = 0
 1005 0000 2DE9F84F 		push	{r3, r4, r5, r6, r7, r8, r9, r10, fp, lr}
 1006              		.cfi_def_cfa_offset 40
 1007              		.cfi_offset 3, -40
 1008              		.cfi_offset 4, -36
 1009              		.cfi_offset 5, -32
 1010              		.cfi_offset 6, -28
 1011              		.cfi_offset 7, -24
 1012              		.cfi_offset 8, -20
 1013              		.cfi_offset 9, -16
 1014              		.cfi_offset 10, -12
 1015              		.cfi_offset 11, -8
 1016              		.cfi_offset 14, -4
 328:.\main.c      ****         GUI_SetColor(LIGHTGRAY); // Show two inactive  
 1017              		.loc 1 328 0
 1018 0004 2C4B     		ldr	r3, .L70
 1019 0006 1B68     		ldr	r3, [r3]
 1020 0008 002B     		cmp	r3, #0
 1021 000a 53D0     		beq	.L67
 329:.\main.c      ****         
 1022              		.loc 1 329 0
 1023 000c 2B48     		ldr	r0, .L70+4
 1024 000e FFF7FEFF 		bl	GUI_SetColor
 1025              	.LVL88:
 331:.\main.c      ****         GUI_DispStringInRectWrap(drinks[menu_indices[clean_number(drink_scroll-1, menu_length)]]->n
 1026              		.loc 1 331 0
 1027 0012 DFF8BC80 		ldr	r8, .L70+24
 1028 0016 2A4C     		ldr	r4, .L70+8
 1029 0018 4046     		mov	r0, r8
 1030 001a 2146     		mov	r1, r4
 1031 001c 0E22     		movs	r2, #14
 1032 001e 0123     		movs	r3, #1
 1033 0020 FFF7FEFF 		bl	GUI_DispStringInRectWrap
 1034              	.LVL89:
 332:.\main.c      ****         
 1035              		.loc 1 332 0
 1036 0024 274D     		ldr	r5, .L70+12
 1037 0026 D5F800A0 		ldr	r10, [r5]
ARM GAS  C:\Users\mark6\AppData\Local\Temp\ccm1Ykfm.s 			page 28


 1038 002a 274F     		ldr	r7, .L70+16
 1039 002c D7F800B0 		ldr	fp, [r7]
 1040 0030 264E     		ldr	r6, .L70+20
 1041 0032 B068     		ldr	r0, [r6, #8]
 1042 0034 DFF88090 		ldr	r9, .L70
 1043 0038 0138     		subs	r0, r0, #1
 1044 003a D9F80010 		ldr	r1, [r9]
 1045 003e FFF7FEFF 		bl	clean_number
 1046              	.LVL90:
 1047 0042 1BF80030 		ldrb	r3, [fp, r0]	@ zero_extendqisi2
 1048 0046 5AF82300 		ldr	r0, [r10, r3, lsl #2]
 1049 004a 2146     		mov	r1, r4
 1050 004c 0E22     		movs	r2, #14
 1051 004e 0123     		movs	r3, #1
 1052 0050 FFF7FEFF 		bl	GUI_DispStringInRectWrap
 1053              	.LVL91:
 334:.\main.c      ****         GUI_DispStringInRectWrap(drinks[menu_indices[clean_number(drink_scroll+1, menu_length)]]->n
 1054              		.loc 1 334 0
 1055 0054 103C     		subs	r4, r4, #16
 1056 0056 4046     		mov	r0, r8
 1057 0058 2146     		mov	r1, r4
 1058 005a 0E22     		movs	r2, #14
 1059 005c 0123     		movs	r3, #1
 1060 005e FFF7FEFF 		bl	GUI_DispStringInRectWrap
 1061              	.LVL92:
 335:.\main.c      ****         
 1062              		.loc 1 335 0
 1063 0062 D5F800A0 		ldr	r10, [r5]
 1064 0066 D7F800B0 		ldr	fp, [r7]
 1065 006a B068     		ldr	r0, [r6, #8]
 1066 006c 0130     		adds	r0, r0, #1
 1067 006e D9F80010 		ldr	r1, [r9]
 1068 0072 FFF7FEFF 		bl	clean_number
 1069              	.LVL93:
 1070 0076 1BF80030 		ldrb	r3, [fp, r0]	@ zero_extendqisi2
 1071 007a 5AF82300 		ldr	r0, [r10, r3, lsl #2]
 1072 007e 2146     		mov	r1, r4
 1073 0080 0E22     		movs	r2, #14
 1074 0082 0123     		movs	r3, #1
 1075 0084 FFF7FEFF 		bl	GUI_DispStringInRectWrap
 1076              	.LVL94:
 337:.\main.c      ****         
 1077              		.loc 1 337 0
 1078 0088 6FF07F40 		mvn	r0, #-16777216
 1079 008c FFF7FEFF 		bl	GUI_SetColor
 1080              	.LVL95:
 339:.\main.c      ****         GUI_DispStringInRectWrap(drinks[menu_indices[drink_scroll]]->name, &dispenser_rects[1], GUI
 1081              		.loc 1 339 0
 1082 0090 0834     		adds	r4, r4, #8
 1083 0092 4046     		mov	r0, r8
 1084 0094 2146     		mov	r1, r4
 1085 0096 0E22     		movs	r2, #14
 1086 0098 0123     		movs	r3, #1
 1087 009a FFF7FEFF 		bl	GUI_DispStringInRectWrap
 1088              	.LVL96:
 340:.\main.c      ****     }
 1089              		.loc 1 340 0
ARM GAS  C:\Users\mark6\AppData\Local\Temp\ccm1Ykfm.s 			page 29


 1090 009e 3A68     		ldr	r2, [r7]
 1091 00a0 B368     		ldr	r3, [r6, #8]
 1092 00a2 D25C     		ldrb	r2, [r2, r3]	@ zero_extendqisi2
 1093 00a4 2B68     		ldr	r3, [r5]
 1094 00a6 53F82200 		ldr	r0, [r3, r2, lsl #2]
 1095 00aa 2146     		mov	r1, r4
 1096 00ac 0E22     		movs	r2, #14
 1097 00ae 0123     		movs	r3, #1
 1098 00b0 FFF7FEFF 		bl	GUI_DispStringInRectWrap
 1099              	.LVL97:
 1100              	.L67:
 1101 00b4 BDE8F88F 		pop	{r3, r4, r5, r6, r7, r8, r9, r10, fp, pc}
 1102              	.L71:
 1103              		.align	2
 1104              	.L70:
 1105 00b8 00000000 		.word	.LANCHOR1
 1106 00bc D3D3D300 		.word	13882323
 1107 00c0 10000000 		.word	dispenser_rects+16
 1108 00c4 00000000 		.word	drinks
 1109 00c8 00000000 		.word	menu_indices
 1110 00cc 00000000 		.word	.LANCHOR0
 1111 00d0 48000000 		.word	.LC3
 1112              		.cfi_endproc
 1113              	.LFE76:
 1114              		.size	update_dispenser_text, .-update_dispenser_text
 1115              		.section	.text.display_dispenser,"ax",%progbits
 1116              		.align	2
 1117              		.global	display_dispenser
 1118              		.thumb
 1119              		.thumb_func
 1120              		.type	display_dispenser, %function
 1121              	display_dispenser:
 1122              	.LFB77:
 344:.\main.c      ****     current_display = DISPLAY;
 1123              		.loc 1 344 0
 1124              		.cfi_startproc
 1125              		@ args = 0, pretend = 0, frame = 8
 1126              		@ frame_needed = 0, uses_anonymous_args = 0
 1127 0000 10B5     		push	{r4, lr}
 1128              		.cfi_def_cfa_offset 8
 1129              		.cfi_offset 4, -8
 1130              		.cfi_offset 14, -4
 1131 0002 82B0     		sub	sp, sp, #8
 1132              		.cfi_def_cfa_offset 16
 345:.\main.c      ****     generate_menu();
 1133              		.loc 1 345 0
 1134 0004 0122     		movs	r2, #1
 1135 0006 384B     		ldr	r3, .L76
 1136 0008 1A70     		strb	r2, [r3]
 346:.\main.c      ****     GUI_Clear();
 1137              		.loc 1 346 0
 1138 000a FFF7FEFF 		bl	generate_menu
 1139              	.LVL98:
 347:.\main.c      ****     if (menu_length == 0) {
 1140              		.loc 1 347 0
 1141 000e FFF7FEFF 		bl	GUI_Clear
 1142              	.LVL99:
ARM GAS  C:\Users\mark6\AppData\Local\Temp\ccm1Ykfm.s 			page 30


 348:.\main.c      ****         GUI_DispStringInRectWrap("Mork or Chungie, set this bitch up", &dispenser_rects[1], GUI_TA_
 1143              		.loc 1 348 0
 1144 0012 364B     		ldr	r3, .L76+4
 1145 0014 1B68     		ldr	r3, [r3]
 1146 0016 33B9     		cbnz	r3, .L73
 349:.\main.c      ****     } else {
 1147              		.loc 1 349 0
 1148 0018 3548     		ldr	r0, .L76+8
 1149 001a 3649     		ldr	r1, .L76+12
 1150 001c 0E22     		movs	r2, #14
 1151 001e 0123     		movs	r3, #1
 1152 0020 FFF7FEFF 		bl	GUI_DispStringInRectWrap
 1153              	.LVL100:
 1154 0024 5EE0     		b	.L72
 1155              	.L73:
 1156              	.LBB10:
 352:.\main.c      ****     GUI_FillCircle(20, SCREEN_Y/2, 10); // Submit Symbol
 1157              		.loc 1 352 0
 1158 0026 6FF07F40 		mvn	r0, #-16777216
 1159 002a FFF7FEFF 		bl	GUI_SetColor
 1160              	.LVL101:
 353:.\main.c      ****     GUI_SetColor(GREEN);
 1161              		.loc 1 353 0
 1162 002e 1420     		movs	r0, #20
 1163 0030 7821     		movs	r1, #120
 1164 0032 0A22     		movs	r2, #10
 1165 0034 FFF7FEFF 		bl	GUI_FillCircle
 1166              	.LVL102:
 354:.\main.c      ****     GUI_FillCircle(20, SCREEN_Y/2, 5);
 1167              		.loc 1 354 0
 1168 0038 4FF47F40 		mov	r0, #65280
 1169 003c FFF7FEFF 		bl	GUI_SetColor
 1170              	.LVL103:
 355:.\main.c      ****     GUI_SetColor(WHITE);
 1171              		.loc 1 355 0
 1172 0040 1420     		movs	r0, #20
 1173 0042 7821     		movs	r1, #120
 1174 0044 0522     		movs	r2, #5
 1175 0046 FFF7FEFF 		bl	GUI_FillCircle
 1176              	.LVL104:
 356:.\main.c      ****     GUI_FillPolygon(UpArrowPoints, GUI_COUNTOF(UpArrowPoints), 280, 40);
 1177              		.loc 1 356 0
 1178 004a 6FF07F40 		mvn	r0, #-16777216
 1179 004e FFF7FEFF 		bl	GUI_SetColor
 1180              	.LVL105:
 357:.\main.c      ****     GUI_FillPolygon(DownArrowPoints, GUI_COUNTOF(DownArrowPoints), 280, 180);
 1181              		.loc 1 357 0
 1182 0052 294C     		ldr	r4, .L76+16
 1183 0054 2046     		mov	r0, r4
 1184 0056 0321     		movs	r1, #3
 1185 0058 4FF48C72 		mov	r2, #280
 1186 005c 2823     		movs	r3, #40
 1187 005e FFF7FEFF 		bl	GUI_FillPolygon
 1188              	.LVL106:
 358:.\main.c      ****     GUI_RECT rect = dispenser_rects[SHOWN_DRINKS];
 1189              		.loc 1 358 0
 1190 0062 04F10C00 		add	r0, r4, #12
ARM GAS  C:\Users\mark6\AppData\Local\Temp\ccm1Ykfm.s 			page 31


 1191 0066 0321     		movs	r1, #3
 1192 0068 4FF48C72 		mov	r2, #280
 1193 006c B423     		movs	r3, #180
 1194 006e FFF7FEFF 		bl	GUI_FillPolygon
 1195              	.LVL107:
 359:.\main.c      ****     GUI_DispStringInRectWrap("Welcome to Mork and Chungus's Bar Bot!", &rect, GUI_TA_HCENTER | GUI_
 1196              		.loc 1 359 0
 1197 0072 224C     		ldr	r4, .L76+20
 1198 0074 6B46     		mov	r3, sp
 1199 0076 2246     		mov	r2, r4
 1200 0078 52F8180F 		ldr	r0, [r2, #24]!	@ unaligned
 1201 007c 5168     		ldr	r1, [r2, #4]	@ unaligned
 1202 007e 03C3     		stmia	r3!, {r0, r1}
 360:.\main.c      ****     rect = dispenser_rects[1];
 1203              		.loc 1 360 0
 1204 0080 1F48     		ldr	r0, .L76+24
 1205 0082 6946     		mov	r1, sp
 1206 0084 0E22     		movs	r2, #14
 1207 0086 0123     		movs	r3, #1
 1208 0088 FFF7FEFF 		bl	GUI_DispStringInRectWrap
 1209              	.LVL108:
 361:.\main.c      ****     // Top Line
 1210              		.loc 1 361 0
 1211 008c 6B46     		mov	r3, sp
 1212 008e 2246     		mov	r2, r4
 1213 0090 52F8080F 		ldr	r0, [r2, #8]!	@ unaligned
 1214 0094 5168     		ldr	r1, [r2, #4]	@ unaligned
 1215 0096 03C3     		stmia	r3!, {r0, r1}
 363:.\main.c      ****     // Left Line
 1216              		.loc 1 363 0
 1217 0098 BDF90230 		ldrsh	r3, [sp, #2]
 1218 009c BDF90000 		ldrsh	r0, [sp]
 1219 00a0 1946     		mov	r1, r3
 1220 00a2 BDF90420 		ldrsh	r2, [sp, #4]
 1221 00a6 FFF7FEFF 		bl	GUI_DrawLine
 1222              	.LVL109:
 365:.\main.c      ****     // Right Line
 1223              		.loc 1 365 0
 1224 00aa BDF90020 		ldrsh	r2, [sp]
 1225 00ae 1046     		mov	r0, r2
 1226 00b0 BDF90210 		ldrsh	r1, [sp, #2]
 1227 00b4 BDF90630 		ldrsh	r3, [sp, #6]
 1228 00b8 FFF7FEFF 		bl	GUI_DrawLine
 1229              	.LVL110:
 367:.\main.c      ****     // Bottom Line
 1230              		.loc 1 367 0
 1231 00bc BDF90420 		ldrsh	r2, [sp, #4]
 1232 00c0 1046     		mov	r0, r2
 1233 00c2 BDF90210 		ldrsh	r1, [sp, #2]
 1234 00c6 BDF90630 		ldrsh	r3, [sp, #6]
 1235 00ca FFF7FEFF 		bl	GUI_DrawLine
 1236              	.LVL111:
 369:.\main.c      ****     update_dispenser_text();
 1237              		.loc 1 369 0
 1238 00ce BDF90630 		ldrsh	r3, [sp, #6]
 1239 00d2 BDF90000 		ldrsh	r0, [sp]
 1240 00d6 1946     		mov	r1, r3
ARM GAS  C:\Users\mark6\AppData\Local\Temp\ccm1Ykfm.s 			page 32


 1241 00d8 BDF90420 		ldrsh	r2, [sp, #4]
 1242 00dc FFF7FEFF 		bl	GUI_DrawLine
 1243              	.LVL112:
 370:.\main.c      ****     }
 1244              		.loc 1 370 0
 1245 00e0 FFF7FEFF 		bl	update_dispenser_text
 1246              	.LVL113:
 1247              	.L72:
 1248              	.LBE10:
 372:.\main.c      **** 
 1249              		.loc 1 372 0
 1250 00e4 02B0     		add	sp, sp, #8
 1251              		.cfi_def_cfa_offset 8
 1252              		@ sp needed
 1253 00e6 10BD     		pop	{r4, pc}
 1254              	.L77:
 1255              		.align	2
 1256              	.L76:
 1257 00e8 00000000 		.word	current_display
 1258 00ec 00000000 		.word	.LANCHOR1
 1259 00f0 5C000000 		.word	.LC4
 1260 00f4 08000000 		.word	dispenser_rects+8
 1261 00f8 00000000 		.word	.LANCHOR2
 1262 00fc 00000000 		.word	dispenser_rects
 1263 0100 80000000 		.word	.LC5
 1264              		.cfi_endproc
 1265              	.LFE77:
 1266              		.size	display_dispenser, .-display_dispenser
 1267              		.section	.text.MainTask,"ax",%progbits
 1268              		.align	2
 1269              		.global	MainTask
 1270              		.thumb
 1271              		.thumb_func
 1272              		.type	MainTask, %function
 1273              	MainTask:
 1274              	.LFB67:
 228:.\main.c      ****     GUI_Init();                             // initilize graphics library
 1275              		.loc 1 228 0
 1276              		.cfi_startproc
 1277              		@ args = 0, pretend = 0, frame = 0
 1278              		@ frame_needed = 0, uses_anonymous_args = 0
 1279 0000 08B5     		push	{r3, lr}
 1280              		.cfi_def_cfa_offset 8
 1281              		.cfi_offset 3, -8
 1282              		.cfi_offset 14, -4
 229:.\main.c      ****     //GUI_SetOrientation(GUI_SWAP_XY | GUI_MIRROR_X);
 1283              		.loc 1 229 0
 1284 0002 FFF7FEFF 		bl	GUI_Init
 1285              	.LVL114:
 231:.\main.c      ****     create_config_rects();
 1286              		.loc 1 231 0
 1287 0006 0E20     		movs	r0, #14
 1288 0008 FFF7FEFF 		bl	GUI_SetTextAlign
 1289              	.LVL115:
 232:.\main.c      ****     create_dispenser_rects();
 1290              		.loc 1 232 0
 1291 000c FFF7FEFF 		bl	create_config_rects
ARM GAS  C:\Users\mark6\AppData\Local\Temp\ccm1Ykfm.s 			page 33


 1292              	.LVL116:
 233:.\main.c      ****     GUI_Clear();
 1293              		.loc 1 233 0
 1294 0010 FFF7FEFF 		bl	create_dispenser_rects
 1295              	.LVL117:
 234:.\main.c      ****     GUI_SetFont(&GUI_Font8x16);
 1296              		.loc 1 234 0
 1297 0014 FFF7FEFF 		bl	GUI_Clear
 1298              	.LVL118:
 235:.\main.c      ****     display_dispenser();
 1299              		.loc 1 235 0
 1300 0018 0248     		ldr	r0, .L80
 1301 001a FFF7FEFF 		bl	GUI_SetFont
 1302              	.LVL119:
 236:.\main.c      **** 
 1303              		.loc 1 236 0
 1304 001e FFF7FEFF 		bl	display_dispenser
 1305              	.LVL120:
 1306 0022 08BD     		pop	{r3, pc}
 1307              	.L81:
 1308              		.align	2
 1309              	.L80:
 1310 0024 00000000 		.word	GUI_Font8x16
 1311              		.cfi_endproc
 1312              	.LFE67:
 1313              		.size	MainTask, .-MainTask
 1314              		.section	.text.main,"ax",%progbits
 1315              		.align	2
 1316              		.global	main
 1317              		.thumb
 1318              		.thumb_func
 1319              		.type	main, %function
 1320              	main:
 1321              	.LFB66:
 204:.\main.c      ****     CyGlobalIntEnable; /* Enable global interrupts. */
 1322              		.loc 1 204 0
 1323              		.cfi_startproc
 1324              		@ args = 0, pretend = 0, frame = 0
 1325              		@ frame_needed = 0, uses_anonymous_args = 0
 1326 0000 08B5     		push	{r3, lr}
 1327              		.cfi_def_cfa_offset 8
 1328              		.cfi_offset 3, -8
 1329              		.cfi_offset 14, -4
 205:.\main.c      ****     SPIM_1_Start();
 1330              		.loc 1 205 0
 1331              	@ 205 ".\main.c" 1
 1332 0002 62B6     		CPSIE   i
 1333              	@ 0 "" 2
 206:.\main.c      ****     Em_EEPROM_Start();
 1334              		.loc 1 206 0
 1335              		.thumb
 1336 0004 FFF7FEFF 		bl	SPIM_1_Start
 1337              	.LVL121:
 207:.\main.c      ****     uint8 eeprom_i = 0;
 1338              		.loc 1 207 0
 1339 0008 FFF7FEFF 		bl	Em_EEPROM_Start
 1340              	.LVL122:
ARM GAS  C:\Users\mark6\AppData\Local\Temp\ccm1Ykfm.s 			page 34


 209:.\main.c      ****         if (eeprom_config_data[eeprom_i] != 255) {
 1341              		.loc 1 209 0
 1342 000c 0023     		movs	r3, #0
 1343 000e 08E0     		b	.L83
 1344              	.LVL123:
 1345              	.L85:
 210:.\main.c      ****             config_data[eeprom_i] = eeprom_config_data[eeprom_i];
 1346              		.loc 1 210 0
 1347 0010 104A     		ldr	r2, .L88
 1348 0012 1A44     		add	r2, r2, r3
 1349 0014 127E     		ldrb	r2, [r2, #24]	@ zero_extendqisi2
 1350 0016 FF2A     		cmp	r2, #255
 1351 0018 01D0     		beq	.L84
 211:.\main.c      ****         }
 1352              		.loc 1 211 0
 1353 001a 0F49     		ldr	r1, .L88+4
 1354 001c CA54     		strb	r2, [r1, r3]
 1355              	.L84:
 209:.\main.c      ****         if (eeprom_config_data[eeprom_i] != 255) {
 1356              		.loc 1 209 0 discriminator 2
 1357 001e 0133     		adds	r3, r3, #1
 1358              	.LVL124:
 1359 0020 DBB2     		uxtb	r3, r3
 1360              	.LVL125:
 1361              	.L83:
 209:.\main.c      ****         if (eeprom_config_data[eeprom_i] != 255) {
 1362              		.loc 1 209 0 is_stmt 0 discriminator 1
 1363 0022 052B     		cmp	r3, #5
 1364 0024 F4D9     		bls	.L85
 215:.\main.c      ****     drinks = generate_drinks();
 1365              		.loc 1 215 0 is_stmt 1
 1366 0026 0D4B     		ldr	r3, .L88+8
 1367              	.LVL126:
 1368 0028 1868     		ldr	r0, [r3]
 1369 002a FFF7FEFF 		bl	malloc
 1370              	.LVL127:
 1371 002e 0C4B     		ldr	r3, .L88+12
 1372 0030 1860     		str	r0, [r3]
 216:.\main.c      ****     Submit_Int_StartEx( Submit_Button_Handler );
 1373              		.loc 1 216 0
 1374 0032 FFF7FEFF 		bl	generate_drinks
 1375              	.LVL128:
 1376 0036 0B4B     		ldr	r3, .L88+16
 1377 0038 1860     		str	r0, [r3]
 217:.\main.c      ****     Up_Int_StartEx( Up_Button_Handler );
 1378              		.loc 1 217 0
 1379 003a 0B48     		ldr	r0, .L88+20
 1380 003c FFF7FEFF 		bl	Submit_Int_StartEx
 1381              	.LVL129:
 218:.\main.c      ****     Down_Int_StartEx( Down_Button_Handler );
 1382              		.loc 1 218 0
 1383 0040 0A48     		ldr	r0, .L88+24
 1384 0042 FFF7FEFF 		bl	Up_Int_StartEx
 1385              	.LVL130:
 219:.\main.c      ****     
 1386              		.loc 1 219 0
 1387 0046 0A48     		ldr	r0, .L88+28
ARM GAS  C:\Users\mark6\AppData\Local\Temp\ccm1Ykfm.s 			page 35


 1388 0048 FFF7FEFF 		bl	Down_Int_StartEx
 1389              	.LVL131:
 221:.\main.c      ****     for(;;)
 1390              		.loc 1 221 0
 1391 004c FFF7FEFF 		bl	MainTask
 1392              	.LVL132:
 1393              	.L86:
 225:.\main.c      **** }
 1394              		.loc 1 225 0 discriminator 1
 1395 0050 FEE7     		b	.L86
 1396              	.L89:
 1397 0052 00BF     		.align	2
 1398              	.L88:
 1399 0054 00000000 		.word	.LANCHOR2
 1400 0058 00000000 		.word	.LANCHOR0
 1401 005c 00000000 		.word	NUM_DRINKS
 1402 0060 00000000 		.word	menu_indices
 1403 0064 00000000 		.word	drinks
 1404 0068 00000000 		.word	Submit_Button_Handler
 1405 006c 00000000 		.word	Up_Button_Handler
 1406 0070 00000000 		.word	Down_Button_Handler
 1407              		.cfi_endproc
 1408              	.LFE66:
 1409              		.size	main, .-main
 1410              		.section	.text.Down_Button_Handler,"ax",%progbits
 1411              		.align	2
 1412              		.global	Down_Button_Handler
 1413              		.thumb
 1414              		.thumb_func
 1415              		.type	Down_Button_Handler, %function
 1416              	Down_Button_Handler:
 1417              	.LFB63:
 109:.\main.c      **** 
 1418              		.loc 1 109 0
 1419              		.cfi_startproc
 1420              		@ args = 0, pretend = 0, frame = 0
 1421              		@ frame_needed = 0, uses_anonymous_args = 0
 1422 0000 70B5     		push	{r4, r5, r6, lr}
 1423              		.cfi_def_cfa_offset 16
 1424              		.cfi_offset 4, -16
 1425              		.cfi_offset 5, -12
 1426              		.cfi_offset 6, -8
 1427              		.cfi_offset 14, -4
 111:.\main.c      ****         int old_motor = motor_scroll;
 1428              		.loc 1 111 0
 1429 0002 2B4B     		ldr	r3, .L97
 1430 0004 1B78     		ldrb	r3, [r3]	@ zero_extendqisi2
 1431 0006 43BB     		cbnz	r3, .L91
 1432              	.LBB11:
 112:.\main.c      ****         motor_scroll--;
 1433              		.loc 1 112 0
 1434 0008 2A4D     		ldr	r5, .L97+4
 1435 000a EC68     		ldr	r4, [r5, #12]
 1436              	.LVL133:
 114:.\main.c      ****         if (motor_scroll == MOTOR_COUNT) {
 1437              		.loc 1 114 0
 1438 000c 601E     		subs	r0, r4, #1
ARM GAS  C:\Users\mark6\AppData\Local\Temp\ccm1Ykfm.s 			page 36


 1439 000e 0721     		movs	r1, #7
 1440 0010 FFF7FEFF 		bl	clean_number
 1441              	.LVL134:
 1442 0014 E860     		str	r0, [r5, #12]
 115:.\main.c      ****             redraw_config_text("Clean Tubing", 7, BABYBLUE);
 1443              		.loc 1 115 0
 1444 0016 0628     		cmp	r0, #6
 1445 0018 0BD1     		bne	.L92
 116:.\main.c      ****             draw_active_config(old_motor, old_motor, WHITE); // clear the old motor still
 1446              		.loc 1 116 0
 1447 001a 2748     		ldr	r0, .L97+8
 1448 001c 0721     		movs	r1, #7
 1449 001e 274A     		ldr	r2, .L97+12
 1450 0020 FFF7FEFF 		bl	redraw_config_text
 1451              	.LVL135:
 117:.\main.c      ****         } else if (old_motor == MOTOR_COUNT) {
 1452              		.loc 1 117 0
 1453 0024 2046     		mov	r0, r4
 1454 0026 2146     		mov	r1, r4
 1455 0028 6FF07F42 		mvn	r2, #-16777216
 1456 002c FFF7FEFF 		bl	draw_active_config
 1457              	.LVL136:
 1458 0030 38E0     		b	.L93
 1459              	.L92:
 118:.\main.c      ****             redraw_config_text("Clean Tubing", 7, WHITE);
 1460              		.loc 1 118 0
 1461 0032 062C     		cmp	r4, #6
 1462 0034 0CD1     		bne	.L94
 119:.\main.c      ****             draw_active_config(motor_scroll, motor_scroll, PINK);
 1463              		.loc 1 119 0
 1464 0036 2048     		ldr	r0, .L97+8
 1465 0038 0721     		movs	r1, #7
 1466 003a 6FF07F42 		mvn	r2, #-16777216
 1467 003e FFF7FEFF 		bl	redraw_config_text
 1468              	.LVL137:
 120:.\main.c      ****         } else {
 1469              		.loc 1 120 0
 1470 0042 1C4B     		ldr	r3, .L97+4
 1471 0044 D968     		ldr	r1, [r3, #12]
 1472 0046 0846     		mov	r0, r1
 1473 0048 1D4A     		ldr	r2, .L97+16
 1474 004a FFF7FEFF 		bl	draw_active_config
 1475              	.LVL138:
 1476 004e 29E0     		b	.L93
 1477              	.L94:
 122:.\main.c      ****         }
 1478              		.loc 1 122 0
 1479 0050 2146     		mov	r1, r4
 1480 0052 1B4A     		ldr	r2, .L97+16
 1481 0054 FFF7FEFF 		bl	draw_active_config
 1482              	.LVL139:
 1483 0058 24E0     		b	.L93
 1484              	.LVL140:
 1485              	.L91:
 1486              	.LBE11:
 124:.\main.c      ****         redraw_config_text(Liquids[mixie_scroll], motor_scroll, BLACK);
 1487              		.loc 1 124 0
ARM GAS  C:\Users\mark6\AppData\Local\Temp\ccm1Ykfm.s 			page 37


 1488 005a 022B     		cmp	r3, #2
 1489 005c 16D1     		bne	.L95
 125:.\main.c      ****         mixie_scroll--;
 1490              		.loc 1 125 0
 1491 005e 154C     		ldr	r4, .L97+4
 1492 0060 2069     		ldr	r0, [r4, #16]
 1493 0062 3226     		movs	r6, #50
 1494 0064 174D     		ldr	r5, .L97+20
 1495 0066 06FB0050 		mla	r0, r6, r0, r5
 1496 006a E168     		ldr	r1, [r4, #12]
 1497 006c 0022     		movs	r2, #0
 1498 006e FFF7FEFF 		bl	redraw_config_text
 1499              	.LVL141:
 126:.\main.c      ****         mixie_scroll = clean_number(mixie_scroll, NUM_MIXIES);
 1500              		.loc 1 126 0
 1501 0072 2069     		ldr	r0, [r4, #16]
 127:.\main.c      ****         redraw_config_text(Liquids[mixie_scroll], motor_scroll, ORANGE);
 1502              		.loc 1 127 0
 1503 0074 0138     		subs	r0, r0, #1
 1504 0076 2721     		movs	r1, #39
 1505 0078 FFF7FEFF 		bl	clean_number
 1506              	.LVL142:
 1507 007c 2061     		str	r0, [r4, #16]
 128:.\main.c      ****     } 
 1508              		.loc 1 128 0
 1509 007e 06FB0050 		mla	r0, r6, r0, r5
 1510 0082 E168     		ldr	r1, [r4, #12]
 1511 0084 104A     		ldr	r2, .L97+24
 1512 0086 FFF7FEFF 		bl	redraw_config_text
 1513              	.LVL143:
 1514 008a 0BE0     		b	.L93
 1515              	.L95:
 130:.\main.c      ****         drink_scroll--;
 1516              		.loc 1 130 0
 1517 008c 012B     		cmp	r3, #1
 1518 008e 09D1     		bne	.L93
 131:.\main.c      ****         drink_scroll = clean_number(drink_scroll, menu_length);
 1519              		.loc 1 131 0
 1520 0090 084C     		ldr	r4, .L97+4
 1521 0092 A068     		ldr	r0, [r4, #8]
 132:.\main.c      ****         update_dispenser_text();
 1522              		.loc 1 132 0
 1523 0094 0138     		subs	r0, r0, #1
 1524 0096 0D4B     		ldr	r3, .L97+28
 1525 0098 1968     		ldr	r1, [r3]
 1526 009a FFF7FEFF 		bl	clean_number
 1527              	.LVL144:
 1528 009e A060     		str	r0, [r4, #8]
 133:.\main.c      ****     }
 1529              		.loc 1 133 0
 1530 00a0 FFF7FEFF 		bl	update_dispenser_text
 1531              	.LVL145:
 1532              	.L93:
 135:.\main.c      **** }
 1533              		.loc 1 135 0
 1534 00a4 0A48     		ldr	r0, .L97+32
 1535 00a6 0121     		movs	r1, #1
ARM GAS  C:\Users\mark6\AppData\Local\Temp\ccm1Ykfm.s 			page 38


 1536 00a8 0822     		movs	r2, #8
 1537 00aa FFF7FEFF 		bl	push_to_list
 1538              	.LVL146:
 1539 00ae 70BD     		pop	{r4, r5, r6, pc}
 1540              	.L98:
 1541              		.align	2
 1542              	.L97:
 1543 00b0 00000000 		.word	current_display
 1544 00b4 00000000 		.word	.LANCHOR0
 1545 00b8 38000000 		.word	.LC2
 1546 00bc F8FC0300 		.word	261368
 1547 00c0 E370F600 		.word	16150755
 1548 00c4 00000000 		.word	Liquids
 1549 00c8 3399FF00 		.word	16750899
 1550 00cc 00000000 		.word	.LANCHOR1
 1551 00d0 14000000 		.word	.LANCHOR0+20
 1552              		.cfi_endproc
 1553              	.LFE63:
 1554              		.size	Down_Button_Handler, .-Down_Button_Handler
 1555              		.section	.text.Up_Button_Handler,"ax",%progbits
 1556              		.align	2
 1557              		.global	Up_Button_Handler
 1558              		.thumb
 1559              		.thumb_func
 1560              		.type	Up_Button_Handler, %function
 1561              	Up_Button_Handler:
 1562              	.LFB64:
 138:.\main.c      ****     if (current_display == CONFIG) {
 1563              		.loc 1 138 0
 1564              		.cfi_startproc
 1565              		@ args = 0, pretend = 0, frame = 0
 1566              		@ frame_needed = 0, uses_anonymous_args = 0
 1567 0000 70B5     		push	{r4, r5, r6, lr}
 1568              		.cfi_def_cfa_offset 16
 1569              		.cfi_offset 4, -16
 1570              		.cfi_offset 5, -12
 1571              		.cfi_offset 6, -8
 1572              		.cfi_offset 14, -4
 139:.\main.c      ****         int old_motor = motor_scroll;
 1573              		.loc 1 139 0
 1574 0002 2B4B     		ldr	r3, .L106
 1575 0004 1B78     		ldrb	r3, [r3]	@ zero_extendqisi2
 1576 0006 43BB     		cbnz	r3, .L100
 1577              	.LBB12:
 140:.\main.c      ****         motor_scroll++;
 1578              		.loc 1 140 0
 1579 0008 2A4D     		ldr	r5, .L106+4
 1580 000a EC68     		ldr	r4, [r5, #12]
 1581              	.LVL147:
 142:.\main.c      ****         if (motor_scroll == MOTOR_COUNT) {
 1582              		.loc 1 142 0
 1583 000c 601C     		adds	r0, r4, #1
 1584 000e 0721     		movs	r1, #7
 1585 0010 FFF7FEFF 		bl	clean_number
 1586              	.LVL148:
 1587 0014 E860     		str	r0, [r5, #12]
 143:.\main.c      ****             redraw_config_text("Clean Tubing", 7, BABYBLUE);
ARM GAS  C:\Users\mark6\AppData\Local\Temp\ccm1Ykfm.s 			page 39


 1588              		.loc 1 143 0
 1589 0016 0628     		cmp	r0, #6
 1590 0018 0BD1     		bne	.L101
 144:.\main.c      ****             draw_active_config(old_motor, old_motor, WHITE); // clear the old motor still
 1591              		.loc 1 144 0
 1592 001a 2748     		ldr	r0, .L106+8
 1593 001c 0721     		movs	r1, #7
 1594 001e 274A     		ldr	r2, .L106+12
 1595 0020 FFF7FEFF 		bl	redraw_config_text
 1596              	.LVL149:
 145:.\main.c      ****         } else if (old_motor == MOTOR_COUNT) {
 1597              		.loc 1 145 0
 1598 0024 2046     		mov	r0, r4
 1599 0026 2146     		mov	r1, r4
 1600 0028 6FF07F42 		mvn	r2, #-16777216
 1601 002c FFF7FEFF 		bl	draw_active_config
 1602              	.LVL150:
 1603 0030 38E0     		b	.L102
 1604              	.L101:
 146:.\main.c      ****             redraw_config_text("Clean Tubing", 7, WHITE);
 1605              		.loc 1 146 0
 1606 0032 062C     		cmp	r4, #6
 1607 0034 0CD1     		bne	.L103
 147:.\main.c      ****             draw_active_config(motor_scroll, motor_scroll, PINK);
 1608              		.loc 1 147 0
 1609 0036 2048     		ldr	r0, .L106+8
 1610 0038 0721     		movs	r1, #7
 1611 003a 6FF07F42 		mvn	r2, #-16777216
 1612 003e FFF7FEFF 		bl	redraw_config_text
 1613              	.LVL151:
 148:.\main.c      ****         } else {
 1614              		.loc 1 148 0
 1615 0042 1C4B     		ldr	r3, .L106+4
 1616 0044 D968     		ldr	r1, [r3, #12]
 1617 0046 0846     		mov	r0, r1
 1618 0048 1D4A     		ldr	r2, .L106+16
 1619 004a FFF7FEFF 		bl	draw_active_config
 1620              	.LVL152:
 1621 004e 29E0     		b	.L102
 1622              	.L103:
 150:.\main.c      ****         }
 1623              		.loc 1 150 0
 1624 0050 2146     		mov	r1, r4
 1625 0052 1B4A     		ldr	r2, .L106+16
 1626 0054 FFF7FEFF 		bl	draw_active_config
 1627              	.LVL153:
 1628 0058 24E0     		b	.L102
 1629              	.LVL154:
 1630              	.L100:
 1631              	.LBE12:
 152:.\main.c      ****         redraw_config_text(Liquids[mixie_scroll], motor_scroll, BLACK);
 1632              		.loc 1 152 0
 1633 005a 022B     		cmp	r3, #2
 1634 005c 16D1     		bne	.L104
 153:.\main.c      ****         mixie_scroll++;
 1635              		.loc 1 153 0
 1636 005e 154C     		ldr	r4, .L106+4
ARM GAS  C:\Users\mark6\AppData\Local\Temp\ccm1Ykfm.s 			page 40


 1637 0060 2069     		ldr	r0, [r4, #16]
 1638 0062 3226     		movs	r6, #50
 1639 0064 174D     		ldr	r5, .L106+20
 1640 0066 06FB0050 		mla	r0, r6, r0, r5
 1641 006a E168     		ldr	r1, [r4, #12]
 1642 006c 0022     		movs	r2, #0
 1643 006e FFF7FEFF 		bl	redraw_config_text
 1644              	.LVL155:
 154:.\main.c      ****         mixie_scroll = clean_number(mixie_scroll, NUM_MIXIES);
 1645              		.loc 1 154 0
 1646 0072 2069     		ldr	r0, [r4, #16]
 155:.\main.c      ****         redraw_config_text(Liquids[mixie_scroll], motor_scroll, ORANGE);
 1647              		.loc 1 155 0
 1648 0074 0130     		adds	r0, r0, #1
 1649 0076 2721     		movs	r1, #39
 1650 0078 FFF7FEFF 		bl	clean_number
 1651              	.LVL156:
 1652 007c 2061     		str	r0, [r4, #16]
 156:.\main.c      ****     } 
 1653              		.loc 1 156 0
 1654 007e 06FB0050 		mla	r0, r6, r0, r5
 1655 0082 E168     		ldr	r1, [r4, #12]
 1656 0084 104A     		ldr	r2, .L106+24
 1657 0086 FFF7FEFF 		bl	redraw_config_text
 1658              	.LVL157:
 1659 008a 0BE0     		b	.L102
 1660              	.L104:
 158:.\main.c      ****         drink_scroll++;
 1661              		.loc 1 158 0
 1662 008c 012B     		cmp	r3, #1
 1663 008e 09D1     		bne	.L102
 159:.\main.c      ****         drink_scroll = clean_number(drink_scroll, menu_length);
 1664              		.loc 1 159 0
 1665 0090 084C     		ldr	r4, .L106+4
 1666 0092 A068     		ldr	r0, [r4, #8]
 160:.\main.c      ****         update_dispenser_text();
 1667              		.loc 1 160 0
 1668 0094 0130     		adds	r0, r0, #1
 1669 0096 0D4B     		ldr	r3, .L106+28
 1670 0098 1968     		ldr	r1, [r3]
 1671 009a FFF7FEFF 		bl	clean_number
 1672              	.LVL158:
 1673 009e A060     		str	r0, [r4, #8]
 161:.\main.c      ****     }
 1674              		.loc 1 161 0
 1675 00a0 FFF7FEFF 		bl	update_dispenser_text
 1676              	.LVL159:
 1677              	.L102:
 163:.\main.c      **** }
 1678              		.loc 1 163 0
 1679 00a4 0A48     		ldr	r0, .L106+32
 1680 00a6 0021     		movs	r1, #0
 1681 00a8 0822     		movs	r2, #8
 1682 00aa FFF7FEFF 		bl	push_to_list
 1683              	.LVL160:
 1684 00ae 70BD     		pop	{r4, r5, r6, pc}
 1685              	.L107:
ARM GAS  C:\Users\mark6\AppData\Local\Temp\ccm1Ykfm.s 			page 41


 1686              		.align	2
 1687              	.L106:
 1688 00b0 00000000 		.word	current_display
 1689 00b4 00000000 		.word	.LANCHOR0
 1690 00b8 38000000 		.word	.LC2
 1691 00bc F8FC0300 		.word	261368
 1692 00c0 E370F600 		.word	16150755
 1693 00c4 00000000 		.word	Liquids
 1694 00c8 3399FF00 		.word	16750899
 1695 00cc 00000000 		.word	.LANCHOR1
 1696 00d0 14000000 		.word	.LANCHOR0+20
 1697              		.cfi_endproc
 1698              	.LFE64:
 1699              		.size	Up_Button_Handler, .-Up_Button_Handler
 1700              		.global	__aeabi_i2d
 1701              		.global	__aeabi_ddiv
 1702              		.global	__aeabi_dmul
 1703              		.global	__aeabi_d2iz
 1704              		.section	.text.ms_to_dispense,"ax",%progbits
 1705              		.align	2
 1706              		.global	ms_to_dispense
 1707              		.thumb
 1708              		.thumb_func
 1709              		.type	ms_to_dispense, %function
 1710              	ms_to_dispense:
 1711              	.LFB82:
 474:.\main.c      **** 
 475:.\main.c      **** int ms_to_dispense(int amount) {
 1712              		.loc 1 475 0
 1713              		.cfi_startproc
 1714              		@ args = 0, pretend = 0, frame = 0
 1715              		@ frame_needed = 0, uses_anonymous_args = 0
 1716              	.LVL161:
 1717 0000 08B5     		push	{r3, lr}
 1718              		.cfi_def_cfa_offset 8
 1719              		.cfi_offset 3, -8
 1720              		.cfi_offset 14, -4
 476:.\main.c      ****     return (amount / PUMP_RATE) * 60 * 1000;
 1721              		.loc 1 476 0
 1722 0002 FFF7FEFF 		bl	__aeabi_i2d
 1723              	.LVL162:
 1724 0006 0022     		movs	r2, #0
 1725 0008 064B     		ldr	r3, .L110
 1726 000a FFF7FEFF 		bl	__aeabi_ddiv
 1727              	.LVL163:
 1728 000e 0022     		movs	r2, #0
 1729 0010 054B     		ldr	r3, .L110+4
 1730 0012 FFF7FEFF 		bl	__aeabi_dmul
 1731              	.LVL164:
 1732 0016 0022     		movs	r2, #0
 1733 0018 044B     		ldr	r3, .L110+8
 1734 001a FFF7FEFF 		bl	__aeabi_dmul
 1735              	.LVL165:
 1736 001e FFF7FEFF 		bl	__aeabi_d2iz
 1737              	.LVL166:
 477:.\main.c      ****     
 478:.\main.c      **** }
ARM GAS  C:\Users\mark6\AppData\Local\Temp\ccm1Ykfm.s 			page 42


 1738              		.loc 1 478 0
 1739 0022 08BD     		pop	{r3, pc}
 1740              	.L111:
 1741              		.align	2
 1742              	.L110:
 1743 0024 00007940 		.word	1081671680
 1744 0028 00004E40 		.word	1078853632
 1745 002c 00408F40 		.word	1083129856
 1746              		.cfi_endproc
 1747              	.LFE82:
 1748              		.size	ms_to_dispense, .-ms_to_dispense
 1749              		.section	.text.comp,"ax",%progbits
 1750              		.align	2
 1751              		.global	comp
 1752              		.thumb
 1753              		.thumb_func
 1754              		.type	comp, %function
 1755              	comp:
 1756              	.LFB83:
 479:.\main.c      **** int comp (const void * elem1, const void * elem2) 
 480:.\main.c      **** {
 1757              		.loc 1 480 0
 1758              		.cfi_startproc
 1759              		@ args = 0, pretend = 0, frame = 0
 1760              		@ frame_needed = 0, uses_anonymous_args = 0
 1761              		@ link register save eliminated.
 1762              	.LVL167:
 481:.\main.c      ****     int f = *((int*)elem1);
 1763              		.loc 1 481 0
 1764 0000 0268     		ldr	r2, [r0]
 1765              	.LVL168:
 482:.\main.c      ****     int s = *((int*)elem2);
 1766              		.loc 1 482 0
 1767 0002 0B68     		ldr	r3, [r1]
 1768              	.LVL169:
 483:.\main.c      ****     if (f > s) return  1;
 1769              		.loc 1 483 0
 1770 0004 9A42     		cmp	r2, r3
 1771 0006 03DC     		bgt	.L114
 484:.\main.c      ****     if (f < s) return -1;
 1772              		.loc 1 484 0
 1773 0008 04DA     		bge	.L115
 1774 000a 4FF0FF30 		mov	r0, #-1
 1775              	.LVL170:
 1776 000e 7047     		bx	lr
 1777              	.LVL171:
 1778              	.L114:
 483:.\main.c      ****     if (f > s) return  1;
 1779              		.loc 1 483 0
 1780 0010 0120     		movs	r0, #1
 1781              	.LVL172:
 1782 0012 7047     		bx	lr
 1783              	.LVL173:
 1784              	.L115:
 485:.\main.c      ****     return 0;
 1785              		.loc 1 485 0
 1786 0014 0020     		movs	r0, #0
ARM GAS  C:\Users\mark6\AppData\Local\Temp\ccm1Ykfm.s 			page 43


 1787              	.LVL174:
 486:.\main.c      **** }
 1788              		.loc 1 486 0
 1789 0016 7047     		bx	lr
 1790              		.cfi_endproc
 1791              	.LFE83:
 1792              		.size	comp, .-comp
 1793              		.section	.text.get_required_motors,"ax",%progbits
 1794              		.align	2
 1795              		.global	get_required_motors
 1796              		.thumb
 1797              		.thumb_func
 1798              		.type	get_required_motors, %function
 1799              	get_required_motors:
 1800              	.LFB84:
 487:.\main.c      **** 
 488:.\main.c      **** // Motor Functions
 489:.\main.c      **** void get_required_motors(Drink* drink) {
 1801              		.loc 1 489 0
 1802              		.cfi_startproc
 1803              		@ args = 0, pretend = 0, frame = 0
 1804              		@ frame_needed = 0, uses_anonymous_args = 0
 1805              	.LVL175:
 1806 0000 F8B5     		push	{r3, r4, r5, r6, r7, lr}
 1807              		.cfi_def_cfa_offset 24
 1808              		.cfi_offset 3, -24
 1809              		.cfi_offset 4, -20
 1810              		.cfi_offset 5, -16
 1811              		.cfi_offset 6, -12
 1812              		.cfi_offset 7, -8
 1813              		.cfi_offset 14, -4
 1814 0002 0546     		mov	r5, r0
 1815              	.LVL176:
 490:.\main.c      ****     int i, j;
 491:.\main.c      ****     for (i = 0; i < MOTOR_COUNT; i++) {
 1816              		.loc 1 491 0
 1817 0004 0022     		movs	r2, #0
 1818 0006 06E0     		b	.L117
 1819              	.LVL177:
 1820              	.L118:
 492:.\main.c      ****         required_motors[i] = 0;
 1821              		.loc 1 492 0 discriminator 3
 1822 0008 134B     		ldr	r3, .L125
 1823 000a 03EB8203 		add	r3, r3, r2, lsl #2
 1824 000e 0021     		movs	r1, #0
 1825 0010 5963     		str	r1, [r3, #52]
 493:.\main.c      ****         dispense_amount[i] = 0;
 1826              		.loc 1 493 0 discriminator 3
 1827 0012 D964     		str	r1, [r3, #76]
 491:.\main.c      ****         required_motors[i] = 0;
 1828              		.loc 1 491 0 discriminator 3
 1829 0014 0132     		adds	r2, r2, #1
 1830              	.LVL178:
 1831              	.L117:
 491:.\main.c      ****         required_motors[i] = 0;
 1832              		.loc 1 491 0 is_stmt 0 discriminator 1
 1833 0016 052A     		cmp	r2, #5
ARM GAS  C:\Users\mark6\AppData\Local\Temp\ccm1Ykfm.s 			page 44


 1834 0018 F6DD     		ble	.L118
 1835 001a 0026     		movs	r6, #0
 1836 001c 19E0     		b	.L119
 1837              	.LVL179:
 1838              	.L121:
 494:.\main.c      ****     }
 495:.\main.c      ****     for (i = 0; i < MOTOR_COUNT; i++) {
 496:.\main.c      ****         for (j = 0; j < drink->num_ingredients; j++) {
 497:.\main.c      ****             if (config_data[i] == drink->ingredients[j]->liquid) {
 1839              		.loc 1 497 0 is_stmt 1
 1840 001e 0E4B     		ldr	r3, .L125
 1841 0020 995D     		ldrb	r1, [r3, r6]	@ zero_extendqisi2
 1842 0022 6B6B     		ldr	r3, [r5, #52]
 1843 0024 53F82420 		ldr	r2, [r3, r4, lsl #2]
 1844 0028 1278     		ldrb	r2, [r2]	@ zero_extendqisi2
 1845 002a 9142     		cmp	r1, r2
 1846 002c 0AD1     		bne	.L120
 498:.\main.c      ****                 required_motors[i] = 1;
 1847              		.loc 1 498 0
 1848 002e 0A4F     		ldr	r7, .L125
 1849 0030 07EB8607 		add	r7, r7, r6, lsl #2
 1850 0034 0122     		movs	r2, #1
 1851 0036 7A63     		str	r2, [r7, #52]
 499:.\main.c      ****                 dispense_amount[i] = ms_to_dispense(drink->ingredients[j]->amount);
 1852              		.loc 1 499 0
 1853 0038 53F82430 		ldr	r3, [r3, r4, lsl #2]
 1854 003c 5868     		ldr	r0, [r3, #4]
 1855 003e FFF7FEFF 		bl	ms_to_dispense
 1856              	.LVL180:
 1857 0042 F864     		str	r0, [r7, #76]
 1858              	.L120:
 496:.\main.c      ****             if (config_data[i] == drink->ingredients[j]->liquid) {
 1859              		.loc 1 496 0 discriminator 2
 1860 0044 0134     		adds	r4, r4, #1
 1861              	.LVL181:
 1862 0046 00E0     		b	.L122
 1863              	.LVL182:
 1864              	.L123:
 1865 0048 0024     		movs	r4, #0
 1866              	.L122:
 1867              	.LVL183:
 496:.\main.c      ****             if (config_data[i] == drink->ingredients[j]->liquid) {
 1868              		.loc 1 496 0 is_stmt 0 discriminator 1
 1869 004a AB6B     		ldr	r3, [r5, #56]
 1870 004c A342     		cmp	r3, r4
 1871 004e E6DC     		bgt	.L121
 495:.\main.c      ****         for (j = 0; j < drink->num_ingredients; j++) {
 1872              		.loc 1 495 0 is_stmt 1 discriminator 2
 1873 0050 0136     		adds	r6, r6, #1
 1874              	.LVL184:
 1875              	.L119:
 495:.\main.c      ****         for (j = 0; j < drink->num_ingredients; j++) {
 1876              		.loc 1 495 0 is_stmt 0 discriminator 1
 1877 0052 052E     		cmp	r6, #5
 1878 0054 F8DD     		ble	.L123
 500:.\main.c      ****             }
 501:.\main.c      ****         }
ARM GAS  C:\Users\mark6\AppData\Local\Temp\ccm1Ykfm.s 			page 45


 502:.\main.c      ****     }
 503:.\main.c      **** }
 1879              		.loc 1 503 0 is_stmt 1
 1880 0056 F8BD     		pop	{r3, r4, r5, r6, r7, pc}
 1881              	.LVL185:
 1882              	.L126:
 1883              		.align	2
 1884              	.L125:
 1885 0058 00000000 		.word	.LANCHOR0
 1886              		.cfi_endproc
 1887              	.LFE84:
 1888              		.size	get_required_motors, .-get_required_motors
 1889              		.section	.text.relay_flip,"ax",%progbits
 1890              		.align	2
 1891              		.global	relay_flip
 1892              		.thumb
 1893              		.thumb_func
 1894              		.type	relay_flip, %function
 1895              	relay_flip:
 1896              	.LFB86:
 504:.\main.c      **** 
 505:.\main.c      **** void dispense_drink(int drink_number) {
 506:.\main.c      ****     Drink* drink = drinks[drink_number];
 507:.\main.c      ****     get_required_motors(drink); // now have which motors and which amounts
 508:.\main.c      ****     int i;
 509:.\main.c      ****     for (i = 0; i < MOTOR_COUNT; i++) {
 510:.\main.c      ****         if (required_motors[i]) {
 511:.\main.c      ****             relay_on(i);
 512:.\main.c      ****             CyDelay(dispense_amount[i]);
 513:.\main.c      ****             relay_off(i);
 514:.\main.c      ****         }
 515:.\main.c      ****     }
 516:.\main.c      ****     display_dispenser();
 517:.\main.c      ****     // qsort(dispense_amount, sizeof(dispense_amount)/sizeof(*dispense_amount), sizeof(*dispense_am
 518:.\main.c      **** 
 519:.\main.c      **** }
 520:.\main.c      **** 
 521:.\main.c      **** void relay_flip(int button_num) {
 1897              		.loc 1 521 0
 1898              		.cfi_startproc
 1899              		@ args = 0, pretend = 0, frame = 0
 1900              		@ frame_needed = 0, uses_anonymous_args = 0
 1901              	.LVL186:
 1902 0000 08B5     		push	{r3, lr}
 1903              		.cfi_def_cfa_offset 8
 1904              		.cfi_offset 3, -8
 1905              		.cfi_offset 14, -4
 522:.\main.c      ****     if (button_num == 0) {
 1906              		.loc 1 522 0
 1907 0002 30B9     		cbnz	r0, .L128
 523:.\main.c      ****         Relay_1_Write(~Relay_1_Read());
 1908              		.loc 1 523 0
 1909 0004 FFF7FEFF 		bl	Relay_1_Read
 1910              	.LVL187:
 1911 0008 C043     		mvns	r0, r0
 1912 000a C0B2     		uxtb	r0, r0
 1913 000c FFF7FEFF 		bl	Relay_1_Write
ARM GAS  C:\Users\mark6\AppData\Local\Temp\ccm1Ykfm.s 			page 46


 1914              	.LVL188:
 1915 0010 08BD     		pop	{r3, pc}
 1916              	.LVL189:
 1917              	.L128:
 524:.\main.c      ****     } else if (button_num == 1) {
 1918              		.loc 1 524 0
 1919 0012 0128     		cmp	r0, #1
 1920 0014 06D1     		bne	.L130
 525:.\main.c      ****         Relay_2_Write(~Relay_2_Read());
 1921              		.loc 1 525 0
 1922 0016 FFF7FEFF 		bl	Relay_2_Read
 1923              	.LVL190:
 1924 001a C043     		mvns	r0, r0
 1925 001c C0B2     		uxtb	r0, r0
 1926 001e FFF7FEFF 		bl	Relay_2_Write
 1927              	.LVL191:
 1928 0022 08BD     		pop	{r3, pc}
 1929              	.LVL192:
 1930              	.L130:
 526:.\main.c      ****     } else if (button_num == 2) {
 1931              		.loc 1 526 0
 1932 0024 0228     		cmp	r0, #2
 1933 0026 06D1     		bne	.L131
 527:.\main.c      ****         Relay_3_Write(~Relay_3_Read());
 1934              		.loc 1 527 0
 1935 0028 FFF7FEFF 		bl	Relay_3_Read
 1936              	.LVL193:
 1937 002c C043     		mvns	r0, r0
 1938 002e C0B2     		uxtb	r0, r0
 1939 0030 FFF7FEFF 		bl	Relay_3_Write
 1940              	.LVL194:
 1941 0034 08BD     		pop	{r3, pc}
 1942              	.LVL195:
 1943              	.L131:
 528:.\main.c      ****     } else if (button_num == 3) {
 1944              		.loc 1 528 0
 1945 0036 0328     		cmp	r0, #3
 1946 0038 06D1     		bne	.L132
 529:.\main.c      ****         Relay_4_Write(~Relay_4_Read());
 1947              		.loc 1 529 0
 1948 003a FFF7FEFF 		bl	Relay_4_Read
 1949              	.LVL196:
 1950 003e C043     		mvns	r0, r0
 1951 0040 C0B2     		uxtb	r0, r0
 1952 0042 FFF7FEFF 		bl	Relay_4_Write
 1953              	.LVL197:
 1954 0046 08BD     		pop	{r3, pc}
 1955              	.LVL198:
 1956              	.L132:
 530:.\main.c      ****     } else if (button_num == 4) {
 1957              		.loc 1 530 0
 1958 0048 0428     		cmp	r0, #4
 1959 004a 06D1     		bne	.L133
 531:.\main.c      ****         Relay_5_Write(~Relay_5_Read());
 1960              		.loc 1 531 0
 1961 004c FFF7FEFF 		bl	Relay_5_Read
 1962              	.LVL199:
ARM GAS  C:\Users\mark6\AppData\Local\Temp\ccm1Ykfm.s 			page 47


 1963 0050 C043     		mvns	r0, r0
 1964 0052 C0B2     		uxtb	r0, r0
 1965 0054 FFF7FEFF 		bl	Relay_5_Write
 1966              	.LVL200:
 1967 0058 08BD     		pop	{r3, pc}
 1968              	.LVL201:
 1969              	.L133:
 532:.\main.c      ****     } else if (button_num == 5) {
 1970              		.loc 1 532 0
 1971 005a 0528     		cmp	r0, #5
 1972 005c 05D1     		bne	.L127
 533:.\main.c      ****         Relay_6_Write(~Relay_6_Read());
 1973              		.loc 1 533 0
 1974 005e FFF7FEFF 		bl	Relay_6_Read
 1975              	.LVL202:
 1976 0062 C043     		mvns	r0, r0
 1977 0064 C0B2     		uxtb	r0, r0
 1978 0066 FFF7FEFF 		bl	Relay_6_Write
 1979              	.LVL203:
 1980              	.L127:
 1981 006a 08BD     		pop	{r3, pc}
 1982              		.cfi_endproc
 1983              	.LFE86:
 1984              		.size	relay_flip, .-relay_flip
 1985              		.section	.text.relay_on,"ax",%progbits
 1986              		.align	2
 1987              		.global	relay_on
 1988              		.thumb
 1989              		.thumb_func
 1990              		.type	relay_on, %function
 1991              	relay_on:
 1992              	.LFB87:
 534:.\main.c      ****     }
 535:.\main.c      **** }
 536:.\main.c      **** void relay_on(int motor) {
 1993              		.loc 1 536 0
 1994              		.cfi_startproc
 1995              		@ args = 0, pretend = 0, frame = 0
 1996              		@ frame_needed = 0, uses_anonymous_args = 0
 1997              	.LVL204:
 1998 0000 08B5     		push	{r3, lr}
 1999              		.cfi_def_cfa_offset 8
 2000              		.cfi_offset 3, -8
 2001              		.cfi_offset 14, -4
 537:.\main.c      ****      if (motor == 0) {
 2002              		.loc 1 537 0
 2003 0002 10B9     		cbnz	r0, .L136
 538:.\main.c      ****         Relay_1_Write(0);
 2004              		.loc 1 538 0
 2005 0004 FFF7FEFF 		bl	Relay_1_Write
 2006              	.LVL205:
 2007 0008 08BD     		pop	{r3, pc}
 2008              	.LVL206:
 2009              	.L136:
 539:.\main.c      ****     } else if (motor == 1) {
 2010              		.loc 1 539 0
 2011 000a 0128     		cmp	r0, #1
ARM GAS  C:\Users\mark6\AppData\Local\Temp\ccm1Ykfm.s 			page 48


 2012 000c 03D1     		bne	.L138
 540:.\main.c      ****         Relay_2_Write(0);
 2013              		.loc 1 540 0
 2014 000e 0020     		movs	r0, #0
 2015              	.LVL207:
 2016 0010 FFF7FEFF 		bl	Relay_2_Write
 2017              	.LVL208:
 2018 0014 08BD     		pop	{r3, pc}
 2019              	.LVL209:
 2020              	.L138:
 541:.\main.c      ****     } else if (motor == 2) {
 2021              		.loc 1 541 0
 2022 0016 0228     		cmp	r0, #2
 2023 0018 03D1     		bne	.L139
 542:.\main.c      ****         Relay_3_Write(0);
 2024              		.loc 1 542 0
 2025 001a 0020     		movs	r0, #0
 2026              	.LVL210:
 2027 001c FFF7FEFF 		bl	Relay_3_Write
 2028              	.LVL211:
 2029 0020 08BD     		pop	{r3, pc}
 2030              	.LVL212:
 2031              	.L139:
 543:.\main.c      ****     } else if (motor == 3) {
 2032              		.loc 1 543 0
 2033 0022 0328     		cmp	r0, #3
 2034 0024 03D1     		bne	.L140
 544:.\main.c      ****         Relay_4_Write(0);
 2035              		.loc 1 544 0
 2036 0026 0020     		movs	r0, #0
 2037              	.LVL213:
 2038 0028 FFF7FEFF 		bl	Relay_4_Write
 2039              	.LVL214:
 2040 002c 08BD     		pop	{r3, pc}
 2041              	.LVL215:
 2042              	.L140:
 545:.\main.c      ****     } else if (motor == 4) {
 2043              		.loc 1 545 0
 2044 002e 0428     		cmp	r0, #4
 2045 0030 03D1     		bne	.L141
 546:.\main.c      ****         Relay_5_Write(0);
 2046              		.loc 1 546 0
 2047 0032 0020     		movs	r0, #0
 2048              	.LVL216:
 2049 0034 FFF7FEFF 		bl	Relay_5_Write
 2050              	.LVL217:
 2051 0038 08BD     		pop	{r3, pc}
 2052              	.LVL218:
 2053              	.L141:
 547:.\main.c      ****     } else if (motor == 5) {
 2054              		.loc 1 547 0
 2055 003a 0528     		cmp	r0, #5
 2056 003c 02D1     		bne	.L135
 548:.\main.c      ****         Relay_6_Write(0);
 2057              		.loc 1 548 0
 2058 003e 0020     		movs	r0, #0
 2059              	.LVL219:
ARM GAS  C:\Users\mark6\AppData\Local\Temp\ccm1Ykfm.s 			page 49


 2060 0040 FFF7FEFF 		bl	Relay_6_Write
 2061              	.LVL220:
 2062              	.L135:
 2063 0044 08BD     		pop	{r3, pc}
 2064              		.cfi_endproc
 2065              	.LFE87:
 2066              		.size	relay_on, .-relay_on
 2067 0046 00BF     		.section	.text.relay_off,"ax",%progbits
 2068              		.align	2
 2069              		.global	relay_off
 2070              		.thumb
 2071              		.thumb_func
 2072              		.type	relay_off, %function
 2073              	relay_off:
 2074              	.LFB88:
 549:.\main.c      ****     }   
 550:.\main.c      **** }
 551:.\main.c      **** 
 552:.\main.c      **** void relay_off(int motor) {
 2075              		.loc 1 552 0
 2076              		.cfi_startproc
 2077              		@ args = 0, pretend = 0, frame = 0
 2078              		@ frame_needed = 0, uses_anonymous_args = 0
 2079              	.LVL221:
 2080 0000 08B5     		push	{r3, lr}
 2081              		.cfi_def_cfa_offset 8
 2082              		.cfi_offset 3, -8
 2083              		.cfi_offset 14, -4
 553:.\main.c      ****      if (motor == 0) {
 2084              		.loc 1 553 0
 2085 0002 18B9     		cbnz	r0, .L144
 554:.\main.c      ****         Relay_1_Write(1);
 2086              		.loc 1 554 0
 2087 0004 0120     		movs	r0, #1
 2088              	.LVL222:
 2089 0006 FFF7FEFF 		bl	Relay_1_Write
 2090              	.LVL223:
 2091 000a 08BD     		pop	{r3, pc}
 2092              	.LVL224:
 2093              	.L144:
 555:.\main.c      ****     } else if (motor == 1) {
 2094              		.loc 1 555 0
 2095 000c 0128     		cmp	r0, #1
 2096 000e 03D1     		bne	.L146
 556:.\main.c      ****         Relay_2_Write(1);
 2097              		.loc 1 556 0
 2098 0010 0120     		movs	r0, #1
 2099              	.LVL225:
 2100 0012 FFF7FEFF 		bl	Relay_2_Write
 2101              	.LVL226:
 2102 0016 08BD     		pop	{r3, pc}
 2103              	.LVL227:
 2104              	.L146:
 557:.\main.c      ****     } else if (motor == 2) {
 2105              		.loc 1 557 0
 2106 0018 0228     		cmp	r0, #2
 2107 001a 03D1     		bne	.L147
ARM GAS  C:\Users\mark6\AppData\Local\Temp\ccm1Ykfm.s 			page 50


 558:.\main.c      ****         Relay_3_Write(1);
 2108              		.loc 1 558 0
 2109 001c 0120     		movs	r0, #1
 2110              	.LVL228:
 2111 001e FFF7FEFF 		bl	Relay_3_Write
 2112              	.LVL229:
 2113 0022 08BD     		pop	{r3, pc}
 2114              	.LVL230:
 2115              	.L147:
 559:.\main.c      ****     } else if (motor == 3) {
 2116              		.loc 1 559 0
 2117 0024 0328     		cmp	r0, #3
 2118 0026 03D1     		bne	.L148
 560:.\main.c      ****         Relay_4_Write(1);
 2119              		.loc 1 560 0
 2120 0028 0120     		movs	r0, #1
 2121              	.LVL231:
 2122 002a FFF7FEFF 		bl	Relay_4_Write
 2123              	.LVL232:
 2124 002e 08BD     		pop	{r3, pc}
 2125              	.LVL233:
 2126              	.L148:
 561:.\main.c      ****     } else if (motor == 4) {
 2127              		.loc 1 561 0
 2128 0030 0428     		cmp	r0, #4
 2129 0032 03D1     		bne	.L149
 562:.\main.c      ****         Relay_5_Write(1);
 2130              		.loc 1 562 0
 2131 0034 0120     		movs	r0, #1
 2132              	.LVL234:
 2133 0036 FFF7FEFF 		bl	Relay_5_Write
 2134              	.LVL235:
 2135 003a 08BD     		pop	{r3, pc}
 2136              	.LVL236:
 2137              	.L149:
 563:.\main.c      ****     } else if (motor == 5) {
 2138              		.loc 1 563 0
 2139 003c 0528     		cmp	r0, #5
 2140 003e 02D1     		bne	.L143
 564:.\main.c      ****         Relay_6_Write(1);
 2141              		.loc 1 564 0
 2142 0040 0120     		movs	r0, #1
 2143              	.LVL237:
 2144 0042 FFF7FEFF 		bl	Relay_6_Write
 2145              	.LVL238:
 2146              	.L143:
 2147 0046 08BD     		pop	{r3, pc}
 2148              		.cfi_endproc
 2149              	.LFE88:
 2150              		.size	relay_off, .-relay_off
 2151              		.section	.text.dispense_drink,"ax",%progbits
 2152              		.align	2
 2153              		.global	dispense_drink
 2154              		.thumb
 2155              		.thumb_func
 2156              		.type	dispense_drink, %function
 2157              	dispense_drink:
ARM GAS  C:\Users\mark6\AppData\Local\Temp\ccm1Ykfm.s 			page 51


 2158              	.LFB85:
 505:.\main.c      ****     Drink* drink = drinks[drink_number];
 2159              		.loc 1 505 0
 2160              		.cfi_startproc
 2161              		@ args = 0, pretend = 0, frame = 0
 2162              		@ frame_needed = 0, uses_anonymous_args = 0
 2163              	.LVL239:
 2164 0000 10B5     		push	{r4, lr}
 2165              		.cfi_def_cfa_offset 8
 2166              		.cfi_offset 4, -8
 2167              		.cfi_offset 14, -4
 506:.\main.c      ****     get_required_motors(drink); // now have which motors and which amounts
 2168              		.loc 1 506 0
 2169 0002 0F4B     		ldr	r3, .L156
 2170 0004 1B68     		ldr	r3, [r3]
 2171              	.LVL240:
 507:.\main.c      ****     int i;
 2172              		.loc 1 507 0
 2173 0006 53F82000 		ldr	r0, [r3, r0, lsl #2]
 2174              	.LVL241:
 2175 000a FFF7FEFF 		bl	get_required_motors
 2176              	.LVL242:
 509:.\main.c      ****         if (required_motors[i]) {
 2177              		.loc 1 509 0
 2178 000e 0024     		movs	r4, #0
 2179 0010 11E0     		b	.L152
 2180              	.LVL243:
 2181              	.L154:
 510:.\main.c      ****             relay_on(i);
 2182              		.loc 1 510 0
 2183 0012 0C4B     		ldr	r3, .L156+4
 2184 0014 03EB8403 		add	r3, r3, r4, lsl #2
 2185 0018 5B6B     		ldr	r3, [r3, #52]
 2186 001a 5BB1     		cbz	r3, .L153
 511:.\main.c      ****             CyDelay(dispense_amount[i]);
 2187              		.loc 1 511 0
 2188 001c 2046     		mov	r0, r4
 2189 001e FFF7FEFF 		bl	relay_on
 2190              	.LVL244:
 512:.\main.c      ****             relay_off(i);
 2191              		.loc 1 512 0
 2192 0022 084B     		ldr	r3, .L156+4
 2193 0024 03EB8403 		add	r3, r3, r4, lsl #2
 2194 0028 D86C     		ldr	r0, [r3, #76]
 2195 002a FFF7FEFF 		bl	CyDelay
 2196              	.LVL245:
 513:.\main.c      ****         }
 2197              		.loc 1 513 0
 2198 002e 2046     		mov	r0, r4
 2199 0030 FFF7FEFF 		bl	relay_off
 2200              	.LVL246:
 2201              	.L153:
 509:.\main.c      ****         if (required_motors[i]) {
 2202              		.loc 1 509 0 discriminator 2
 2203 0034 0134     		adds	r4, r4, #1
 2204              	.LVL247:
 2205              	.L152:
ARM GAS  C:\Users\mark6\AppData\Local\Temp\ccm1Ykfm.s 			page 52


 509:.\main.c      ****         if (required_motors[i]) {
 2206              		.loc 1 509 0 is_stmt 0 discriminator 1
 2207 0036 052C     		cmp	r4, #5
 2208 0038 EBDD     		ble	.L154
 516:.\main.c      ****     // qsort(dispense_amount, sizeof(dispense_amount)/sizeof(*dispense_amount), sizeof(*dispense_am
 2209              		.loc 1 516 0 is_stmt 1
 2210 003a FFF7FEFF 		bl	display_dispenser
 2211              	.LVL248:
 2212 003e 10BD     		pop	{r4, pc}
 2213              	.LVL249:
 2214              	.L157:
 2215              		.align	2
 2216              	.L156:
 2217 0040 00000000 		.word	drinks
 2218 0044 00000000 		.word	.LANCHOR0
 2219              		.cfi_endproc
 2220              	.LFE85:
 2221              		.size	dispense_drink, .-dispense_drink
 2222              		.section	.text.prime_pump,"ax",%progbits
 2223              		.align	2
 2224              		.global	prime_pump
 2225              		.thumb
 2226              		.thumb_func
 2227              		.type	prime_pump, %function
 2228              	prime_pump:
 2229              	.LFB89:
 565:.\main.c      ****     }   
 566:.\main.c      **** }
 567:.\main.c      **** void prime_pump(int motor) {
 2230              		.loc 1 567 0
 2231              		.cfi_startproc
 2232              		@ args = 0, pretend = 0, frame = 0
 2233              		@ frame_needed = 0, uses_anonymous_args = 0
 2234              	.LVL250:
 2235 0000 10B5     		push	{r4, lr}
 2236              		.cfi_def_cfa_offset 8
 2237              		.cfi_offset 4, -8
 2238              		.cfi_offset 14, -4
 2239 0002 0446     		mov	r4, r0
 568:.\main.c      ****     relay_on(motor);
 2240              		.loc 1 568 0
 2241 0004 FFF7FEFF 		bl	relay_on
 2242              	.LVL251:
 569:.\main.c      ****     CyDelay(1000 * PRIME_TIME);
 2243              		.loc 1 569 0
 2244 0008 41F27070 		movw	r0, #6000
 2245 000c FFF7FEFF 		bl	CyDelay
 2246              	.LVL252:
 570:.\main.c      ****     relay_off(motor);
 2247              		.loc 1 570 0
 2248 0010 2046     		mov	r0, r4
 2249 0012 FFF7FEFF 		bl	relay_off
 2250              	.LVL253:
 2251 0016 10BD     		pop	{r4, pc}
 2252              		.cfi_endproc
 2253              	.LFE89:
 2254              		.size	prime_pump, .-prime_pump
ARM GAS  C:\Users\mark6\AppData\Local\Temp\ccm1Ykfm.s 			page 53


 2255              		.section	.text.clear_config_data,"ax",%progbits
 2256              		.align	2
 2257              		.global	clear_config_data
 2258              		.thumb
 2259              		.thumb_func
 2260              		.type	clear_config_data, %function
 2261              	clear_config_data:
 2262              	.LFB90:
 571:.\main.c      **** }
 572:.\main.c      **** 
 573:.\main.c      **** void clear_config_data() {
 2263              		.loc 1 573 0
 2264              		.cfi_startproc
 2265              		@ args = 0, pretend = 0, frame = 0
 2266              		@ frame_needed = 0, uses_anonymous_args = 0
 2267              		@ link register save eliminated.
 2268              	.LVL254:
 574:.\main.c      ****     // clears all the words we've used to prepare for next data send
 575:.\main.c      ****     int i;
 576:.\main.c      ****     for (i = 0; i < MOTOR_COUNT; i++) {
 2269              		.loc 1 576 0
 2270 0000 0023     		movs	r3, #0
 2271 0002 03E0     		b	.L161
 2272              	.LVL255:
 2273              	.L162:
 577:.\main.c      ****         config_data[i] = 0;
 2274              		.loc 1 577 0 discriminator 3
 2275 0004 0021     		movs	r1, #0
 2276 0006 034A     		ldr	r2, .L163
 2277 0008 D154     		strb	r1, [r2, r3]
 576:.\main.c      ****         config_data[i] = 0;
 2278              		.loc 1 576 0 discriminator 3
 2279 000a 0133     		adds	r3, r3, #1
 2280              	.LVL256:
 2281              	.L161:
 576:.\main.c      ****         config_data[i] = 0;
 2282              		.loc 1 576 0 is_stmt 0 discriminator 1
 2283 000c 052B     		cmp	r3, #5
 2284 000e F9DD     		ble	.L162
 578:.\main.c      ****     }
 579:.\main.c      **** }
 2285              		.loc 1 579 0 is_stmt 1
 2286 0010 7047     		bx	lr
 2287              	.L164:
 2288 0012 00BF     		.align	2
 2289              	.L163:
 2290 0014 00000000 		.word	.LANCHOR0
 2291              		.cfi_endproc
 2292              	.LFE90:
 2293              		.size	clear_config_data, .-clear_config_data
 2294              		.section	.text.clean_tubing,"ax",%progbits
 2295              		.align	2
 2296              		.global	clean_tubing
 2297              		.thumb
 2298              		.thumb_func
 2299              		.type	clean_tubing, %function
 2300              	clean_tubing:
ARM GAS  C:\Users\mark6\AppData\Local\Temp\ccm1Ykfm.s 			page 54


 2301              	.LFB91:
 580:.\main.c      **** 
 581:.\main.c      **** void clean_tubing() {
 2302              		.loc 1 581 0
 2303              		.cfi_startproc
 2304              		@ args = 0, pretend = 0, frame = 0
 2305              		@ frame_needed = 0, uses_anonymous_args = 0
 2306 0000 10B5     		push	{r4, lr}
 2307              		.cfi_def_cfa_offset 8
 2308              		.cfi_offset 4, -8
 2309              		.cfi_offset 14, -4
 582:.\main.c      ****     // TODO this
 583:.\main.c      ****     clear_config_data();
 2310              		.loc 1 583 0
 2311 0002 FFF7FEFF 		bl	clear_config_data
 2312              	.LVL257:
 584:.\main.c      ****     display_cleaning();
 2313              		.loc 1 584 0
 2314 0006 FFF7FEFF 		bl	display_cleaning
 2315              	.LVL258:
 585:.\main.c      ****     int i;
 586:.\main.c      ****     for (i = 0; i < MOTOR_COUNT; i++) {
 2316              		.loc 1 586 0
 2317 000a 0024     		movs	r4, #0
 2318 000c 03E0     		b	.L166
 2319              	.LVL259:
 2320              	.L167:
 587:.\main.c      ****         relay_on(i);
 2321              		.loc 1 587 0 discriminator 3
 2322 000e 2046     		mov	r0, r4
 2323 0010 FFF7FEFF 		bl	relay_on
 2324              	.LVL260:
 586:.\main.c      ****         relay_on(i);
 2325              		.loc 1 586 0 discriminator 3
 2326 0014 0134     		adds	r4, r4, #1
 2327              	.LVL261:
 2328              	.L166:
 586:.\main.c      ****         relay_on(i);
 2329              		.loc 1 586 0 is_stmt 0 discriminator 1
 2330 0016 052C     		cmp	r4, #5
 2331 0018 F9DD     		ble	.L167
 588:.\main.c      ****     }
 589:.\main.c      ****     CyDelay(1000 * 120);
 2332              		.loc 1 589 0 is_stmt 1
 2333 001a 0748     		ldr	r0, .L171
 2334 001c FFF7FEFF 		bl	CyDelay
 2335              	.LVL262:
 590:.\main.c      ****     for (i = 0; i < MOTOR_COUNT; i++) {
 2336              		.loc 1 590 0
 2337 0020 0024     		movs	r4, #0
 2338 0022 03E0     		b	.L168
 2339              	.LVL263:
 2340              	.L169:
 591:.\main.c      ****         relay_off(i);
 2341              		.loc 1 591 0 discriminator 3
 2342 0024 2046     		mov	r0, r4
 2343 0026 FFF7FEFF 		bl	relay_off
ARM GAS  C:\Users\mark6\AppData\Local\Temp\ccm1Ykfm.s 			page 55


 2344              	.LVL264:
 590:.\main.c      ****     for (i = 0; i < MOTOR_COUNT; i++) {
 2345              		.loc 1 590 0 discriminator 3
 2346 002a 0134     		adds	r4, r4, #1
 2347              	.LVL265:
 2348              	.L168:
 590:.\main.c      ****     for (i = 0; i < MOTOR_COUNT; i++) {
 2349              		.loc 1 590 0 is_stmt 0 discriminator 1
 2350 002c 052C     		cmp	r4, #5
 2351 002e F9DD     		ble	.L169
 592:.\main.c      ****     }
 593:.\main.c      ****     display_config();
 2352              		.loc 1 593 0 is_stmt 1
 2353 0030 FFF7FEFF 		bl	display_config
 2354              	.LVL266:
 2355 0034 10BD     		pop	{r4, pc}
 2356              	.LVL267:
 2357              	.L172:
 2358 0036 00BF     		.align	2
 2359              	.L171:
 2360 0038 C0D40100 		.word	120000
 2361              		.cfi_endproc
 2362              	.LFE91:
 2363              		.size	clean_tubing, .-clean_tubing
 2364              		.section	.text.Submit_Button_Handler,"ax",%progbits
 2365              		.align	2
 2366              		.global	Submit_Button_Handler
 2367              		.thumb
 2368              		.thumb_func
 2369              		.type	Submit_Button_Handler, %function
 2370              	Submit_Button_Handler:
 2371              	.LFB65:
 166:.\main.c      ****     if (compare_lists(previous_presses, special_sequence, PRESS_SEQUENCE)) {
 2372              		.loc 1 166 0
 2373              		.cfi_startproc
 2374              		@ args = 0, pretend = 0, frame = 0
 2375              		@ frame_needed = 0, uses_anonymous_args = 0
 2376 0000 10B5     		push	{r4, lr}
 2377              		.cfi_def_cfa_offset 8
 2378              		.cfi_offset 4, -8
 2379              		.cfi_offset 14, -4
 167:.\main.c      ****         // Sequence entered, switch configuration
 2380              		.loc 1 167 0
 2381 0002 2E48     		ldr	r0, .L182
 2382 0004 2E49     		ldr	r1, .L182+4
 2383 0006 0822     		movs	r2, #8
 2384 0008 FFF7FEFF 		bl	compare_lists
 2385              	.LVL268:
 2386 000c A0B1     		cbz	r0, .L174
 169:.\main.c      ****             display_dispenser(); 
 2387              		.loc 1 169 0
 2388 000e 2D4B     		ldr	r3, .L182+8
 2389 0010 1B78     		ldrb	r3, [r3]	@ zero_extendqisi2
 2390 0012 3BB9     		cbnz	r3, .L175
 170:.\main.c      ****             push_to_list(previous_presses, SUBMIT, PRESS_SEQUENCE);    
 2391              		.loc 1 170 0
 2392 0014 FFF7FEFF 		bl	display_dispenser
ARM GAS  C:\Users\mark6\AppData\Local\Temp\ccm1Ykfm.s 			page 56


 2393              	.LVL269:
 171:.\main.c      ****             return;
 2394              		.loc 1 171 0
 2395 0018 2848     		ldr	r0, .L182
 2396 001a 0221     		movs	r1, #2
 2397 001c 0822     		movs	r2, #8
 2398 001e FFF7FEFF 		bl	push_to_list
 2399              	.LVL270:
 172:.\main.c      ****         } else if (current_display == DISPLAY) {
 2400              		.loc 1 172 0
 2401 0022 10BD     		pop	{r4, pc}
 2402              	.L175:
 173:.\main.c      ****             display_config(); 
 2403              		.loc 1 173 0
 2404 0024 012B     		cmp	r3, #1
 2405 0026 07D1     		bne	.L174
 174:.\main.c      ****             push_to_list(previous_presses, SUBMIT, PRESS_SEQUENCE);
 2406              		.loc 1 174 0
 2407 0028 FFF7FEFF 		bl	display_config
 2408              	.LVL271:
 175:.\main.c      ****             return;
 2409              		.loc 1 175 0
 2410 002c 2348     		ldr	r0, .L182
 2411 002e 0221     		movs	r1, #2
 2412 0030 0822     		movs	r2, #8
 2413 0032 FFF7FEFF 		bl	push_to_list
 2414              	.LVL272:
 176:.\main.c      ****         }
 2415              		.loc 1 176 0
 2416 0036 10BD     		pop	{r4, pc}
 2417              	.L174:
 179:.\main.c      ****         if (motor_scroll == MOTOR_COUNT) {
 2418              		.loc 1 179 0
 2419 0038 224B     		ldr	r3, .L182+8
 2420 003a 1B78     		ldrb	r3, [r3]	@ zero_extendqisi2
 2421 003c BBB9     		cbnz	r3, .L177
 180:.\main.c      ****             redraw_config_text("Clean Tubing", 7, GREEN);
 2422              		.loc 1 180 0
 2423 003e 224B     		ldr	r3, .L182+12
 2424 0040 D868     		ldr	r0, [r3, #12]
 2425 0042 0628     		cmp	r0, #6
 2426 0044 08D1     		bne	.L178
 181:.\main.c      ****             clean_tubing();
 2427              		.loc 1 181 0
 2428 0046 2148     		ldr	r0, .L182+16
 2429 0048 0721     		movs	r1, #7
 2430 004a 4FF47F42 		mov	r2, #65280
 2431 004e FFF7FEFF 		bl	redraw_config_text
 2432              	.LVL273:
 182:.\main.c      ****         } else {
 2433              		.loc 1 182 0
 2434 0052 FFF7FEFF 		bl	clean_tubing
 2435              	.LVL274:
 2436 0056 2BE0     		b	.L179
 2437              	.L178:
 184:.\main.c      ****             mixie_scroll = config_data[motor_scroll];
 2438              		.loc 1 184 0
ARM GAS  C:\Users\mark6\AppData\Local\Temp\ccm1Ykfm.s 			page 57


 2439 0058 1D49     		ldr	r1, .L182+20
 2440 005a FFF7FEFF 		bl	change_config_color
 2441              	.LVL275:
 185:.\main.c      ****             current_display = SELECTMIXIE;
 2442              		.loc 1 185 0
 2443 005e 1A4B     		ldr	r3, .L182+12
 2444 0060 DA68     		ldr	r2, [r3, #12]
 2445 0062 9A5C     		ldrb	r2, [r3, r2]	@ zero_extendqisi2
 2446 0064 1A61     		str	r2, [r3, #16]
 186:.\main.c      ****         }
 2447              		.loc 1 186 0
 2448 0066 0222     		movs	r2, #2
 2449 0068 164B     		ldr	r3, .L182+8
 2450 006a 1A70     		strb	r2, [r3]
 2451 006c 20E0     		b	.L179
 2452              	.L177:
 188:.\main.c      ****         current_display = CONFIG;
 2453              		.loc 1 188 0
 2454 006e 022B     		cmp	r3, #2
 2455 0070 15D1     		bne	.L180
 189:.\main.c      ****         config_data[motor_scroll] = mixie_scroll;
 2456              		.loc 1 189 0
 2457 0072 0022     		movs	r2, #0
 2458 0074 134B     		ldr	r3, .L182+8
 2459 0076 1A70     		strb	r2, [r3]
 190:.\main.c      ****         change_config_color(motor_scroll, GREEN);
 2460              		.loc 1 190 0
 2461 0078 134C     		ldr	r4, .L182+12
 2462 007a E068     		ldr	r0, [r4, #12]
 2463 007c 2369     		ldr	r3, [r4, #16]
 2464 007e 2354     		strb	r3, [r4, r0]
 191:.\main.c      ****         Em_EEPROM_Write(config_data, eeprom_config_data, sizeof(config_data));
 2465              		.loc 1 191 0
 2466 0080 4FF47F41 		mov	r1, #65280
 2467 0084 FFF7FEFF 		bl	change_config_color
 2468              	.LVL276:
 192:.\main.c      ****         prime_pump(motor_scroll);
 2469              		.loc 1 192 0
 2470 0088 2046     		mov	r0, r4
 2471 008a 1249     		ldr	r1, .L182+24
 2472 008c 0622     		movs	r2, #6
 2473 008e FFF7FEFF 		bl	Em_EEPROM_Write
 2474              	.LVL277:
 193:.\main.c      ****         display_config();
 2475              		.loc 1 193 0
 2476 0092 E068     		ldr	r0, [r4, #12]
 2477 0094 FFF7FEFF 		bl	prime_pump
 2478              	.LVL278:
 194:.\main.c      ****     } 
 2479              		.loc 1 194 0
 2480 0098 FFF7FEFF 		bl	display_config
 2481              	.LVL279:
 2482 009c 08E0     		b	.L179
 2483              	.L180:
 196:.\main.c      ****         dispense_drink(menu_indices[drink_scroll]);
 2484              		.loc 1 196 0
 2485 009e 012B     		cmp	r3, #1
ARM GAS  C:\Users\mark6\AppData\Local\Temp\ccm1Ykfm.s 			page 58


 2486 00a0 06D1     		bne	.L179
 197:.\main.c      ****     }
 2487              		.loc 1 197 0
 2488 00a2 0D4B     		ldr	r3, .L182+28
 2489 00a4 1A68     		ldr	r2, [r3]
 2490 00a6 084B     		ldr	r3, .L182+12
 2491 00a8 9B68     		ldr	r3, [r3, #8]
 2492 00aa D05C     		ldrb	r0, [r2, r3]	@ zero_extendqisi2
 2493 00ac FFF7FEFF 		bl	dispense_drink
 2494              	.LVL280:
 2495              	.L179:
 199:.\main.c      **** }
 2496              		.loc 1 199 0
 2497 00b0 0248     		ldr	r0, .L182
 2498 00b2 0221     		movs	r1, #2
 2499 00b4 0822     		movs	r2, #8
 2500 00b6 FFF7FEFF 		bl	push_to_list
 2501              	.LVL281:
 2502 00ba 10BD     		pop	{r4, pc}
 2503              	.L183:
 2504              		.align	2
 2505              	.L182:
 2506 00bc 14000000 		.word	.LANCHOR0+20
 2507 00c0 04000000 		.word	.LANCHOR1+4
 2508 00c4 00000000 		.word	current_display
 2509 00c8 00000000 		.word	.LANCHOR0
 2510 00cc 38000000 		.word	.LC2
 2511 00d0 3399FF00 		.word	16750899
 2512 00d4 18000000 		.word	.LANCHOR2+24
 2513 00d8 00000000 		.word	menu_indices
 2514              		.cfi_endproc
 2515              	.LFE65:
 2516              		.size	Submit_Button_Handler, .-Submit_Button_Handler
 2517              		.global	DownArrowPoints
 2518              		.global	UpArrowPoints
 2519              		.comm	current_display,1,1
 2520              		.comm	menu_indices,4,4
 2521              		.global	menu_length
 2522              		.global	timer_count
 2523              		.global	drink_scroll
 2524              		.global	motor_scroll
 2525              		.global	mixie_scroll
 2526              		.global	button_number
 2527              		.global	dispense_amount
 2528              		.global	required_motors
 2529              		.global	special_sequence
 2530              		.global	previous_presses
 2531              		.comm	menu,4,4
 2532              		.comm	drinks,4,4
 2533              		.global	config_data
 2534              		.comm	dispenser_rects,32,4
 2535              		.comm	rects,64,4
 2536              		.section	.rodata
 2537              		.align	2
 2538              		.set	.LANCHOR2,. + 0
 2539              		.type	UpArrowPoints, %object
 2540              		.size	UpArrowPoints, 12
ARM GAS  C:\Users\mark6\AppData\Local\Temp\ccm1Ykfm.s 			page 59


 2541              	UpArrowPoints:
 2542 0000 1E00     		.short	30
 2543 0002 1400     		.short	20
 2544 0004 0A00     		.short	10
 2545 0006 1400     		.short	20
 2546 0008 1400     		.short	20
 2547 000a 0000     		.short	0
 2548              		.type	DownArrowPoints, %object
 2549              		.size	DownArrowPoints, 12
 2550              	DownArrowPoints:
 2551 000c 1E00     		.short	30
 2552 000e 0000     		.short	0
 2553 0010 1400     		.short	20
 2554 0012 1400     		.short	20
 2555 0014 0A00     		.short	10
 2556 0016 0000     		.short	0
 2557              		.type	eeprom_config_data, %object
 2558              		.size	eeprom_config_data, 6
 2559              	eeprom_config_data:
 2560 0018 FF       		.byte	-1
 2561 0019 FF       		.byte	-1
 2562 001a FF       		.byte	-1
 2563 001b FF       		.byte	-1
 2564 001c FF       		.byte	-1
 2565 001d FF       		.byte	-1
 2566 001e 0000     		.data
 2567              		.align	2
 2568              		.set	.LANCHOR1,. + 0
 2569              		.type	menu_length, %object
 2570              		.size	menu_length, 4
 2571              	menu_length:
 2572 0000 01000000 		.word	1
 2573              		.type	special_sequence, %object
 2574              		.size	special_sequence, 32
 2575              	special_sequence:
 2576 0004 00000000 		.word	0
 2577 0008 01000000 		.word	1
 2578 000c 00000000 		.word	0
 2579 0010 01000000 		.word	1
 2580 0014 00000000 		.word	0
 2581 0018 00000000 		.word	0
 2582 001c 01000000 		.word	1
 2583 0020 01000000 		.word	1
 2584              		.section	.rodata.str1.4,"aMS",%progbits,1
 2585              		.align	2
 2586              	.LC0:
 2587 0000 436C6561 		.ascii	"Cleaning... Please wait 2 minutes\000"
 2587      6E696E67 
 2587      2E2E2E20 
 2587      506C6561 
 2587      73652077 
 2588 0022 0000     		.space	2
 2589              	.LC1:
 2590 0024 436F6E66 		.ascii	"Configuration Menu\000"
 2590      69677572 
 2590      6174696F 
 2590      6E204D65 
ARM GAS  C:\Users\mark6\AppData\Local\Temp\ccm1Ykfm.s 			page 60


 2590      6E7500
 2591 0037 00       		.space	1
 2592              	.LC2:
 2593 0038 436C6561 		.ascii	"Clean Tubing\000"
 2593      6E205475 
 2593      62696E67 
 2593      00
 2594 0045 000000   		.space	3
 2595              	.LC3:
 2596 0048 20202020 		.ascii	"                   \000"
 2596      20202020 
 2596      20202020 
 2596      20202020 
 2596      20202000 
 2597              	.LC4:
 2598 005c 4D6F726B 		.ascii	"Mork or Chungie, set this bitch up\000"
 2598      206F7220 
 2598      4368756E 
 2598      6769652C 
 2598      20736574 
 2599 007f 00       		.space	1
 2600              	.LC5:
 2601 0080 57656C63 		.ascii	"Welcome to Mork and Chungus's Bar Bot!\000"
 2601      6F6D6520 
 2601      746F204D 
 2601      6F726B20 
 2601      616E6420 
 2602 00a7 00       		.bss
 2603              		.align	2
 2604              		.set	.LANCHOR0,. + 0
 2605              		.type	config_data, %object
 2606              		.size	config_data, 6
 2607              	config_data:
 2608 0000 00000000 		.space	6
 2608      0000
 2609 0006 0000     		.space	2
 2610              		.type	drink_scroll, %object
 2611              		.size	drink_scroll, 4
 2612              	drink_scroll:
 2613 0008 00000000 		.space	4
 2614              		.type	motor_scroll, %object
 2615              		.size	motor_scroll, 4
 2616              	motor_scroll:
 2617 000c 00000000 		.space	4
 2618              		.type	mixie_scroll, %object
 2619              		.size	mixie_scroll, 4
 2620              	mixie_scroll:
 2621 0010 00000000 		.space	4
 2622              		.type	previous_presses, %object
 2623              		.size	previous_presses, 32
 2624              	previous_presses:
 2625 0014 00000000 		.space	32
 2625      00000000 
 2625      00000000 
 2625      00000000 
 2625      00000000 
 2626              		.type	required_motors, %object
ARM GAS  C:\Users\mark6\AppData\Local\Temp\ccm1Ykfm.s 			page 61


 2627              		.size	required_motors, 24
 2628              	required_motors:
 2629 0034 00000000 		.space	24
 2629      00000000 
 2629      00000000 
 2629      00000000 
 2629      00000000 
 2630              		.type	dispense_amount, %object
 2631              		.size	dispense_amount, 24
 2632              	dispense_amount:
 2633 004c 00000000 		.space	24
 2633      00000000 
 2633      00000000 
 2633      00000000 
 2633      00000000 
 2634              		.type	timer_count, %object
 2635              		.size	timer_count, 4
 2636              	timer_count:
 2637 0064 00000000 		.space	4
 2638              		.type	button_number, %object
 2639              		.size	button_number, 4
 2640              	button_number:
 2641 0068 00000000 		.space	4
 2642              		.text
 2643              	.Letext0:
 2644              		.file 2 "c:\\program files (x86)\\cypress\\psoc creator\\3.3\\psoc creator\\import\\gnu\\arm\\4.9.
 2645              		.file 3 "c:\\program files (x86)\\cypress\\psoc creator\\3.3\\psoc creator\\import\\gnu\\arm\\4.9.
 2646              		.file 4 "Generated_Source\\PSoC5/cytypes.h"
 2647              		.file 5 "c:\\program files (x86)\\cypress\\psoc creator\\3.3\\psoc creator\\import\\gnu\\arm\\4.9.
 2648              		.file 6 "c:\\program files (x86)\\cypress\\psoc creator\\3.3\\psoc creator\\import\\gnu\\arm\\4.9.
 2649              		.file 7 "..\\..\\emWinGraphics_v5_46\\Code\\Include\\PSoC4_5/LCD.h"
 2650              		.file 8 "..\\..\\emWinGraphics_v5_46\\Code\\Include\\PSoC4_5/GUI_Type.h"
 2651              		.file 9 "..\\..\\emWinGraphics_v5_46\\Code\\Include\\PSoC4_5/GUI.h"
 2652              		.file 10 ".\\drinks.h"
 2653              		.file 11 "Generated_Source\\PSoC5/core_cm3.h"
 2654              		.file 12 "Generated_Source\\PSoC5/SPIM_1.h"
 2655              		.file 13 "Generated_Source\\PSoC5/Em_EEPROM.h"
 2656              		.file 14 "c:\\program files (x86)\\cypress\\psoc creator\\3.3\\psoc creator\\import\\gnu\\arm\\4.9
 2657              		.file 15 "Generated_Source\\PSoC5/Submit_Int.h"
 2658              		.file 16 "Generated_Source\\PSoC5/Up_Int.h"
 2659              		.file 17 "Generated_Source\\PSoC5/Down_Int.h"
 2660              		.file 18 "Generated_Source\\PSoC5/Relay_1.h"
 2661              		.file 19 "Generated_Source\\PSoC5/Relay_2.h"
 2662              		.file 20 "Generated_Source\\PSoC5/Relay_3.h"
 2663              		.file 21 "Generated_Source\\PSoC5/Relay_4.h"
 2664              		.file 22 "Generated_Source\\PSoC5/Relay_5.h"
 2665              		.file 23 "Generated_Source\\PSoC5/Relay_6.h"
 2666              		.file 24 "Generated_Source\\PSoC5/CyLib.h"