ARM GAS  C:\Users\mark6\AppData\Local\Temp\ccm1Ykfm.s 			page 1


   1              		.syntax unified
   2              		.cpu cortex-m3
   3              		.fpu softvfp
   4              		.eabi_attribute 20, 1
   5              		.eabi_attribute 21, 1
   6              		.eabi_attribute 23, 3
   7              		.eabi_attribute 24, 1
   8              		.eabi_attribute 25, 1
   9              		.eabi_attribute 26, 1
  10              		.eabi_attribute 30, 1
  11              		.eabi_attribute 34, 1
  12              		.eabi_attribute 18, 4
  13              		.thumb
  14              		.file	"main.c"
  15              		.text
  16              	.Ltext0:
  17              		.cfi_sections	.debug_frame
  18              		.section	.text.push_to_list,"ax",%progbits
  19              		.align	2
  20              		.global	push_to_list
  21              		.thumb
  22              		.thumb_func
  23              		.type	push_to_list, %function
  24              	push_to_list:
  25              	.LFB68:
  26              		.file 1 ".\\main.c"
   1:.\main.c      **** /* ========================================
   2:.\main.c      ****  *
   3:.\main.c      ****  * Copyright YOUR COMPANY, THE YEAR
   4:.\main.c      ****  * All Rights Reserved
   5:.\main.c      ****  * UNPUBLISHED, LICENSED SOFTWARE.
   6:.\main.c      ****  *
   7:.\main.c      ****  * CONFIDENTIAL AND PROPRIETARY INFORMATION
   8:.\main.c      ****  * WHICH IS THE PROPERTY OF your company.
   9:.\main.c      ****  *
  10:.\main.c      ****  * ========================================
  11:.\main.c      **** */
  12:.\main.c      **** #include <project.h>
  13:.\main.c      **** #include <stdio.h>
  14:.\main.c      **** #include "GUI.h"
  15:.\main.c      **** #include "tft.h"
  16:.\main.c      **** #include "drinks.h"
  17:.\main.c      **** 
  18:.\main.c      **** // Function Defintions
  19:.\main.c      **** void create_config_rects(); // Creates and stores the rectangles for stat display on GUI
  20:.\main.c      **** void clear_config(); // Clears the configuration menu
  21:.\main.c      **** void display_config(); // Displays sent stats on the GUI
  22:.\main.c      **** void draw_active_config(int new_motor, int old_motor, int color);
  23:.\main.c      **** void draw_new_mixie(int motor, int drink_number, int color);
  24:.\main.c      **** void redraw_config_text(char* text, int motor, int color);
  25:.\main.c      **** void MainTask(void);
  26:.\main.c      **** int clean_number(int num, int count);
  27:.\main.c      **** void relay_flip(int button_num);
  28:.\main.c      **** void change_config_color(int motor, int color);
  29:.\main.c      **** void display_dispenser();
  30:.\main.c      **** void push_to_list(int* list, int value, int size);
  31:.\main.c      **** int compare_lists(int* list1, int* list2, int size);
ARM GAS  C:\Users\mark6\AppData\Local\Temp\ccm1Ykfm.s 			page 2


  32:.\main.c      **** void clean_tubing();
  33:.\main.c      **** void create_dispenser_rects();
  34:.\main.c      **** void update_dispenser_text();
  35:.\main.c      **** void prime_pump(int motor);
  36:.\main.c      **** void relay_on(int motor);
  37:.\main.c      **** void relay_off(int motor);
  38:.\main.c      **** void generate_menu();
  39:.\main.c      **** int check_availability(Drink* drink);
  40:.\main.c      **** void dispense_drink(int drink_number);
  41:.\main.c      **** void get_required_motors(Drink* drink);
  42:.\main.c      **** int ms_to_dispense(int amount);
  43:.\main.c      **** 
  44:.\main.c      **** // Constants
  45:.\main.c      **** #define MARGIN 10 // 10 from the edge to look nice
  46:.\main.c      **** #define Y_INC 90 // go down by 90 pixels when y is incremented
  47:.\main.c      **** #define SCREEN_X 320
  48:.\main.c      **** #define SCREEN_Y 240
  49:.\main.c      **** #define PRESS_SEQUENCE 8
  50:.\main.c      **** #define CONFIG_RECTS 8 //
  51:.\main.c      **** #define MOTOR_COUNT 6
  52:.\main.c      **** #define PUMP_RATE 400.0 // mL / min
  53:.\main.c      **** #define PRIME_TIME 6 // TODO calculate this for real
  54:.\main.c      **** #define SHOWN_DRINKS 3
  55:.\main.c      **** 
  56:.\main.c      **** #define BABYBLUE 0x03fcf8
  57:.\main.c      **** #define WHITE    0xFFFFFF
  58:.\main.c      **** #define RED      0xFF0000
  59:.\main.c      **** #define GREEN    0x00FF00
  60:.\main.c      **** #define BLUE     0x0000FF
  61:.\main.c      **** #define CYAN     0x00FFFF
  62:.\main.c      **** #define ORANGE   0xFF9933
  63:.\main.c      **** #define MAGENTA  0xFF00FF
  64:.\main.c      **** #define YELLOW   0xFFFF00
  65:.\main.c      **** #define BLACK    0x000000
  66:.\main.c      **** #define PINK     0xF670E3
  67:.\main.c      **** #define LIGHTGRAY 0xD3D3D3
  68:.\main.c      **** // Enums and Structs
  69:.\main.c      **** enum Buttons { UP, DOWN, SUBMIT };
  70:.\main.c      **** typedef enum Modes {CONFIG, DISPLAY, SELECTMIXIE, CLEANING} Modes;
  71:.\main.c      **** 
  72:.\main.c      **** 
  73:.\main.c      **** // Global Variables
  74:.\main.c      **** GUI_RECT rects[CONFIG_RECTS]; // predefined rectangles to store in
  75:.\main.c      **** GUI_RECT dispenser_rects[SHOWN_DRINKS + 1];
  76:.\main.c      **** //char config_data[CONFIG_RECTS][WORD_SIZE] = {"Configuration Menu", "Pink Whitney", "Tequila", "Do
  77:.\main.c      **** static const uint8 CYCODE eeprom_config_data[MOTOR_COUNT] = {255, 255, 255, 255, 255, 255};
  78:.\main.c      **** uint8 config_data[MOTOR_COUNT] = {0, 0, 0, 0, 0, 0}; // Vodka, Tonic, Beer, Gin, Seltzer, Pink Whit
  79:.\main.c      **** 
  80:.\main.c      **** extern const int NUM_DRINKS;
  81:.\main.c      **** extern char Liquids[NUM_MIXIES][WORD_SIZE];
  82:.\main.c      **** 
  83:.\main.c      **** Drink** drinks;
  84:.\main.c      **** Drink** menu;
  85:.\main.c      **** int previous_presses[PRESS_SEQUENCE] = {0, 0, 0, 0, 0, 0, 0, 0};
  86:.\main.c      **** int special_sequence[PRESS_SEQUENCE] = {UP, DOWN, UP, DOWN, UP, UP, DOWN, DOWN};
  87:.\main.c      **** int required_motors[MOTOR_COUNT] = {0, 0, 0, 0, 0, 0};
  88:.\main.c      **** int dispense_amount[MOTOR_COUNT] = {0, 0, 0, 0, 0, 0};
ARM GAS  C:\Users\mark6\AppData\Local\Temp\ccm1Ykfm.s 			page 3


  89:.\main.c      **** int button_number = 0;
  90:.\main.c      **** int mixie_scroll = 0;
  91:.\main.c      **** int motor_scroll = 0;
  92:.\main.c      **** int drink_scroll = 0;
  93:.\main.c      **** int timer_count = 0;
  94:.\main.c      **** int menu_length = 1;
  95:.\main.c      **** uint8* menu_indices;
  96:.\main.c      **** Modes current_display;
  97:.\main.c      **** 
  98:.\main.c      **** 
  99:.\main.c      **** const GUI_POINT UpArrowPoints[] = {
 100:.\main.c      ****  { 30, 20},
 101:.\main.c      ****  { 10, 20},
 102:.\main.c      ****  { 20, 0}
 103:.\main.c      **** };
 104:.\main.c      **** const GUI_POINT DownArrowPoints[] = {
 105:.\main.c      ****  { 30, 0},
 106:.\main.c      ****  { 20, 20},
 107:.\main.c      ****  { 10, 0}
 108:.\main.c      **** };
 109:.\main.c      **** CY_ISR ( Down_Button_Handler ) {
 110:.\main.c      **** 
 111:.\main.c      ****     if (current_display == CONFIG) {
 112:.\main.c      ****         int old_motor = motor_scroll;
 113:.\main.c      ****         motor_scroll--;
 114:.\main.c      ****         motor_scroll = clean_number(motor_scroll, MOTOR_COUNT+1);
 115:.\main.c      ****         if (motor_scroll == MOTOR_COUNT) {
 116:.\main.c      ****             redraw_config_text("Clean Tubing", 7, BABYBLUE);
 117:.\main.c      ****             draw_active_config(old_motor, old_motor, WHITE); // clear the old motor still
 118:.\main.c      ****         } else if (old_motor == MOTOR_COUNT) {
 119:.\main.c      ****             redraw_config_text("Clean Tubing", 7, WHITE);
 120:.\main.c      ****             draw_active_config(motor_scroll, motor_scroll, PINK);
 121:.\main.c      ****         } else {
 122:.\main.c      ****             draw_active_config(motor_scroll, old_motor, PINK);
 123:.\main.c      ****         }
 124:.\main.c      ****     } else if (current_display == SELECTMIXIE) {
 125:.\main.c      ****         redraw_config_text(Liquids[mixie_scroll], motor_scroll, BLACK);
 126:.\main.c      ****         mixie_scroll--;
 127:.\main.c      ****         mixie_scroll = clean_number(mixie_scroll, NUM_MIXIES);
 128:.\main.c      ****         redraw_config_text(Liquids[mixie_scroll], motor_scroll, ORANGE);
 129:.\main.c      ****     } 
 130:.\main.c      ****     else if (current_display == DISPLAY) {
 131:.\main.c      ****         drink_scroll--;
 132:.\main.c      ****         drink_scroll = clean_number(drink_scroll, menu_length);
 133:.\main.c      ****         update_dispenser_text();
 134:.\main.c      ****     }
 135:.\main.c      ****     push_to_list(previous_presses, DOWN, PRESS_SEQUENCE);
 136:.\main.c      **** }
 137:.\main.c      **** 
 138:.\main.c      **** CY_ISR ( Up_Button_Handler ) {
 139:.\main.c      ****     if (current_display == CONFIG) {
 140:.\main.c      ****         int old_motor = motor_scroll;
 141:.\main.c      ****         motor_scroll++;
 142:.\main.c      ****         motor_scroll = clean_number(motor_scroll, MOTOR_COUNT+1);
 143:.\main.c      ****         if (motor_scroll == MOTOR_COUNT) {
 144:.\main.c      ****             redraw_config_text("Clean Tubing", 7, BABYBLUE);
 145:.\main.c      ****             draw_active_config(old_motor, old_motor, WHITE); // clear the old motor still
ARM GAS  C:\Users\mark6\AppData\Local\Temp\ccm1Ykfm.s 			page 4


 146:.\main.c      ****         } else if (old_motor == MOTOR_COUNT) {
 147:.\main.c      ****             redraw_config_text("Clean Tubing", 7, WHITE);
 148:.\main.c      ****             draw_active_config(motor_scroll, motor_scroll, PINK);
 149:.\main.c      ****         } else {
 150:.\main.c      ****             draw_active_config(motor_scroll, old_motor, PINK);  
 151:.\main.c      ****         }
 152:.\main.c      ****     } else if (current_display == SELECTMIXIE) {
 153:.\main.c      ****         redraw_config_text(Liquids[mixie_scroll], motor_scroll, BLACK);
 154:.\main.c      ****         mixie_scroll++;
 155:.\main.c      ****         mixie_scroll = clean_number(mixie_scroll, NUM_MIXIES);
 156:.\main.c      ****         redraw_config_text(Liquids[mixie_scroll], motor_scroll, ORANGE);
 157:.\main.c      ****     } 
 158:.\main.c      ****     else if (current_display == DISPLAY) {
 159:.\main.c      ****         drink_scroll++;
 160:.\main.c      ****         drink_scroll = clean_number(drink_scroll, menu_length);
 161:.\main.c      ****         update_dispenser_text();
 162:.\main.c      ****     }
 163:.\main.c      ****     push_to_list(previous_presses, UP, PRESS_SEQUENCE);
 164:.\main.c      **** }
 165:.\main.c      **** 
 166:.\main.c      **** CY_ISR ( Submit_Button_Handler ) {
 167:.\main.c      ****     if (compare_lists(previous_presses, special_sequence, PRESS_SEQUENCE)) {
 168:.\main.c      ****         // Sequence entered, switch configuration
 169:.\main.c      ****         if (current_display == CONFIG) {
 170:.\main.c      ****             display_dispenser(); 
 171:.\main.c      ****             push_to_list(previous_presses, SUBMIT, PRESS_SEQUENCE);    
 172:.\main.c      ****             return;
 173:.\main.c      ****         } else if (current_display == DISPLAY) {
 174:.\main.c      ****             display_config(); 
 175:.\main.c      ****             push_to_list(previous_presses, SUBMIT, PRESS_SEQUENCE);
 176:.\main.c      ****             return;
 177:.\main.c      ****         }
 178:.\main.c      ****     } 
 179:.\main.c      ****     if (current_display == CONFIG) {
 180:.\main.c      ****         if (motor_scroll == MOTOR_COUNT) {
 181:.\main.c      ****             redraw_config_text("Clean Tubing", 7, GREEN);
 182:.\main.c      ****             clean_tubing();
 183:.\main.c      ****         } else {
 184:.\main.c      ****             change_config_color(motor_scroll, ORANGE);
 185:.\main.c      ****             mixie_scroll = config_data[motor_scroll];
 186:.\main.c      ****             current_display = SELECTMIXIE;
 187:.\main.c      ****         }
 188:.\main.c      ****     } else if (current_display == SELECTMIXIE) {     
 189:.\main.c      ****         current_display = CONFIG;
 190:.\main.c      ****         config_data[motor_scroll] = mixie_scroll;
 191:.\main.c      ****         change_config_color(motor_scroll, GREEN);
 192:.\main.c      ****         Em_EEPROM_Write(config_data, eeprom_config_data, sizeof(config_data));
 193:.\main.c      ****         prime_pump(motor_scroll);
 194:.\main.c      ****         display_config();
 195:.\main.c      ****     } 
 196:.\main.c      ****     else if (current_display == DISPLAY) {
 197:.\main.c      ****         dispense_drink(menu_indices[drink_scroll]);
 198:.\main.c      ****     }
 199:.\main.c      ****     push_to_list(previous_presses, SUBMIT, PRESS_SEQUENCE);
 200:.\main.c      **** }
 201:.\main.c      **** 
 202:.\main.c      **** 
ARM GAS  C:\Users\mark6\AppData\Local\Temp\ccm1Ykfm.s 			page 5


 203:.\main.c      **** int main()
 204:.\main.c      **** {
 205:.\main.c      ****     CyGlobalIntEnable; /* Enable global interrupts. */
 206:.\main.c      ****     SPIM_1_Start();
 207:.\main.c      ****     Em_EEPROM_Start();
 208:.\main.c      ****     uint8 eeprom_i = 0;
 209:.\main.c      ****     for (eeprom_i=0; eeprom_i<MOTOR_COUNT; eeprom_i++) {
 210:.\main.c      ****         if (eeprom_config_data[eeprom_i] != 255) {
 211:.\main.c      ****             config_data[eeprom_i] = eeprom_config_data[eeprom_i];
 212:.\main.c      ****         }
 213:.\main.c      ****     }
 214:.\main.c      ****     /* Place your initialization/startup code here (e.g. MyInst_Start()) */
 215:.\main.c      ****     menu_indices = malloc(NUM_DRINKS * sizeof(uint8));
 216:.\main.c      ****     drinks = generate_drinks();
 217:.\main.c      ****     Submit_Int_StartEx( Submit_Button_Handler );
 218:.\main.c      ****     Up_Int_StartEx( Up_Button_Handler );
 219:.\main.c      ****     Down_Int_StartEx( Down_Button_Handler );
 220:.\main.c      ****     
 221:.\main.c      ****     MainTask();
 222:.\main.c      ****     for(;;)
 223:.\main.c      ****     {
 224:.\main.c      ****         /* Place your application code here. */
 225:.\main.c      ****     }
 226:.\main.c      **** }
 227:.\main.c      **** void MainTask()
 228:.\main.c      **** {
 229:.\main.c      ****     GUI_Init();                             // initilize graphics library
 230:.\main.c      ****     //GUI_SetOrientation(GUI_SWAP_XY | GUI_MIRROR_X);
 231:.\main.c      ****     GUI_SetTextAlign(GUI_TA_HCENTER | GUI_TA_VCENTER);
 232:.\main.c      ****     create_config_rects();
 233:.\main.c      ****     create_dispenser_rects();
 234:.\main.c      ****     GUI_Clear();
 235:.\main.c      ****     GUI_SetFont(&GUI_Font8x16);
 236:.\main.c      ****     display_dispenser();
 237:.\main.c      **** 
 238:.\main.c      **** }
 239:.\main.c      **** 
 240:.\main.c      **** // Sequence Functions
 241:.\main.c      **** void push_to_list(int* list, int value, int size) {
  27              		.loc 1 241 0
  28              		.cfi_startproc
  29              		@ args = 0, pretend = 0, frame = 0
  30              		@ frame_needed = 0, uses_anonymous_args = 0
  31              		@ link register save eliminated.
  32              	.LVL0:
  33 0000 30B4     		push	{r4, r5}
  34              		.cfi_def_cfa_offset 8
  35              		.cfi_offset 4, -8
  36              		.cfi_offset 5, -4
  37              	.LVL1:
 242:.\main.c      ****     int i;
 243:.\main.c      ****     for (i = 0; i < size-1; i++) {
  38              		.loc 1 243 0
  39 0002 0023     		movs	r3, #0
  40 0004 05E0     		b	.L2
  41              	.LVL2:
  42              	.L3:
ARM GAS  C:\Users\mark6\AppData\Local\Temp\ccm1Ykfm.s 			page 6


 244:.\main.c      ****         list[i] = list[i+1];   
  43              		.loc 1 244 0 discriminator 3
  44 0006 5C1C     		adds	r4, r3, #1
  45 0008 50F82450 		ldr	r5, [r0, r4, lsl #2]
  46 000c 40F82350 		str	r5, [r0, r3, lsl #2]
 243:.\main.c      ****         list[i] = list[i+1];   
  47              		.loc 1 243 0 discriminator 3
  48 0010 2346     		mov	r3, r4
  49              	.LVL3:
  50              	.L2:
 243:.\main.c      ****         list[i] = list[i+1];   
  51              		.loc 1 243 0 is_stmt 0 discriminator 1
  52 0012 541E     		subs	r4, r2, #1
  53 0014 9C42     		cmp	r4, r3
  54 0016 F6DC     		bgt	.L3
 245:.\main.c      ****     }
 246:.\main.c      ****     list[size-1] = value;
  55              		.loc 1 246 0 is_stmt 1
  56 0018 02F18042 		add	r2, r2, #1073741824
  57              	.LVL4:
  58 001c 013A     		subs	r2, r2, #1
  59              	.LVL5:
  60 001e 40F82210 		str	r1, [r0, r2, lsl #2]
 247:.\main.c      **** }
  61              		.loc 1 247 0
  62 0022 30BC     		pop	{r4, r5}
  63              		.cfi_restore 5
  64              		.cfi_restore 4
  65              		.cfi_def_cfa_offset 0
  66 0024 7047     		bx	lr
  67              		.cfi_endproc
  68              	.LFE68:
  69              		.size	push_to_list, .-push_to_list
  70 0026 00BF     		.section	.text.compare_lists,"ax",%progbits
  71              		.align	2
  72              		.global	compare_lists
  73              		.thumb
  74              		.thumb_func
  75              		.type	compare_lists, %function
  76              	compare_lists:
  77              	.LFB69:
 248:.\main.c      **** 
 249:.\main.c      **** int compare_lists(int* list1, int* list2, int size) {
  78              		.loc 1 249 0
  79              		.cfi_startproc
  80              		@ args = 0, pretend = 0, frame = 0
  81              		@ frame_needed = 0, uses_anonymous_args = 0
  82              		@ link register save eliminated.
  83              	.LVL6:
  84 0000 30B4     		push	{r4, r5}
  85              		.cfi_def_cfa_offset 8
  86              		.cfi_offset 4, -8
  87              		.cfi_offset 5, -4
  88              	.LVL7:
 250:.\main.c      ****     int i;
 251:.\main.c      ****     for (i = 0; i < size; i++) {
  89              		.loc 1 251 0
ARM GAS  C:\Users\mark6\AppData\Local\Temp\ccm1Ykfm.s 			page 7


  90 0002 0023     		movs	r3, #0
  91 0004 06E0     		b	.L6
  92              	.LVL8:
  93              	.L8:
 252:.\main.c      ****         if (list1[i] != list2[i]) {
  94              		.loc 1 252 0
  95 0006 50F82350 		ldr	r5, [r0, r3, lsl #2]
  96 000a 51F82340 		ldr	r4, [r1, r3, lsl #2]
  97 000e A542     		cmp	r5, r4
  98 0010 04D1     		bne	.L9
 251:.\main.c      ****         if (list1[i] != list2[i]) {
  99              		.loc 1 251 0 discriminator 2
 100 0012 0133     		adds	r3, r3, #1
 101              	.LVL9:
 102              	.L6:
 251:.\main.c      ****         if (list1[i] != list2[i]) {
 103              		.loc 1 251 0 is_stmt 0 discriminator 1
 104 0014 9342     		cmp	r3, r2
 105 0016 F6DB     		blt	.L8
 253:.\main.c      ****             return 0;    
 254:.\main.c      ****         }
 255:.\main.c      ****     }
 256:.\main.c      ****     return 1;
 106              		.loc 1 256 0 is_stmt 1
 107 0018 0120     		movs	r0, #1
 108              	.LVL10:
 109 001a 00E0     		b	.L7
 110              	.LVL11:
 111              	.L9:
 253:.\main.c      ****             return 0;    
 112              		.loc 1 253 0
 113 001c 0020     		movs	r0, #0
 114              	.LVL12:
 115              	.L7:
 257:.\main.c      **** }
 116              		.loc 1 257 0
 117 001e 30BC     		pop	{r4, r5}
 118              		.cfi_restore 5
 119              		.cfi_restore 4
 120              		.cfi_def_cfa_offset 0
 121 0020 7047     		bx	lr
 122              		.cfi_endproc
 123              	.LFE69:
 124              		.size	compare_lists, .-compare_lists
 125 0022 00BF     		.section	.text.change_config_color,"ax",%progbits
 126              		.align	2
 127              		.global	change_config_color
 128              		.thumb
 129              		.thumb_func
 130              		.type	change_config_color, %function
 131              	change_config_color:
 132              	.LFB71:
 258:.\main.c      **** 
 259:.\main.c      **** // Drawing Functions
 260:.\main.c      **** 
 261:.\main.c      **** void draw_active_config(int new_motor, int old_motor, int color) {
 262:.\main.c      ****     // Makes the old motor white again
ARM GAS  C:\Users\mark6\AppData\Local\Temp\ccm1Ykfm.s 			page 8


 263:.\main.c      ****     change_config_color(old_motor, WHITE);
 264:.\main.c      ****     // Makes the active motor pink
 265:.\main.c      ****     change_config_color(new_motor, color);
 266:.\main.c      **** }
 267:.\main.c      **** 
 268:.\main.c      **** void change_config_color(int motor, int color) {
 133              		.loc 1 268 0
 134              		.cfi_startproc
 135              		@ args = 0, pretend = 0, frame = 8
 136              		@ frame_needed = 0, uses_anonymous_args = 0
 137              	.LVL13:
 138 0000 10B5     		push	{r4, lr}
 139              		.cfi_def_cfa_offset 8
 140              		.cfi_offset 4, -8
 141              		.cfi_offset 14, -4
 142 0002 82B0     		sub	sp, sp, #8
 143              		.cfi_def_cfa_offset 16
 144 0004 0446     		mov	r4, r0
 269:.\main.c      ****     GUI_SetColor(color);
 145              		.loc 1 269 0
 146 0006 0846     		mov	r0, r1
 147              	.LVL14:
 148 0008 FFF7FEFF 		bl	GUI_SetColor
 149              	.LVL15:
 270:.\main.c      ****     GUI_RECT rect = rects[motor];
 150              		.loc 1 270 0
 151 000c 6B46     		mov	r3, sp
 152 000e 1B4A     		ldr	r2, .L13
 153 0010 02EBC402 		add	r2, r2, r4, lsl #3
 154 0014 1068     		ldr	r0, [r2]	@ unaligned
 155 0016 5168     		ldr	r1, [r2, #4]	@ unaligned
 156 0018 03C3     		stmia	r3!, {r0, r1}
 271:.\main.c      ****     // Top Line
 272:.\main.c      ****     GUI_DrawLine(rect.x0, rect.y0, rect.x1, rect.y0);
 157              		.loc 1 272 0
 158 001a BDF90230 		ldrsh	r3, [sp, #2]
 159 001e BDF90000 		ldrsh	r0, [sp]
 160 0022 1946     		mov	r1, r3
 161 0024 BDF90420 		ldrsh	r2, [sp, #4]
 162 0028 FFF7FEFF 		bl	GUI_DrawLine
 163              	.LVL16:
 273:.\main.c      ****     // Left Line
 274:.\main.c      ****     GUI_DrawLine(rect.x0, rect.y0, rect.x0, rect.y1);
 164              		.loc 1 274 0
 165 002c BDF90020 		ldrsh	r2, [sp]
 166 0030 1046     		mov	r0, r2
 167 0032 BDF90210 		ldrsh	r1, [sp, #2]
 168 0036 BDF90630 		ldrsh	r3, [sp, #6]
 169 003a FFF7FEFF 		bl	GUI_DrawLine
 170              	.LVL17:
 275:.\main.c      ****     // Right Line
 276:.\main.c      ****     GUI_DrawLine(rect.x1, rect.y0, rect.x1, rect.y1);
 171              		.loc 1 276 0
 172 003e BDF90420 		ldrsh	r2, [sp, #4]
 173 0042 1046     		mov	r0, r2
 174 0044 BDF90210 		ldrsh	r1, [sp, #2]
 175 0048 BDF90630 		ldrsh	r3, [sp, #6]
ARM GAS  C:\Users\mark6\AppData\Local\Temp\ccm1Ykfm.s 			page 9


 176 004c FFF7FEFF 		bl	GUI_DrawLine
 177              	.LVL18:
 277:.\main.c      ****     // Bottom Line
 278:.\main.c      ****     GUI_DrawLine(rect.x0, rect.y1, rect.x1, rect.y1);
 178              		.loc 1 278 0
 179 0050 BDF90630 		ldrsh	r3, [sp, #6]
 180 0054 BDF90000 		ldrsh	r0, [sp]
 181 0058 1946     		mov	r1, r3
 182 005a BDF90420 		ldrsh	r2, [sp, #4]
 183 005e FFF7FEFF 		bl	GUI_DrawLine
 184              	.LVL19:
 279:.\main.c      ****     GUI_DispStringInRectWrap(Liquids[config_data[motor]], &rect, GUI_TA_HCENTER | GUI_TA_VCENTER, G
 185              		.loc 1 279 0
 186 0062 074B     		ldr	r3, .L13+4
 187 0064 1A5D     		ldrb	r2, [r3, r4]	@ zero_extendqisi2
 188 0066 074B     		ldr	r3, .L13+8
 189 0068 3220     		movs	r0, #50
 190 006a 00FB0230 		mla	r0, r0, r2, r3
 191 006e 6946     		mov	r1, sp
 192 0070 0E22     		movs	r2, #14
 193 0072 0123     		movs	r3, #1
 194 0074 FFF7FEFF 		bl	GUI_DispStringInRectWrap
 195              	.LVL20:
 280:.\main.c      **** }
 196              		.loc 1 280 0
 197 0078 02B0     		add	sp, sp, #8
 198              		.cfi_def_cfa_offset 8
 199              		@ sp needed
 200 007a 10BD     		pop	{r4, pc}
 201              	.LVL21:
 202              	.L14:
 203              		.align	2
 204              	.L13:
 205 007c 00000000 		.word	rects
 206 0080 00000000 		.word	.LANCHOR0
 207 0084 00000000 		.word	Liquids
 208              		.cfi_endproc
 209              	.LFE71:
 210              		.size	change_config_color, .-change_config_color
 211              		.section	.text.draw_active_config,"ax",%progbits
 212              		.align	2
 213              		.global	draw_active_config
 214              		.thumb
 215              		.thumb_func
 216              		.type	draw_active_config, %function
 217              	draw_active_config:
 218              	.LFB70:
 261:.\main.c      ****     // Makes the old motor white again
 219              		.loc 1 261 0
 220              		.cfi_startproc
 221              		@ args = 0, pretend = 0, frame = 0
 222              		@ frame_needed = 0, uses_anonymous_args = 0
 223              	.LVL22:
 224 0000 38B5     		push	{r3, r4, r5, lr}
 225              		.cfi_def_cfa_offset 16
 226              		.cfi_offset 3, -16
 227              		.cfi_offset 4, -12
ARM GAS  C:\Users\mark6\AppData\Local\Temp\ccm1Ykfm.s 			page 10


 228              		.cfi_offset 5, -8
 229              		.cfi_offset 14, -4
 230 0002 0546     		mov	r5, r0
 231 0004 1446     		mov	r4, r2
 263:.\main.c      ****     // Makes the active motor pink
 232              		.loc 1 263 0
 233 0006 0846     		mov	r0, r1
 234              	.LVL23:
 235 0008 6FF07F41 		mvn	r1, #-16777216
 236              	.LVL24:
 237 000c FFF7FEFF 		bl	change_config_color
 238              	.LVL25:
 265:.\main.c      **** }
 239              		.loc 1 265 0
 240 0010 2846     		mov	r0, r5
 241 0012 2146     		mov	r1, r4
 242 0014 FFF7FEFF 		bl	change_config_color
 243              	.LVL26:
 244 0018 38BD     		pop	{r3, r4, r5, pc}
 245              		.cfi_endproc
 246              	.LFE70:
 247              		.size	draw_active_config, .-draw_active_config
 248 001a 00BF     		.section	.text.redraw_config_text,"ax",%progbits
 249              		.align	2
 250              		.global	redraw_config_text
 251              		.thumb
 252              		.thumb_func
 253              		.type	redraw_config_text, %function
 254              	redraw_config_text:
 255              	.LFB72:
 281:.\main.c      **** 
 282:.\main.c      **** void redraw_config_text(char* text, int motor, int color) {
 256              		.loc 1 282 0
 257              		.cfi_startproc
 258              		@ args = 0, pretend = 0, frame = 0
 259              		@ frame_needed = 0, uses_anonymous_args = 0
 260              	.LVL27:
 261 0000 38B5     		push	{r3, r4, r5, lr}
 262              		.cfi_def_cfa_offset 16
 263              		.cfi_offset 3, -16
 264              		.cfi_offset 4, -12
 265              		.cfi_offset 5, -8
 266              		.cfi_offset 14, -4
 267 0002 0546     		mov	r5, r0
 268 0004 0C46     		mov	r4, r1
 283:.\main.c      ****     GUI_SetColor(color);
 269              		.loc 1 283 0
 270 0006 1046     		mov	r0, r2
 271              	.LVL28:
 272 0008 FFF7FEFF 		bl	GUI_SetColor
 273              	.LVL29:
 284:.\main.c      ****     GUI_DispStringInRectWrap(text, &rects[motor], GUI_TA_HCENTER | GUI_TA_VCENTER, GUI_WRAPMODE_WOR
 274              		.loc 1 284 0
 275 000c 2846     		mov	r0, r5
 276 000e 0449     		ldr	r1, .L19
 277 0010 01EBC401 		add	r1, r1, r4, lsl #3
 278 0014 0E22     		movs	r2, #14
ARM GAS  C:\Users\mark6\AppData\Local\Temp\ccm1Ykfm.s 			page 11


 279 0016 0123     		movs	r3, #1
 280 0018 FFF7FEFF 		bl	GUI_DispStringInRectWrap
 281              	.LVL30:
 282 001c 38BD     		pop	{r3, r4, r5, pc}
 283              	.LVL31:
 284              	.L20:
 285 001e 00BF     		.align	2
 286              	.L19:
 287 0020 00000000 		.word	rects
 288              		.cfi_endproc
 289              	.LFE72:
 290              		.size	redraw_config_text, .-redraw_config_text
 291              		.section	.text.display_cleaning,"ax",%progbits
 292              		.align	2
 293              		.global	display_cleaning
 294              		.thumb
 295              		.thumb_func
 296              		.type	display_cleaning, %function
 297              	display_cleaning:
 298              	.LFB73:
 285:.\main.c      **** }
 286:.\main.c      **** 
 287:.\main.c      **** void display_cleaning() {
 299              		.loc 1 287 0
 300              		.cfi_startproc
 301              		@ args = 0, pretend = 0, frame = 0
 302              		@ frame_needed = 0, uses_anonymous_args = 0
 303 0000 08B5     		push	{r3, lr}
 304              		.cfi_def_cfa_offset 8
 305              		.cfi_offset 3, -8
 306              		.cfi_offset 14, -4
 288:.\main.c      ****     GUI_Clear();
 307              		.loc 1 288 0
 308 0002 FFF7FEFF 		bl	GUI_Clear
 309              	.LVL32:
 289:.\main.c      ****     GUI_SetColor(BABYBLUE);
 310              		.loc 1 289 0
 311 0006 0648     		ldr	r0, .L23
 312 0008 FFF7FEFF 		bl	GUI_SetColor
 313              	.LVL33:
 290:.\main.c      ****     GUI_DispStringAt("Cleaning... Please wait 2 minutes", SCREEN_X/2, SCREEN_Y/2);
 314              		.loc 1 290 0
 315 000c 0548     		ldr	r0, .L23+4
 316 000e A021     		movs	r1, #160
 317 0010 7822     		movs	r2, #120
 318 0012 FFF7FEFF 		bl	GUI_DispStringAt
 319              	.LVL34:
 291:.\main.c      ****     current_display = CLEANING;
 320              		.loc 1 291 0
 321 0016 0322     		movs	r2, #3
 322 0018 034B     		ldr	r3, .L23+8
 323 001a 1A70     		strb	r2, [r3]
 324 001c 08BD     		pop	{r3, pc}
 325              	.L24:
 326 001e 00BF     		.align	2
 327              	.L23:
 328 0020 F8FC0300 		.word	261368
ARM GAS  C:\Users\mark6\AppData\Local\Temp\ccm1Ykfm.s 			page 12


 329 0024 00000000 		.word	.LC0
 330 0028 00000000 		.word	current_display
 331              		.cfi_endproc
 332              	.LFE73:
 333              		.size	display_cleaning, .-display_cleaning
 334              		.section	.text.check_availability,"ax",%progbits
 335              		.align	2
 336              		.global	check_availability
 337              		.thumb
 338              		.thumb_func
 339              		.type	check_availability, %function
 340              	check_availability:
 341              	.LFB74:
 292:.\main.c      **** }
 293:.\main.c      **** 
 294:.\main.c      **** int check_availability(Drink* drink) {
 342              		.loc 1 294 0
 343              		.cfi_startproc
 344              		@ args = 0, pretend = 0, frame = 0
 345              		@ frame_needed = 0, uses_anonymous_args = 0
 346              	.LVL35:
 347 0000 F8B5     		push	{r3, r4, r5, r6, r7, lr}
 348              		.cfi_def_cfa_offset 24
 349              		.cfi_offset 3, -24
 350              		.cfi_offset 4, -20
 351              		.cfi_offset 5, -16
 352              		.cfi_offset 6, -12
 353              		.cfi_offset 7, -8
 354              		.cfi_offset 14, -4
 355 0002 0746     		mov	r7, r0
 295:.\main.c      ****     GUI_Clear();
 356              		.loc 1 295 0
 357 0004 FFF7FEFF 		bl	GUI_Clear
 358              	.LVL36:
 296:.\main.c      ****     int available = 1;
 297:.\main.c      ****     int i, j;
 298:.\main.c      ****     for (i = 0; i < drink->num_ingredients; i++) {
 359              		.loc 1 298 0
 360 0008 0026     		movs	r6, #0
 296:.\main.c      ****     int available = 1;
 361              		.loc 1 296 0
 362 000a 0120     		movs	r0, #1
 363              		.loc 1 298 0
 364 000c 11E0     		b	.L26
 365              	.LVL37:
 366              	.L31:
 367              	.LBB2:
 299:.\main.c      ****         Ingredient* ingredient = drink->ingredients[i];
 368              		.loc 1 299 0
 369 000e 7B6B     		ldr	r3, [r7, #52]
 370 0010 53F82640 		ldr	r4, [r3, r6, lsl #2]
 371              	.LVL38:
 300:.\main.c      ****         int ingredient_check = 0;
 372              		.loc 1 300 0
 373 0014 0025     		movs	r5, #0
 301:.\main.c      ****         for (j = 0; j < MOTOR_COUNT; j++) {
 374              		.loc 1 301 0
ARM GAS  C:\Users\mark6\AppData\Local\Temp\ccm1Ykfm.s 			page 13


 375 0016 2B46     		mov	r3, r5
 376 0018 06E0     		b	.L27
 377              	.LVL39:
 378              	.L29:
 379              	.LBB3:
 302:.\main.c      ****             int liquid_check = config_data[j];
 380              		.loc 1 302 0
 381 001a 084A     		ldr	r2, .L35
 382 001c D25C     		ldrb	r2, [r2, r3]	@ zero_extendqisi2
 383              	.LVL40:
 303:.\main.c      ****             if ( ingredient->liquid == liquid_check ) {
 384              		.loc 1 303 0
 385 001e 2178     		ldrb	r1, [r4]	@ zero_extendqisi2
 386 0020 9142     		cmp	r1, r2
 387 0022 00D1     		bne	.L28
 304:.\main.c      ****                 ingredient_check = 1;   
 388              		.loc 1 304 0
 389 0024 0125     		movs	r5, #1
 390              	.LVL41:
 391              	.L28:
 392              	.LBE3:
 301:.\main.c      ****             int liquid_check = config_data[j];
 393              		.loc 1 301 0 discriminator 2
 394 0026 0133     		adds	r3, r3, #1
 395              	.LVL42:
 396              	.L27:
 301:.\main.c      ****             int liquid_check = config_data[j];
 397              		.loc 1 301 0 is_stmt 0 discriminator 1
 398 0028 052B     		cmp	r3, #5
 399 002a F6DD     		ble	.L29
 305:.\main.c      ****             }
 306:.\main.c      ****         }
 307:.\main.c      ****         if (ingredient_check == 0) {
 400              		.loc 1 307 0 is_stmt 1
 401 002c 05B9     		cbnz	r5, .L30
 308:.\main.c      ****             available = 0;    
 402              		.loc 1 308 0
 403 002e 0020     		movs	r0, #0
 404              	.LVL43:
 405              	.L30:
 406              	.LBE2:
 298:.\main.c      ****         Ingredient* ingredient = drink->ingredients[i];
 407              		.loc 1 298 0 discriminator 2
 408 0030 0136     		adds	r6, r6, #1
 409              	.LVL44:
 410              	.L26:
 298:.\main.c      ****         Ingredient* ingredient = drink->ingredients[i];
 411              		.loc 1 298 0 is_stmt 0 discriminator 1
 412 0032 BB6B     		ldr	r3, [r7, #56]
 413 0034 B342     		cmp	r3, r6
 414 0036 EADC     		bgt	.L31
 309:.\main.c      ****         }
 310:.\main.c      ****     }
 311:.\main.c      ****     return available;
 312:.\main.c      **** }
 415              		.loc 1 312 0 is_stmt 1
 416 0038 F8BD     		pop	{r3, r4, r5, r6, r7, pc}
ARM GAS  C:\Users\mark6\AppData\Local\Temp\ccm1Ykfm.s 			page 14


 417              	.LVL45:
 418              	.L36:
 419 003a 00BF     		.align	2
 420              	.L35:
 421 003c 00000000 		.word	.LANCHOR0
 422              		.cfi_endproc
 423              	.LFE74:
 424              		.size	check_availability, .-check_availability
 425              		.section	.text.generate_menu,"ax",%progbits
 426              		.align	2
 427              		.global	generate_menu
 428              		.thumb
 429              		.thumb_func
 430              		.type	generate_menu, %function
 431              	generate_menu:
 432              	.LFB75:
 313:.\main.c      **** 
 314:.\main.c      **** void generate_menu() {
 433              		.loc 1 314 0
 434              		.cfi_startproc
 435              		@ args = 0, pretend = 0, frame = 0
 436              		@ frame_needed = 0, uses_anonymous_args = 0
 437 0000 10B5     		push	{r4, lr}
 438              		.cfi_def_cfa_offset 8
 439              		.cfi_offset 4, -8
 440              		.cfi_offset 14, -4
 315:.\main.c      ****     // Generates the menu based on what drinks are configured
 316:.\main.c      ****     menu_length = 0;
 441              		.loc 1 316 0
 442 0002 0024     		movs	r4, #0
 443 0004 0B4B     		ldr	r3, .L42
 444 0006 1C60     		str	r4, [r3]
 445              	.LVL46:
 317:.\main.c      ****     int i;
 318:.\main.c      ****     for (i = 0; i < NUM_DRINKS; i++) {
 446              		.loc 1 318 0
 447 0008 0FE0     		b	.L38
 448              	.LVL47:
 449              	.L40:
 450              	.LBB4:
 319:.\main.c      ****         int available = check_availability(drinks[i]);
 451              		.loc 1 319 0
 452 000a 0B4B     		ldr	r3, .L42+4
 453 000c 1B68     		ldr	r3, [r3]
 454 000e 53F82400 		ldr	r0, [r3, r4, lsl #2]
 455 0012 FFF7FEFF 		bl	check_availability
 456              	.LVL48:
 320:.\main.c      ****         if (available) {
 457              		.loc 1 320 0
 458 0016 38B1     		cbz	r0, .L39
 321:.\main.c      ****             menu_indices[menu_length] = i;
 459              		.loc 1 321 0
 460 0018 064B     		ldr	r3, .L42
 461 001a 084A     		ldr	r2, .L42+8
 462 001c 1168     		ldr	r1, [r2]
 463 001e 1A68     		ldr	r2, [r3]
 464 0020 8C54     		strb	r4, [r1, r2]
ARM GAS  C:\Users\mark6\AppData\Local\Temp\ccm1Ykfm.s 			page 15


 322:.\main.c      ****             menu_length++;
 465              		.loc 1 322 0
 466 0022 1A68     		ldr	r2, [r3]
 467 0024 0132     		adds	r2, r2, #1
 468 0026 1A60     		str	r2, [r3]
 469              	.L39:
 470              	.LBE4:
 318:.\main.c      ****         int available = check_availability(drinks[i]);
 471              		.loc 1 318 0 discriminator 2
 472 0028 0134     		adds	r4, r4, #1
 473              	.LVL49:
 474              	.L38:
 318:.\main.c      ****         int available = check_availability(drinks[i]);
 475              		.loc 1 318 0 is_stmt 0 discriminator 1
 476 002a 054B     		ldr	r3, .L42+12
 477 002c 1B68     		ldr	r3, [r3]
 478 002e 9C42     		cmp	r4, r3
 479 0030 EBDB     		blt	.L40
 323:.\main.c      ****         }
 324:.\main.c      ****     }
 325:.\main.c      **** }
 480              		.loc 1 325 0 is_stmt 1
 481 0032 10BD     		pop	{r4, pc}
 482              	.LVL50:
 483              	.L43:
 484              		.align	2
 485              	.L42:
 486 0034 00000000 		.word	.LANCHOR1
 487 0038 00000000 		.word	drinks
 488 003c 00000000 		.word	menu_indices
 489 0040 00000000 		.word	NUM_DRINKS
 490              		.cfi_endproc
 491              	.LFE75:
 492              		.size	generate_menu, .-generate_menu
 493              		.section	.text.display_config,"ax",%progbits
 494              		.align	2
 495              		.global	display_config
 496              		.thumb
 497              		.thumb_func
 498              		.type	display_config, %function
 499              	display_config:
 500              	.LFB78:
 326:.\main.c      **** 
 327:.\main.c      **** void update_dispenser_text() {
 328:.\main.c      ****     if (menu_length != 0) {
 329:.\main.c      ****         GUI_SetColor(LIGHTGRAY); // Show two inactive  
 330:.\main.c      ****         
 331:.\main.c      ****         GUI_DispStringInRectWrap("                   ", &dispenser_rects[2], GUI_TA_HCENTER | GUI_T
 332:.\main.c      ****         GUI_DispStringInRectWrap(drinks[menu_indices[clean_number(drink_scroll-1, menu_length)]]->n
 333:.\main.c      ****         
 334:.\main.c      ****         GUI_DispStringInRectWrap("                   ", &dispenser_rects[0], GUI_TA_HCENTER | GUI_T
 335:.\main.c      ****         GUI_DispStringInRectWrap(drinks[menu_indices[clean_number(drink_scroll+1, menu_length)]]->n
 336:.\main.c      ****         
 337:.\main.c      ****         GUI_SetColor(WHITE); // Active one
 338:.\main.c      ****         
 339:.\main.c      ****         GUI_DispStringInRectWrap("                   ", &dispenser_rects[1], GUI_TA_HCENTER | GUI_T
 340:.\main.c      ****         GUI_DispStringInRectWrap(drinks[menu_indices[drink_scroll]]->name, &dispenser_rects[1], GUI
ARM GAS  C:\Users\mark6\AppData\Local\Temp\ccm1Ykfm.s 			page 16


 341:.\main.c      ****     }
 342:.\main.c      **** }
 343:.\main.c      **** 
 344:.\main.c      **** void display_dispenser() {
 345:.\main.c      ****     current_display = DISPLAY;
 346:.\main.c      ****     generate_menu();
 347:.\main.c      ****     GUI_Clear();
 348:.\main.c      ****     if (menu_length == 0) {
 349:.\main.c      ****         GUI_DispStringInRectWrap("Mork or Chungie, set this bitch up", &dispenser_rects[1], GUI_TA_
 350:.\main.c      ****     } else {
 351:.\main.c      **** 
 352:.\main.c      ****     GUI_SetColor(WHITE);
 353:.\main.c      ****     GUI_FillCircle(20, SCREEN_Y/2, 10); // Submit Symbol
 354:.\main.c      ****     GUI_SetColor(GREEN);
 355:.\main.c      ****     GUI_FillCircle(20, SCREEN_Y/2, 5);
 356:.\main.c      ****     GUI_SetColor(WHITE);
 357:.\main.c      ****     GUI_FillPolygon(UpArrowPoints, GUI_COUNTOF(UpArrowPoints), 280, 40);
 358:.\main.c      ****     GUI_FillPolygon(DownArrowPoints, GUI_COUNTOF(DownArrowPoints), 280, 180);
 359:.\main.c      ****     GUI_RECT rect = dispenser_rects[SHOWN_DRINKS];
 360:.\main.c      ****     GUI_DispStringInRectWrap("Welcome to Mork and Chungus's Bar Bot!", &rect, GUI_TA_HCENTER | GUI_
 361:.\main.c      ****     rect = dispenser_rects[1];
 362:.\main.c      ****     // Top Line
 363:.\main.c      ****     GUI_DrawLine(rect.x0, rect.y0, rect.x1, rect.y0);
 364:.\main.c      ****     // Left Line
 365:.\main.c      ****     GUI_DrawLine(rect.x0, rect.y0, rect.x0, rect.y1);
 366:.\main.c      ****     // Right Line
 367:.\main.c      ****     GUI_DrawLine(rect.x1, rect.y0, rect.x1, rect.y1);
 368:.\main.c      ****     // Bottom Line
 369:.\main.c      ****     GUI_DrawLine(rect.x0, rect.y1, rect.x1, rect.y1);
 370:.\main.c      ****     update_dispenser_text();
 371:.\main.c      ****     }
 372:.\main.c      **** }
 373:.\main.c      **** 
 374:.\main.c      **** 
 375:.\main.c      **** 
 376:.\main.c      **** void display_config() {
 501              		.loc 1 376 0
 502              		.cfi_startproc
 503              		@ args = 0, pretend = 0, frame = 16
 504              		@ frame_needed = 0, uses_anonymous_args = 0
 505 0000 10B5     		push	{r4, lr}
 506              		.cfi_def_cfa_offset 8
 507              		.cfi_offset 4, -8
 508              		.cfi_offset 14, -4
 509 0002 84B0     		sub	sp, sp, #16
 510              		.cfi_def_cfa_offset 24
 377:.\main.c      ****     GUI_Clear();
 511              		.loc 1 377 0
 512 0004 FFF7FEFF 		bl	GUI_Clear
 513              	.LVL51:
 378:.\main.c      ****     GUI_SetColor(WHITE);
 514              		.loc 1 378 0
 515 0008 6FF07F40 		mvn	r0, #-16777216
 516 000c FFF7FEFF 		bl	GUI_SetColor
 517              	.LVL52:
 379:.\main.c      ****     // Configuration Menu at top
 380:.\main.c      ****     GUI_RECT rect = rects[6];
ARM GAS  C:\Users\mark6\AppData\Local\Temp\ccm1Ykfm.s 			page 17


 518              		.loc 1 380 0
 519 0010 524C     		ldr	r4, .L48
 520 0012 02AB     		add	r3, sp, #8
 521 0014 2246     		mov	r2, r4
 522 0016 52F8300F 		ldr	r0, [r2, #48]!	@ unaligned
 523 001a 5168     		ldr	r1, [r2, #4]	@ unaligned
 524 001c 03C3     		stmia	r3!, {r0, r1}
 381:.\main.c      ****     // Top Line
 382:.\main.c      ****     GUI_DrawLine(rect.x0, rect.y0, rect.x1, rect.y0);
 525              		.loc 1 382 0
 526 001e BDF90A30 		ldrsh	r3, [sp, #10]
 527 0022 BDF90800 		ldrsh	r0, [sp, #8]
 528 0026 1946     		mov	r1, r3
 529 0028 BDF90C20 		ldrsh	r2, [sp, #12]
 530 002c FFF7FEFF 		bl	GUI_DrawLine
 531              	.LVL53:
 383:.\main.c      ****     // Left Line
 384:.\main.c      ****     GUI_DrawLine(rect.x0, rect.y0, rect.x0, rect.y1);
 532              		.loc 1 384 0
 533 0030 BDF90820 		ldrsh	r2, [sp, #8]
 534 0034 1046     		mov	r0, r2
 535 0036 BDF90A10 		ldrsh	r1, [sp, #10]
 536 003a BDF90E30 		ldrsh	r3, [sp, #14]
 537 003e FFF7FEFF 		bl	GUI_DrawLine
 538              	.LVL54:
 385:.\main.c      ****     // Right Line
 386:.\main.c      ****     GUI_DrawLine(rect.x1, rect.y0, rect.x1, rect.y1);
 539              		.loc 1 386 0
 540 0042 BDF90C20 		ldrsh	r2, [sp, #12]
 541 0046 1046     		mov	r0, r2
 542 0048 BDF90A10 		ldrsh	r1, [sp, #10]
 543 004c BDF90E30 		ldrsh	r3, [sp, #14]
 544 0050 FFF7FEFF 		bl	GUI_DrawLine
 545              	.LVL55:
 387:.\main.c      ****     // Bottom Line
 388:.\main.c      ****     GUI_DrawLine(rect.x0, rect.y1, rect.x1, rect.y1);    
 546              		.loc 1 388 0
 547 0054 BDF90E30 		ldrsh	r3, [sp, #14]
 548 0058 BDF90800 		ldrsh	r0, [sp, #8]
 549 005c 1946     		mov	r1, r3
 550 005e BDF90C20 		ldrsh	r2, [sp, #12]
 551 0062 FFF7FEFF 		bl	GUI_DrawLine
 552              	.LVL56:
 389:.\main.c      ****     GUI_DispStringInRectWrap("Configuration Menu", &rect, GUI_TA_HCENTER | GUI_TA_VCENTER, GUI_WRAP
 553              		.loc 1 389 0
 554 0066 3E48     		ldr	r0, .L48+4
 555 0068 02A9     		add	r1, sp, #8
 556 006a 0E22     		movs	r2, #14
 557 006c 0123     		movs	r3, #1
 558 006e FFF7FEFF 		bl	GUI_DispStringInRectWrap
 559              	.LVL57:
 390:.\main.c      ****     
 391:.\main.c      ****     // Clean tubes at bottom
 392:.\main.c      ****     rect = rects[7];
 560              		.loc 1 392 0
 561 0072 02AA     		add	r2, sp, #8
 562 0074 2346     		mov	r3, r4
ARM GAS  C:\Users\mark6\AppData\Local\Temp\ccm1Ykfm.s 			page 18


 563 0076 53F8380F 		ldr	r0, [r3, #56]!	@ unaligned
 564 007a 5968     		ldr	r1, [r3, #4]	@ unaligned
 565 007c 03C2     		stmia	r2!, {r0, r1}
 393:.\main.c      ****     // Top Line
 394:.\main.c      ****     GUI_DrawLine(rect.x0, rect.y0, rect.x1, rect.y0);
 566              		.loc 1 394 0
 567 007e BDF90A30 		ldrsh	r3, [sp, #10]
 568 0082 BDF90800 		ldrsh	r0, [sp, #8]
 569 0086 1946     		mov	r1, r3
 570 0088 BDF90C20 		ldrsh	r2, [sp, #12]
 571 008c FFF7FEFF 		bl	GUI_DrawLine
 572              	.LVL58:
 395:.\main.c      ****     // Left Line
 396:.\main.c      ****     GUI_DrawLine(rect.x0, rect.y0, rect.x0, rect.y1);
 573              		.loc 1 396 0
 574 0090 BDF90820 		ldrsh	r2, [sp, #8]
 575 0094 1046     		mov	r0, r2
 576 0096 BDF90A10 		ldrsh	r1, [sp, #10]
 577 009a BDF90E30 		ldrsh	r3, [sp, #14]
 578 009e FFF7FEFF 		bl	GUI_DrawLine
 579              	.LVL59:
 397:.\main.c      ****     // Right Line
 398:.\main.c      ****     GUI_DrawLine(rect.x1, rect.y0, rect.x1, rect.y1);
 580              		.loc 1 398 0
 581 00a2 BDF90C20 		ldrsh	r2, [sp, #12]
 582 00a6 1046     		mov	r0, r2
 583 00a8 BDF90A10 		ldrsh	r1, [sp, #10]
 584 00ac BDF90E30 		ldrsh	r3, [sp, #14]
 585 00b0 FFF7FEFF 		bl	GUI_DrawLine
 586              	.LVL60:
 399:.\main.c      ****     // Bottom Line
 400:.\main.c      ****     GUI_DrawLine(rect.x0, rect.y1, rect.x1, rect.y1);    
 587              		.loc 1 400 0
 588 00b4 BDF90E30 		ldrsh	r3, [sp, #14]
 589 00b8 BDF90800 		ldrsh	r0, [sp, #8]
 590 00bc 1946     		mov	r1, r3
 591 00be BDF90C20 		ldrsh	r2, [sp, #12]
 592 00c2 FFF7FEFF 		bl	GUI_DrawLine
 593              	.LVL61:
 401:.\main.c      ****     GUI_DispStringInRectWrap("Clean Tubing", &rect, GUI_TA_HCENTER | GUI_TA_VCENTER, GUI_WRAPMODE_W
 594              		.loc 1 401 0
 595 00c6 2748     		ldr	r0, .L48+8
 596 00c8 02A9     		add	r1, sp, #8
 597 00ca 0E22     		movs	r2, #14
 598 00cc 0123     		movs	r3, #1
 599 00ce FFF7FEFF 		bl	GUI_DispStringInRectWrap
 600              	.LVL62:
 402:.\main.c      ****     int i = 0;     
 403:.\main.c      ****     for (i = 0; i < MOTOR_COUNT; i++) {
 601              		.loc 1 403 0
 602 00d2 0024     		movs	r4, #0
 603 00d4 36E0     		b	.L45
 604              	.LVL63:
 605              	.L46:
 606              	.LBB5:
 404:.\main.c      ****         GUI_RECT rect = rects[i];
 607              		.loc 1 404 0 discriminator 3
ARM GAS  C:\Users\mark6\AppData\Local\Temp\ccm1Ykfm.s 			page 19


 608 00d6 6B46     		mov	r3, sp
 609 00d8 204A     		ldr	r2, .L48
 610 00da 02EBC402 		add	r2, r2, r4, lsl #3
 611 00de 1068     		ldr	r0, [r2]	@ unaligned
 612 00e0 5168     		ldr	r1, [r2, #4]	@ unaligned
 613 00e2 03C3     		stmia	r3!, {r0, r1}
 405:.\main.c      ****         // Top Line
 406:.\main.c      ****         GUI_DrawLine(rect.x0, rect.y0, rect.x1, rect.y0);
 614              		.loc 1 406 0 discriminator 3
 615 00e4 BDF90230 		ldrsh	r3, [sp, #2]
 616 00e8 BDF90000 		ldrsh	r0, [sp]
 617 00ec 1946     		mov	r1, r3
 618 00ee BDF90420 		ldrsh	r2, [sp, #4]
 619 00f2 FFF7FEFF 		bl	GUI_DrawLine
 620              	.LVL64:
 407:.\main.c      ****         // Left Line
 408:.\main.c      ****         GUI_DrawLine(rect.x0, rect.y0, rect.x0, rect.y1);
 621              		.loc 1 408 0 discriminator 3
 622 00f6 BDF90020 		ldrsh	r2, [sp]
 623 00fa 1046     		mov	r0, r2
 624 00fc BDF90210 		ldrsh	r1, [sp, #2]
 625 0100 BDF90630 		ldrsh	r3, [sp, #6]
 626 0104 FFF7FEFF 		bl	GUI_DrawLine
 627              	.LVL65:
 409:.\main.c      ****         // Right Line
 410:.\main.c      ****         GUI_DrawLine(rect.x1, rect.y0, rect.x1, rect.y1);
 628              		.loc 1 410 0 discriminator 3
 629 0108 BDF90420 		ldrsh	r2, [sp, #4]
 630 010c 1046     		mov	r0, r2
 631 010e BDF90210 		ldrsh	r1, [sp, #2]
 632 0112 BDF90630 		ldrsh	r3, [sp, #6]
 633 0116 FFF7FEFF 		bl	GUI_DrawLine
 634              	.LVL66:
 411:.\main.c      ****         // Bottom Line
 412:.\main.c      ****         GUI_DrawLine(rect.x0, rect.y1, rect.x1, rect.y1);
 635              		.loc 1 412 0 discriminator 3
 636 011a BDF90630 		ldrsh	r3, [sp, #6]
 637 011e BDF90000 		ldrsh	r0, [sp]
 638 0122 1946     		mov	r1, r3
 639 0124 BDF90420 		ldrsh	r2, [sp, #4]
 640 0128 FFF7FEFF 		bl	GUI_DrawLine
 641              	.LVL67:
 413:.\main.c      ****         
 414:.\main.c      ****         GUI_DispStringInRectWrap(Liquids[config_data[i]], &rect, GUI_TA_HCENTER | GUI_TA_VCENTER, G
 642              		.loc 1 414 0 discriminator 3
 643 012c 0E4B     		ldr	r3, .L48+12
 644 012e 1A5D     		ldrb	r2, [r3, r4]	@ zero_extendqisi2
 645 0130 0E4B     		ldr	r3, .L48+16
 646 0132 3220     		movs	r0, #50
 647 0134 00FB0230 		mla	r0, r0, r2, r3
 648 0138 6946     		mov	r1, sp
 649 013a 0E22     		movs	r2, #14
 650 013c 0123     		movs	r3, #1
 651 013e FFF7FEFF 		bl	GUI_DispStringInRectWrap
 652              	.LVL68:
 653              	.LBE5:
 403:.\main.c      ****         GUI_RECT rect = rects[i];
ARM GAS  C:\Users\mark6\AppData\Local\Temp\ccm1Ykfm.s 			page 20


 654              		.loc 1 403 0 discriminator 3
 655 0142 0134     		adds	r4, r4, #1
 656              	.LVL69:
 657              	.L45:
 403:.\main.c      ****         GUI_RECT rect = rects[i];
 658              		.loc 1 403 0 is_stmt 0 discriminator 1
 659 0144 052C     		cmp	r4, #5
 660 0146 C6DD     		ble	.L46
 415:.\main.c      ****     }
 416:.\main.c      ****     current_display = CONFIG;
 661              		.loc 1 416 0 is_stmt 1
 662 0148 0021     		movs	r1, #0
 663 014a 094B     		ldr	r3, .L48+20
 664 014c 1970     		strb	r1, [r3]
 417:.\main.c      ****     draw_active_config(0, 0, PINK);
 665              		.loc 1 417 0
 666 014e 0846     		mov	r0, r1
 667 0150 084A     		ldr	r2, .L48+24
 668 0152 FFF7FEFF 		bl	draw_active_config
 669              	.LVL70:
 418:.\main.c      **** }
 670              		.loc 1 418 0
 671 0156 04B0     		add	sp, sp, #16
 672              		.cfi_def_cfa_offset 8
 673              		@ sp needed
 674 0158 10BD     		pop	{r4, pc}
 675              	.LVL71:
 676              	.L49:
 677 015a 00BF     		.align	2
 678              	.L48:
 679 015c 00000000 		.word	rects
 680 0160 24000000 		.word	.LC1
 681 0164 38000000 		.word	.LC2
 682 0168 00000000 		.word	.LANCHOR0
 683 016c 00000000 		.word	Liquids
 684 0170 00000000 		.word	current_display
 685 0174 E370F600 		.word	16150755
 686              		.cfi_endproc
 687              	.LFE78:
 688              		.size	display_config, .-display_config
 689              		.section	.text.create_dispenser_rects,"ax",%progbits
 690              		.align	2
 691              		.global	create_dispenser_rects
 692              		.thumb
 693              		.thumb_func
 694              		.type	create_dispenser_rects, %function
 695              	create_dispenser_rects:
 696              	.LFB79:
 419:.\main.c      **** // Setup Display Functions
 420:.\main.c      **** void create_dispenser_rects() {
 697              		.loc 1 420 0
 698              		.cfi_startproc
 699              		@ args = 0, pretend = 0, frame = 16
 700              		@ frame_needed = 0, uses_anonymous_args = 0
 701              		@ link register save eliminated.
 702 0000 70B4     		push	{r4, r5, r6}
 703              		.cfi_def_cfa_offset 12
ARM GAS  C:\Users\mark6\AppData\Local\Temp\ccm1Ykfm.s 			page 21


 704              		.cfi_offset 4, -12
 705              		.cfi_offset 5, -8
 706              		.cfi_offset 6, -4
 707 0002 85B0     		sub	sp, sp, #20
 708              		.cfi_def_cfa_offset 32
 709              	.LVL72:
 421:.\main.c      ****     int i;
 422:.\main.c      ****     int x_padding = 60;
 423:.\main.c      ****     int y_padding = 75;
 424:.\main.c      ****     int y_inc = 30;
 425:.\main.c      ****     int y = 0;
 426:.\main.c      ****     GUI_RECT title_rect = {MARGIN, MARGIN, SCREEN_X-MARGIN, MARGIN+y_inc};
 710              		.loc 1 426 0
 711 0004 0A23     		movs	r3, #10
 712 0006 ADF80830 		strh	r3, [sp, #8]	@ movhi
 713 000a ADF80A30 		strh	r3, [sp, #10]	@ movhi
 714 000e 4FF49B73 		mov	r3, #310
 715 0012 ADF80C30 		strh	r3, [sp, #12]	@ movhi
 716 0016 2823     		movs	r3, #40
 717 0018 ADF80E30 		strh	r3, [sp, #14]	@ movhi
 427:.\main.c      ****     dispenser_rects[SHOWN_DRINKS] = title_rect;
 718              		.loc 1 427 0
 719 001c 144A     		ldr	r2, .L54
 720 001e 02AB     		add	r3, sp, #8
 721 0020 03CB     		ldmia	r3!, {r0, r1}
 722 0022 9061     		str	r0, [r2, #24]	@ unaligned
 723 0024 D161     		str	r1, [r2, #28]	@ unaligned
 724              	.LVL73:
 425:.\main.c      ****     GUI_RECT title_rect = {MARGIN, MARGIN, SCREEN_X-MARGIN, MARGIN+y_inc};
 725              		.loc 1 425 0
 726 0026 0023     		movs	r3, #0
 428:.\main.c      ****     for (i = 0; i < SHOWN_DRINKS; i++) {
 727              		.loc 1 428 0
 728 0028 1A46     		mov	r2, r3
 729 002a 1CE0     		b	.L51
 730              	.LVL74:
 731              	.L52:
 732              	.LBB6:
 429:.\main.c      ****         GUI_RECT new_rect = {x_padding, (y*y_inc)+y_padding, (SCREEN_X-x_padding), ((y+1)*y_inc)+ y
 733              		.loc 1 429 0 discriminator 3
 734 002c 3C21     		movs	r1, #60
 735 002e ADF80010 		strh	r1, [sp]	@ movhi
 736 0032 C3EB0310 		rsb	r0, r3, r3, lsl #4
 737 0036 4100     		lsls	r1, r0, #1
 738 0038 4B31     		adds	r1, r1, #75
 739 003a ADF80210 		strh	r1, [sp, #2]	@ movhi
 740 003e 4FF48271 		mov	r1, #260
 741 0042 ADF80410 		strh	r1, [sp, #4]	@ movhi
 742 0046 0133     		adds	r3, r3, #1
 743              	.LVL75:
 744 0048 C3EB0310 		rsb	r0, r3, r3, lsl #4
 745 004c 4100     		lsls	r1, r0, #1
 746 004e 4B31     		adds	r1, r1, #75
 747 0050 ADF80610 		strh	r1, [sp, #6]	@ movhi
 430:.\main.c      ****         dispenser_rects[i] = new_rect;      
 748              		.loc 1 430 0 discriminator 3
 749 0054 064D     		ldr	r5, .L54
ARM GAS  C:\Users\mark6\AppData\Local\Temp\ccm1Ykfm.s 			page 22


 750 0056 05EBC206 		add	r6, r5, r2, lsl #3
 751 005a 6C46     		mov	r4, sp
 752 005c 03CC     		ldmia	r4!, {r0, r1}
 753 005e 45F83200 		str	r0, [r5, r2, lsl #3]	@ unaligned
 754 0062 7160     		str	r1, [r6, #4]	@ unaligned
 755              	.LVL76:
 756              	.LBE6:
 428:.\main.c      ****     for (i = 0; i < SHOWN_DRINKS; i++) {
 757              		.loc 1 428 0 discriminator 3
 758 0064 0132     		adds	r2, r2, #1
 759              	.LVL77:
 760              	.L51:
 428:.\main.c      ****     for (i = 0; i < SHOWN_DRINKS; i++) {
 761              		.loc 1 428 0 is_stmt 0 discriminator 1
 762 0066 022A     		cmp	r2, #2
 763 0068 E0DD     		ble	.L52
 431:.\main.c      ****         y++;
 432:.\main.c      ****     }
 433:.\main.c      **** }
 764              		.loc 1 433 0 is_stmt 1
 765 006a 05B0     		add	sp, sp, #20
 766              		.cfi_def_cfa_offset 12
 767              		@ sp needed
 768 006c 70BC     		pop	{r4, r5, r6}
 769              		.cfi_restore 6
 770              		.cfi_restore 5
 771              		.cfi_restore 4
 772              		.cfi_def_cfa_offset 0
 773 006e 7047     		bx	lr
 774              	.L55:
 775              		.align	2
 776              	.L54:
 777 0070 00000000 		.word	dispenser_rects
 778              		.cfi_endproc
 779              	.LFE79:
 780              		.size	create_dispenser_rects, .-create_dispenser_rects
 781              		.section	.text.create_config_rects,"ax",%progbits
 782              		.align	2
 783              		.global	create_config_rects
 784              		.thumb
 785              		.thumb_func
 786              		.type	create_config_rects, %function
 787              	create_config_rects:
 788              	.LFB80:
 434:.\main.c      **** void create_config_rects() {
 789              		.loc 1 434 0
 790              		.cfi_startproc
 791              		@ args = 0, pretend = 0, frame = 24
 792              		@ frame_needed = 0, uses_anonymous_args = 0
 793              		@ link register save eliminated.
 794 0000 F0B4     		push	{r4, r5, r6, r7}
 795              		.cfi_def_cfa_offset 16
 796              		.cfi_offset 4, -16
 797              		.cfi_offset 5, -12
 798              		.cfi_offset 6, -8
 799              		.cfi_offset 7, -4
 800 0002 86B0     		sub	sp, sp, #24
ARM GAS  C:\Users\mark6\AppData\Local\Temp\ccm1Ykfm.s 			page 23


 801              		.cfi_def_cfa_offset 40
 802              	.LVL78:
 435:.\main.c      ****     // Creates the rectangles needed to display our data, creates two full width
 436:.\main.c      ****     // rectangles then pairs the rest of the way down.
 437:.\main.c      ****     int x = 0;
 438:.\main.c      ****     int y = 0;
 439:.\main.c      ****     uint i;
 440:.\main.c      ****     int config_inc = 20;
 441:.\main.c      ****     GUI_RECT title_rect = {MARGIN, MARGIN, SCREEN_X-MARGIN, MARGIN+config_inc};
 803              		.loc 1 441 0
 804 0004 0A24     		movs	r4, #10
 805 0006 ADF81040 		strh	r4, [sp, #16]	@ movhi
 806 000a ADF81240 		strh	r4, [sp, #18]	@ movhi
 807 000e 4FF49B75 		mov	r5, #310
 808 0012 ADF81450 		strh	r5, [sp, #20]	@ movhi
 809 0016 1E23     		movs	r3, #30
 810 0018 ADF81630 		strh	r3, [sp, #22]	@ movhi
 442:.\main.c      ****     rects[6] = title_rect;
 811              		.loc 1 442 0
 812 001c 454B     		ldr	r3, .L64
 813 001e 04AA     		add	r2, sp, #16
 814 0020 03CA     		ldmia	r2!, {r0, r1}
 815 0022 1863     		str	r0, [r3, #48]	@ unaligned
 816 0024 5963     		str	r1, [r3, #52]	@ unaligned
 443:.\main.c      ****     GUI_RECT clean_rect = {MARGIN, SCREEN_Y-MARGIN-config_inc, SCREEN_X-MARGIN, SCREEN_Y-MARGIN};
 817              		.loc 1 443 0
 818 0026 ADF80840 		strh	r4, [sp, #8]	@ movhi
 819 002a D222     		movs	r2, #210
 820 002c ADF80A20 		strh	r2, [sp, #10]	@ movhi
 821 0030 ADF80C50 		strh	r5, [sp, #12]	@ movhi
 822 0034 E622     		movs	r2, #230
 823 0036 ADF80E20 		strh	r2, [sp, #14]	@ movhi
 444:.\main.c      ****     rects[7] = clean_rect;
 824              		.loc 1 444 0
 825 003a 02AA     		add	r2, sp, #8
 826 003c 03CA     		ldmia	r2!, {r0, r1}
 827 003e 9863     		str	r0, [r3, #56]	@ unaligned
 828 0040 D963     		str	r1, [r3, #60]	@ unaligned
 829              	.LVL79:
 445:.\main.c      **** 
 446:.\main.c      ****     for (i = 0; i < MOTOR_COUNT; i++) {
 830              		.loc 1 446 0
 831 0042 0024     		movs	r4, #0
 438:.\main.c      ****     uint i;
 832              		.loc 1 438 0
 833 0044 2546     		mov	r5, r4
 437:.\main.c      ****     int y = 0;
 834              		.loc 1 437 0
 835 0046 2346     		mov	r3, r4
 836              		.loc 1 446 0
 837 0048 6FE0     		b	.L57
 838              	.LVL80:
 839              	.L62:
 447:.\main.c      ****         if (x == 0) {
 840              		.loc 1 447 0
 841 004a FBB9     		cbnz	r3, .L58
 842              	.LBB7:
ARM GAS  C:\Users\mark6\AppData\Local\Temp\ccm1Ykfm.s 			page 24


 448:.\main.c      ****             // left
 449:.\main.c      ****             GUI_RECT new_rect = {MARGIN, MARGIN+(y*Y_INC)+config_inc, (SCREEN_X-MARGIN) /3, MARGIN+
 843              		.loc 1 449 0
 844 004c 0A22     		movs	r2, #10
 845 004e ADF80020 		strh	r2, [sp]	@ movhi
 846 0052 05EB4502 		add	r2, r5, r5, lsl #1
 847 0056 C2EB0212 		rsb	r2, r2, r2, lsl #4
 848 005a 5100     		lsls	r1, r2, #1
 849 005c 1E31     		adds	r1, r1, #30
 850 005e ADF80210 		strh	r1, [sp, #2]	@ movhi
 851 0062 6722     		movs	r2, #103
 852 0064 ADF80420 		strh	r2, [sp, #4]	@ movhi
 853 0068 6A1C     		adds	r2, r5, #1
 854 006a 02EB4202 		add	r2, r2, r2, lsl #1
 855 006e C2EB0212 		rsb	r2, r2, r2, lsl #4
 856 0072 5100     		lsls	r1, r2, #1
 857 0074 1E31     		adds	r1, r1, #30
 858 0076 ADF80610 		strh	r1, [sp, #6]	@ movhi
 450:.\main.c      ****             rects[i] = new_rect;
 859              		.loc 1 450 0
 860 007a 2E4E     		ldr	r6, .L64
 861 007c 06EBC407 		add	r7, r6, r4, lsl #3
 862 0080 6A46     		mov	r2, sp
 863 0082 03CA     		ldmia	r2!, {r0, r1}
 864 0084 46F83400 		str	r0, [r6, r4, lsl #3]	@ unaligned
 865 0088 7960     		str	r1, [r7, #4]	@ unaligned
 866              	.LBE7:
 867 008a 41E0     		b	.L59
 868              	.L58:
 451:.\main.c      ****         } else if (x == 1) {
 869              		.loc 1 451 0
 870 008c 012B     		cmp	r3, #1
 871 008e 1FD1     		bne	.L60
 872              	.LBB8:
 452:.\main.c      ****             // middle
 453:.\main.c      ****             GUI_RECT new_rect = {(SCREEN_X-MARGIN) /3, MARGIN+(y*Y_INC)+config_inc, (SCREEN_X-MARGI
 873              		.loc 1 453 0
 874 0090 6722     		movs	r2, #103
 875 0092 ADF80020 		strh	r2, [sp]	@ movhi
 876 0096 05EB4502 		add	r2, r5, r5, lsl #1
 877 009a C2EB0212 		rsb	r2, r2, r2, lsl #4
 878 009e 5100     		lsls	r1, r2, #1
 879 00a0 1E31     		adds	r1, r1, #30
 880 00a2 ADF80210 		strh	r1, [sp, #2]	@ movhi
 881 00a6 CE22     		movs	r2, #206
 882 00a8 ADF80420 		strh	r2, [sp, #4]	@ movhi
 883 00ac 6A1C     		adds	r2, r5, #1
 884 00ae 02EB4202 		add	r2, r2, r2, lsl #1
 885 00b2 C2EB0212 		rsb	r2, r2, r2, lsl #4
 886 00b6 5100     		lsls	r1, r2, #1
 887 00b8 1E31     		adds	r1, r1, #30
 888 00ba ADF80610 		strh	r1, [sp, #6]	@ movhi
 454:.\main.c      ****             rects[i] = new_rect;
 889              		.loc 1 454 0
 890 00be 1D4E     		ldr	r6, .L64
 891 00c0 06EBC407 		add	r7, r6, r4, lsl #3
 892 00c4 6A46     		mov	r2, sp
ARM GAS  C:\Users\mark6\AppData\Local\Temp\ccm1Ykfm.s 			page 25


 893 00c6 03CA     		ldmia	r2!, {r0, r1}
 894 00c8 46F83400 		str	r0, [r6, r4, lsl #3]	@ unaligned
 895 00cc 7960     		str	r1, [r7, #4]	@ unaligned
 896              	.LBE8:
 897 00ce 1FE0     		b	.L59
 898              	.L60:
 899              	.LBB9:
 455:.\main.c      ****         }
 456:.\main.c      ****         else {
 457:.\main.c      ****             // right
 458:.\main.c      ****             GUI_RECT new_rect = {(SCREEN_X-MARGIN)*2 /3, MARGIN+(y*Y_INC)+config_inc, SCREEN_X-MARG
 900              		.loc 1 458 0
 901 00d0 CE22     		movs	r2, #206
 902 00d2 ADF80020 		strh	r2, [sp]	@ movhi
 903 00d6 05EB4502 		add	r2, r5, r5, lsl #1
 904 00da C2EB0212 		rsb	r2, r2, r2, lsl #4
 905 00de 5100     		lsls	r1, r2, #1
 906 00e0 1E31     		adds	r1, r1, #30
 907 00e2 ADF80210 		strh	r1, [sp, #2]	@ movhi
 908 00e6 4FF49B72 		mov	r2, #310
 909 00ea ADF80420 		strh	r2, [sp, #4]	@ movhi
 910 00ee 6A1C     		adds	r2, r5, #1
 911 00f0 02EB4202 		add	r2, r2, r2, lsl #1
 912 00f4 C2EB0212 		rsb	r2, r2, r2, lsl #4
 913 00f8 5100     		lsls	r1, r2, #1
 914 00fa 1E31     		adds	r1, r1, #30
 915 00fc ADF80610 		strh	r1, [sp, #6]	@ movhi
 459:.\main.c      ****             rects[i] = new_rect;
 916              		.loc 1 459 0
 917 0100 0C4E     		ldr	r6, .L64
 918 0102 06EBC407 		add	r7, r6, r4, lsl #3
 919 0106 6A46     		mov	r2, sp
 920 0108 03CA     		ldmia	r2!, {r0, r1}
 921 010a 46F83400 		str	r0, [r6, r4, lsl #3]	@ unaligned
 922 010e 7960     		str	r1, [r7, #4]	@ unaligned
 923              	.L59:
 924              	.LBE9:
 460:.\main.c      ****         }
 461:.\main.c      ****         if (x == 2) {
 925              		.loc 1 461 0
 926 0110 022B     		cmp	r3, #2
 927 0112 00D1     		bne	.L61
 462:.\main.c      ****             y++; // go to next line if end of this line
 928              		.loc 1 462 0
 929 0114 0135     		adds	r5, r5, #1
 930              	.LVL81:
 931              	.L61:
 463:.\main.c      ****         }
 464:.\main.c      ****         x++; // increment the side for the next one
 932              		.loc 1 464 0 discriminator 2
 933 0116 5A1C     		adds	r2, r3, #1
 934              	.LVL82:
 465:.\main.c      ****         x %= 3;
 935              		.loc 1 465 0 discriminator 2
 936 0118 074B     		ldr	r3, .L64+4
 937 011a 83FB0213 		smull	r1, r3, r3, r2
 938 011e A3EBE273 		sub	r3, r3, r2, asr #31
ARM GAS  C:\Users\mark6\AppData\Local\Temp\ccm1Ykfm.s 			page 26


 939 0122 03EB4303 		add	r3, r3, r3, lsl #1
 940 0126 D31A     		subs	r3, r2, r3
 941              	.LVL83:
 446:.\main.c      ****         if (x == 0) {
 942              		.loc 1 446 0 discriminator 2
 943 0128 0134     		adds	r4, r4, #1
 944              	.LVL84:
 945              	.L57:
 446:.\main.c      ****         if (x == 0) {
 946              		.loc 1 446 0 is_stmt 0 discriminator 1
 947 012a 052C     		cmp	r4, #5
 948 012c 8DD9     		bls	.L62
 466:.\main.c      ****     }
 467:.\main.c      **** }
 949              		.loc 1 467 0 is_stmt 1
 950 012e 06B0     		add	sp, sp, #24
 951              		.cfi_def_cfa_offset 16
 952              		@ sp needed
 953 0130 F0BC     		pop	{r4, r5, r6, r7}
 954              		.cfi_restore 7
 955              		.cfi_restore 6
 956              		.cfi_restore 5
 957              		.cfi_restore 4
 958              		.cfi_def_cfa_offset 0
 959              	.LVL85:
 960 0132 7047     		bx	lr
 961              	.L65:
 962              		.align	2
 963              	.L64:
 964 0134 00000000 		.word	rects
 965 0138 56555555 		.word	1431655766
 966              		.cfi_endproc
 967              	.LFE80:
 968              		.size	create_config_rects, .-create_config_rects
 969              		.section	.text.clean_number,"ax",%progbits
 970              		.align	2
 971              		.global	clean_number
 972              		.thumb
 973              		.thumb_func
 974              		.type	clean_number, %function
 975              	clean_number:
 976              	.LFB81:
 468:.\main.c      **** 
 469:.\main.c      **** // Utility Functions
 470:.\main.c      **** 
 471:.\main.c      **** int clean_number(int num, int count) {
 977              		.loc 1 471 0
 978              		.cfi_startproc
 979              		@ args = 0, pretend = 0, frame = 0
 980              		@ frame_needed = 0, uses_anonymous_args = 0
 981              		@ link register save eliminated.
 982              	.LVL86:
 472:.\main.c      ****     return (num + count) % count;
 983              		.loc 1 472 0
 984 0000 0844     		add	r0, r0, r1
 985              	.LVL87:
 986 0002 90FBF1F3 		sdiv	r3, r0, r1
ARM GAS  C:\Users\mark6\AppData\Local\Temp\ccm1Ykfm.s 			page 27


 473:.\main.c      **** }
 987              		.loc 1 473 0
 988 0006 01FB1300 		mls	r0, r1, r3, r0
 989 000a 7047     		bx	lr
 990              		.cfi_endproc
 991              	.LFE81:
 992              		.size	clean_number, .-clean_number
 993              		.section	.text.update_dispenser_text,"ax",%progbits
 994              		.align	2
 995              		.global	update_dispenser_text
 996              		.thumb
 997              		.thumb_func
 998              		.type	update_dispenser_text, %function
 999              	update_dispenser_text:
 1000              	.LFB76:
 327:.\main.c      ****     if (menu_length != 0) {
 1001              		.loc 1 327 0
 1002              		.cfi_startproc
 1003              		@ args = 0, pretend = 0, frame = 0
 1004              		@ frame_needed = 0, uses_anonymous_args = 0
 1005 0000 2DE9F84F 		push	{r3, r4, r5, r6, r7, r8, r9, r10, fp, lr}
 1006              		.cfi_def_cfa_offset 40
 1007              		.cfi_offset 3, -40
 1008              		.cfi_offset 4, -36
 1009              		.cfi_offset 5, -32
 1010              		.cfi_offset 6, -28
 1011              		.cfi_offset 7, -24
 1012              		.cfi_offset 8, -20
 1013              		.cfi_offset 9, -16
 1014              		.cfi_offset 10, -12
 1015              		.cfi_offset 11, -8
 1016              		.cfi_offset 14, -4
 328:.\main.c      ****         GUI_SetColor(LIGHTGRAY); // Show two inactive  
 1017              		.loc 1 328 0
 1018 0004 2C4B     		ldr	r3, .L70
 1019 0006 1B68     		ldr	r3, [r3]
 1020 0008 002B     		cmp	r3, #0
 1021 000a 53D0     		beq	.L67
 329:.\main.c      ****         
 1022              		.loc 1 329 0
 1023 000c 2B48     		ldr	r0, .L70+4
 1024 000e FFF7FEFF 		bl	GUI_SetColor
 1025              	.LVL88:
 331:.\main.c      ****         GUI_DispStringInRectWrap(drinks[menu_indices[clean_number(drink_scroll-1, menu_length)]]->n
 1026              		.loc 1 331 0
 1027 0012 DFF8BC80 		ldr	r8, .L70+24
 1028 0016 2A4C     		ldr	r4, .L70+8
 1029 0018 4046     		mov	r0, r8
 1030 001a 2146     		mov	r1, r4
 1031 001c 0E22     		movs	r2, #14
 1032 001e 0123     		movs	r3, #1
 1033 0020 FFF7FEFF 		bl	GUI_DispStringInRectWrap
 1034              	.LVL89:
 332:.\main.c      ****         
 1035              		.loc 1 332 0
 1036 0024 274D     		ldr	r5, .L70+12
 1037 0026 D5F800A0 		ldr	r10, [r5]
ARM GAS  C:\Users\mark6\AppData\Local\Temp\ccm1Ykfm.s 			page 28


 1038 002a 274F     		ldr	r7, .L70+16
 1039 002c D7F800B0 		ldr	fp, [r7]
 1040 0030 264E     		ldr	r6, .L70+20
 1041 0032 B068     		ldr	r0, [r6, #8]
 1042 0034 DFF88090 		ldr	r9, .L70
 1043 0038 0138     		subs	r0, r0, #1
 1044 003a D9F80010 		ldr	r1, [r9]
 1045 003e FFF7FEFF 		bl	clean_number
 1046              	.LVL90:
 1047 0042 1BF80030 		ldrb	r3, [fp, r0]	@ zero_extendqisi2
 1048 0046 5AF82300 		ldr	r0, [r10, r3, lsl #2]
 1049 004a 2146     		mov	r1, r4
 1050 004c 0E22     		movs	r2, #14
 1051 004e 0123     		movs	r3, #1
 1052 0050 FFF7FEFF 		bl	GUI_DispStringInRectWrap
 1053              	.LVL91:
 334:.\main.c      ****         GUI_DispStringInRectWrap(drinks[menu_indices[clean_number(drink_scroll+1, menu_length)]]->n
 1054              		.loc 1 334 0
 1055 0054 103C     		subs	r4, r4, #16
 1056 0056 4046     		mov	r0, r8
 1057 0058 2146     		mov	r1, r4
 1058 005a 0E22     		movs	r2, #14
 1059 005c 0123     		movs	r3, #1
 1060 005e FFF7FEFF 		bl	GUI_DispStringInRectWrap
 1061              	.LVL92:
 335:.\main.c      ****         
 1062              		.loc 1 335 0
 1063 0062 D5F800A0 		ldr	r10, [r5]
 1064 0066 D7F800B0 		ldr	fp, [r7]
 1065 006a B068     		ldr	r0, [r6, #8]
 1066 006c 0130     		adds	r0, r0, #1
 1067 006e D9F80010 		ldr	r1, [r9]
 1068 0072 FFF7FEFF 		bl	clean_number
 1069              	.LVL93:
 1070 0076 1BF80030 		ldrb	r3, [fp, r0]	@ zero_extendqisi2
 1071 007a 5AF82300 		ldr	r0, [r10, r3, lsl #2]
 1072 007e 2146     		mov	r1, r4
 1073 0080 0E22     		movs	r2, #14
 1074 0082 0123     		movs	r3, #1
 1075 0084 FFF7FEFF 		bl	GUI_DispStringInRectWrap
 1076              	.LVL94:
 337:.\main.c      ****         
 1077              		.loc 1 337 0
 1078 0088 6FF07F40 		mvn	r0, #-16777216
 1079 008c FFF7FEFF 		bl	GUI_SetColor
 1080              	.LVL95:
 339:.\main.c      ****         GUI_DispStringInRectWrap(drinks[menu_indices[drink_scroll]]->name, &dispenser_rects[1], GUI
 1081              		.loc 1 339 0
 1082 0090 0834     		adds	r4, r4, #8
 1083 0092 4046     		mov	r0, r8
 1084 0094 2146     		mov	r1, r4
 1085 0096 0E22     		movs	r2, #14
 1086 0098 0123     		movs	r3, #1
 1087 009a FFF7FEFF 		bl	GUI_DispStringInRectWrap
 1088              	.LVL96:
 340:.\main.c      ****     }
 1089              		.loc 1 340 0
ARM GAS  C:\Users\mark6\AppData\Local\Temp\ccm1Ykfm.s 			page 29


 1090 009e 3A68     		ldr	r2, [r7]
 1091 00a0 B368     		ldr	r3, [r6, #8]
 1092 00a2 D25C     		ldrb	r2, [r2, r3]	@ zero_extendqisi2
 1093 00a4 2B68     		ldr	r3, [r5]
 1094 00a6 53F82200 		ldr	r0, [r3, r2, lsl #2]
 1095 00aa 2146     		mov	r1, r4
 1096 00ac 0E22     		movs	r2, #14
 1097 00ae 0123     		movs	r3, #1
 1098 00b0 FFF7FEFF 		bl	GUI_DispStringInRectWrap
 1099              	.LVL97:
 1100              	.L67:
 1101 00b4 BDE8F88F 		pop	{r3, r4, r5, r6, r7, r8, r9, r10, fp, pc}
 1102              	.L71:
 1103              		.align	2
 1104              	.L70:
 1105 00b8 00000000 		.word	.LANCHOR1
 1106 00bc D3D3D300 		.word	13882323
 1107 00c0 10000000 		.word	dispenser_rects+16
 1108 00c4 00000000 		.word	drinks
 1109 00c8 00000000 		.word	menu_indices
 1110 00cc 00000000 		.word	.LANCHOR0
 1111 00d0 48000000 		.word	.LC3
 1112              		.cfi_endproc
 1113              	.LFE76:
 1114              		.size	update_dispenser_text, .-update_dispenser_text
 1115              		.section	.text.display_dispenser,"ax",%progbits
 1116              		.align	2
 1117              		.global	display_dispenser
 1118              		.thumb
 1119              		.thumb_func
 1120              		.type	display_dispenser, %function
 1121              	display_dispenser:
 1122              	.LFB77:
 344:.\main.c      ****     current_display = DISPLAY;
 1123              		.loc 1 344 0
 1124              		.cfi_startproc
 1125              		@ args = 0, pretend = 0, frame = 8
 1126              		@ frame_needed = 0, uses_anonymous_args = 0
 1127 0000 10B5     		push	{r4, lr}
 1128              		.cfi_def_cfa_offset 8
 1129              		.cfi_offset 4, -8
 1130              		.cfi_offset 14, -4
 1131 0002 82B0     		sub	sp, sp, #8
 1132              		.cfi_def_cfa_offset 16
 345:.\main.c      ****     generate_menu();
 1133              		.loc 1 345 0
 1134 0004 0122     		movs	r2, #1
 1135 0006 384B     		ldr	r3, .L76
 1136 0008 1A70     		strb	r2, [r3]
 346:.\main.c      ****     GUI_Clear();
 1137              		.loc 1 346 0
 1138 000a FFF7FEFF 		bl	generate_menu
 1139              	.LVL98:
 347:.\main.c      ****     if (menu_length == 0) {
 1140              		.loc 1 347 0
 1141 000e FFF7FEFF 		bl	GUI_Clear
 1142              	.LVL99:
ARM GAS  C:\Users\mark6\AppData\Local\Temp\ccm1Ykfm.s 			page 30


 348:.\main.c      ****         GUI_DispStringInRectWrap("Mork or Chungie, set this bitch up", &dispenser_rects[1], GUI_TA_
 1143              		.loc 1 348 0
 1144 0012 364B     		ldr	r3, .L76+4
 1145 0014 1B68     		ldr	r3, [r3]
 1146 0016 33B9     		cbnz	r3, .L73
 349:.\main.c      ****     } else {
 1147              		.loc 1 349 0
 1148 0018 3548     		ldr	r0, .L76+8
 1149 001a 3649     		ldr	r1, .L76+12
 1150 001c 0E22     		movs	r2, #14
 1151 001e 0123     		movs	r3, #1
 1152 0020 FFF7FEFF 		bl	GUI_DispStringInRectWrap
 1153              	.LVL100:
 1154 0024 5EE0     		b	.L72
 1155              	.L73:
 1156              	.LBB10:
 352:.\main.c      ****     GUI_FillCircle(20, SCREEN_Y/2, 10); // Submit Symbol
 1157              		.loc 1 352 0
 1158 0026 6FF07F40 		mvn	r0, #-16777216
 1159 002a FFF7FEFF 		bl	GUI_SetColor
 1160              	.LVL101:
 353:.\main.c      ****     GUI_SetColor(GREEN);
 1161              		.loc 1 353 0
 1162 002e 1420     		movs	r0, #20
 1163 0030 7821     		movs	r1, #120
 1164 0032 0A22     		movs	r2, #10
 1165 0034 FFF7FEFF 		bl	GUI_FillCircle
 1166              	.LVL102:
 354:.\main.c      ****     GUI_FillCircle(20, SCREEN_Y/2, 5);
 1167              		.loc 1 354 0
 1168 0038 4FF47F40 		mov	r0, #65280
 1169 003c FFF7FEFF 		bl	GUI_SetColor
 1170              	.LVL103:
 355:.\main.c      ****     GUI_SetColor(WHITE);
 1171              		.loc 1 355 0
 1172 0040 1420     		movs	r0, #20
 1173 0042 7821     		movs	r1, #120
 1174 0044 0522     		movs	r2, #5
 1175 0046 FFF7FEFF 		bl	GUI_FillCircle
 1176              	.LVL104:
 356:.\main.c      ****     GUI_FillPolygon(UpArrowPoints, GUI_COUNTOF(UpArrowPoints), 280, 40);
 1177              		.loc 1 356 0
 1178 004a 6FF07F40 		mvn	r0, #-16777216
 1179 004e FFF7FEFF 		bl	GUI_SetColor
 1180              	.LVL105:
 357:.\main.c      ****     GUI_FillPolygon(DownArrowPoints, GUI_COUNTOF(DownArrowPoints), 280, 180);
 1181              		.loc 1 357 0
 1182 0052 294C     		ldr	r4, .L76+16
 1183 0054 2046     		mov	r0, r4
 1184 0056 0321     		movs	r1, #3
 1185 0058 4FF48C72 		mov	r2, #280
 1186 005c 2823     		movs	r3, #40
 1187 005e FFF7FEFF 		bl	GUI_FillPolygon
 1188              	.LVL106:
 358:.\main.c      ****     GUI_RECT rect = dispenser_rects[SHOWN_DRINKS];
 1189              		.loc 1 358 0
 1190 0062 04F10C00 		add	r0, r4, #12
ARM GAS  C:\Users\mark6\AppData\Local\Temp\ccm1Ykfm.s 			page 31


 1191 0066 0321     		movs	r1, #3
 1192 0068 4FF48C72 		mov	r2, #280
 1193 006c B423     		movs	r3, #180
 1194 006e FFF7FEFF 		bl	GUI_FillPolygon
 1195              	.LVL107:
 359:.\main.c      ****     GUI_DispStringInRectWrap("Welcome to Mork and Chungus's Bar Bot!", &rect, GUI_TA_HCENTER | GUI_
 1196              		.loc 1 359 0
 1197 0072 224C     		ldr	r4, .L76+20
 1198 0074 6B46     		mov	r3, sp
 1199 0076 2246     		mov	r2, r4
 1200 0078 52F8180F 		ldr	r0, [r2, #24]!	@ unaligned
 1201 007c 5168     		ldr	r1, [r2, #4]	@ unaligned
 1202 007e 03C3     		stmia	r3!, {r0, r1}
 360:.\main.c      ****     rect = dispenser_rects[1];
 1203              		.loc 1 360 0
 1204 0080 1F48     		ldr	r0, .L76+24
 1205 0082 6946     		mov	r1, sp
 1206 0084 0E22     		movs	r2, #14
 1207 0086 0123     		movs	r3, #1
 1208 0088 FFF7FEFF 		bl	GUI_DispStringInRectWrap
 1209              	.LVL108:
 361:.\main.c      ****     // Top Line
 1210              		.loc 1 361 0
 1211 008c 6B46     		mov	r3, sp
 1212 008e 2246     		mov	r2, r4
 1213 0090 52F8080F 		ldr	r0, [r2, #8]!	@ unaligned
 1214 0094 5168     		ldr	r1, [r2, #4]	@ unaligned
 1215 0096 03C3     		stmia	r3!, {r0, r1}
 363:.\main.c      ****     // Left Line
 1216              		.loc 1 363 0
 1217 0098 BDF90230 		ldrsh	r3, [sp, #2]
 1218 009c BDF90000 		ldrsh	r0, [sp]
 1219 00a0 1946     		mov	r1, r3
 1220 00a2 BDF90420 		ldrsh	r2, [sp, #4]
 1221 00a6 FFF7FEFF 		bl	GUI_DrawLine
 1222              	.LVL109:
 365:.\main.c      ****     // Right Line
 1223              		.loc 1 365 0
 1224 00aa BDF90020 		ldrsh	r2, [sp]
 1225 00ae 1046     		mov	r0, r2
 1226 00b0 BDF90210 		ldrsh	r1, [sp, #2]
 1227 00b4 BDF90630 		ldrsh	r3, [sp, #6]
 1228 00b8 FFF7FEFF 		bl	GUI_DrawLine
 1229              	.LVL110:
 367:.\main.c      ****     // Bottom Line
 1230              		.loc 1 367 0
 1231 00bc BDF90420 		ldrsh	r2, [sp, #4]
 1232 00c0 1046     		mov	r0, r2
 1233 00c2 BDF90210 		ldrsh	r1, [sp, #2]
 1234 00c6 BDF90630 		ldrsh	r3, [sp, #6]
 1235 00ca FFF7FEFF 		bl	GUI_DrawLine
 1236              	.LVL111:
 369:.\main.c      ****     update_dispenser_text();
 1237              		.loc 1 369 0
 1238 00ce BDF90630 		ldrsh	r3, [sp, #6]
 1239 00d2 BDF90000 		ldrsh	r0, [sp]
 1240 00d6 1946     		mov	r1, r3
ARM GAS  C:\Users\mark6\AppData\Local\Temp\ccm1Ykfm.s 			page 32


 1241 00d8 BDF90420 		ldrsh	r2, [sp, #4]
 1242 00dc FFF7FEFF 		bl	GUI_DrawLine
 1243              	.LVL112:
 370:.\main.c      ****     }
 1244              		.loc 1 370 0
 1245 00e0 FFF7FEFF 		bl	update_dispenser_text
 1246              	.LVL113:
 1247              	.L72:
 1248              	.LBE10:
 372:.\main.c      **** 
 1249              		.loc 1 372 0
 1250 00e4 02B0     		add	sp, sp, #8
 1251              		.cfi_def_cfa_offset 8
 1252              		@ sp needed
 1253 00e6 10BD     		pop	{r4, pc}
 1254              	.L77:
 1255              		.align	2
 1256              	.L76:
 1257 00e8 00000000 		.word	current_display
 1258 00ec 00000000 		.word	.LANCHOR1
 1259 00f0 5C000000 		.word	.LC4
 1260 00f4 08000000 		.word	dispenser_rects+8
 1261 00f8 00000000 		.word	.LANCHOR2
 1262 00fc 00000000 		.word	dispenser_rects
 1263 0100 80000000 		.word	.LC5
 1264              		.cfi_endproc
 1265              	.LFE77:
 1266              		.size	display_dispenser, .-display_dispenser
 1267              		.section	.text.MainTask,"ax",%progbits
 1268              		.align	2
 1269              		.global	MainTask
 1270              		.thumb
 1271              		.thumb_func
 1272              		.type	MainTask, %function
 1273              	MainTask:
 1274              	.LFB67:
 228:.\main.c      ****     GUI_Init();                             // initilize graphics library
 1275              		.loc 1 228 0
 1276              		.cfi_startproc
 1277              		@ args = 0, pretend = 0, frame = 0
 1278              		@ frame_needed = 0, uses_anonymous_args = 0
 1279 0000 08B5     		push	{r3, lr}
 1280              		.cfi_def_cfa_offset 8
 1281              		.cfi_offset 3, -8
 1282              		.cfi_offset 14, -4
 229:.\main.c      ****     //GUI_SetOrientation(GUI_SWAP_XY | GUI_MIRROR_X);
 1283              		.loc 1 229 0
 1284 0002 FFF7FEFF 		bl	GUI_Init
 1285              	.LVL114:
 231:.\main.c      ****     create_config_rects();
 1286              		.loc 1 231 0
 1287 0006 0E20     		movs	r0, #14
 1288 0008 FFF7FEFF 		bl	GUI_SetTextAlign
 1289              	.LVL115:
 232:.\main.c      ****     create_dispenser_rects();
 1290              		.loc 1 232 0
 1291 000c FFF7FEFF 		bl	create_config_rects
ARM GAS  C:\Users\mark6\AppData\Local\Temp\ccm1Ykfm.s 			page 33


 1292              	.LVL116:
 233:.\main.c      ****     GUI_Clear();
 1293              		.loc 1 233 0
 1294 0010 FFF7FEFF 		bl	create_dispenser_rects
 1295              	.LVL117:
 234:.\main.c      ****     GUI_SetFont(&GUI_Font8x16);
 1296              		.loc 1 234 0
 1297 0014 FFF7FEFF 		bl	GUI_Clear
 1298              	.LVL118:
 235:.\main.c      ****     display_dispenser();
 1299              		.loc 1 235 0
 1300 0018 0248     		ldr	r0, .L80
 1301 001a FFF7FEFF 		bl	GUI_SetFont
 1302              	.LVL119:
 236:.\main.c      **** 
 1303              		.loc 1 236 0
 1304 001e FFF7FEFF 		bl	display_dispenser
 1305              	.LVL120:
 1306 0022 08BD     		pop	{r3, pc}
 1307              	.L81:
 1308              		.align	2
 1309              	.L80:
 1310 0024 00000000 		.word	GUI_Font8x16
 1311              		.cfi_endproc
 1312              	.LFE67:
 1313              		.size	MainTask, .-MainTask
 1314              		.section	.text.main,"ax",%progbits
 1315              		.align	2
 1316              		.global	main
 1317              		.thumb
 1318              		.thumb_func
 1319              		.type	main, %function
 1320              	main:
 1321              	.LFB66:
 204:.\main.c      ****     CyGlobalIntEnable; /* Enable global interrupts. */
 1322              		.loc 1 204 0
 1323              		.cfi_startproc
 1324              		@ args = 0, pretend = 0, frame = 0
 1325              		@ frame_needed = 0, uses_anonymous_args = 0
 1326 0000 08B5     		push	{r3, lr}
 1327              		.cfi_def_cfa_offset 8
 1328              		.cfi_offset 3, -8
 1329              		.cfi_offset 14, -4
 205:.\main.c      ****     SPIM_1_Start();
 1330              		.loc 1 205 0
 1331              	@ 205 ".\main.c" 1
 1332 0002 62B6     		CPSIE   i
 1333              	@ 0 "" 2
 206:.\main.c      ****     Em_EEPROM_Start();
 1334              		.loc 1 206 0
 1335              		.thumb
 1336 0004 FFF7FEFF 		bl	SPIM_1_Start
 1337              	.LVL121:
 207:.\main.c      ****     uint8 eeprom_i = 0;
 1338              		.loc 1 207 0
 1339 0008 FFF7FEFF 		bl	Em_EEPROM_Start
 1340              	.LVL122:
ARM GAS  C:\Users\mark6\AppData\Local\Temp\ccm1Ykfm.s 			page 34


 209:.\main.c      ****         if (eeprom_config_data[eeprom_i] != 255) {
 1341              		.loc 1 209 0
 1342 000c 0023     		movs	r3, #0
 1343 000e 08E0     		b	.L83
 1344              	.LVL123:
 1345              	.L85:
 210:.\main.c      ****             config_data[eeprom_i] = eeprom_config_data[eeprom_i];
 1346              		.loc 1 210 0
 1347 0010 104A     		ldr	r2, .L88
 1348 0012 1A44     		add	r2, r2, r3
 1349 0014 127E     		ldrb	r2, [r2, #24]	@ zero_extendqisi2
 1350 0016 FF2A     		cmp	r2, #255
 1351 0018 01D0     		beq	.L84
 211:.\main.c      ****         }
 1352              		.loc 1 211 0
 1353 001a 0F49     		ldr	r1, .L88+4
 1354 001c CA54     		strb	r2, [r1, r3]
 1355              	.L84:
 209:.\main.c      ****         if (eeprom_config_data[eeprom_i] != 255) {
 1356              		.loc 1 209 0 discriminator 2
 1357 001e 0133     		adds	r3, r3, #1
 1358              	.LVL124:
 1359 0020 DBB2     		uxtb	r3, r3
 1360              	.LVL125:
 1361              	.L83:
 209:.\main.c      ****         if (eeprom_config_data[eeprom_i] != 255) {
 1362              		.loc 1 209 0 is_stmt 0 discriminator 1
 1363 0022 052B     		cmp	r3, #5
 1364 0024 F4D9     		bls	.L85
 215:.\main.c      ****     drinks = generate_drinks();
 1365              		.loc 1 215 0 is_stmt 1
 1366 0026 0D4B     		ldr	r3, .L88+8
 1367              	.LVL126:
 1368 0028 1868     		ldr	r0, [r3]
 1369 002a FFF7FEFF 		bl	malloc
 1370              	.LVL127:
 1371 002e 0C4B     		ldr	r3, .L88+12
 1372 0030 1860     		str	r0, [r3]
 216:.\main.c      ****     Submit_Int_StartEx( Submit_Button_Handler );
 1373              		.loc 1 216 0
 1374 0032 FFF7FEFF 		bl	generate_drinks
 1375              	.LVL128:
 1376 0036 0B4B     		ldr	r3, .L88+16
 1377 0038 1860     		str	r0, [r3]
 217:.\main.c      ****     Up_Int_StartEx( Up_Button_Handler );
 1378              		.loc 1 217 0
 1379 003a 0B48     		ldr	r0, .L88+20
 1380 003c FFF7FEFF 		bl	Submit_Int_StartEx
 1381              	.LVL129:
 218:.\main.c      ****     Down_Int_StartEx( Down_Button_Handler );
 1382              		.loc 1 218 0
 1383 0040 0A48     		ldr	r0, .L88+24
 1384 0042 FFF7FEFF 		bl	Up_Int_StartEx
 1385              	.LVL130:
 219:.\main.c      ****     
 1386              		.loc 1 219 0
 1387 0046 0A48     		ldr	r0, .L88+28
ARM GAS  C:\Users\mark6\AppData\Local\Temp\ccm1Ykfm.s 			page 35


 1388 0048 FFF7FEFF 		bl	Down_Int_StartEx
 1389              	.LVL131:
 221:.\main.c      ****     for(;;)
 1390              		.loc 1 221 0
 1391 004c FFF7FEFF 		bl	MainTask
 1392              	.LVL132:
 1393              	.L86:
 225:.\main.c      **** }
 1394              		.loc 1 225 0 discriminator 1
 1395 0050 FEE7     		b	.L86
 1396              	.L89:
 1397 0052 00BF     		.align	2
 1398              	.L88:
 1399 0054 00000000 		.word	.LANCHOR2
 1400 0058 00000000 		.word	.LANCHOR0
 1401 005c 00000000 		.word	NUM_DRINKS
 1402 0060 00000000 		.word	menu_indices
 1403 0064 00000000 		.word	drinks
 1404 0068 00000000 		.word	Submit_Button_Handler
 1405 006c 00000000 		.word	Up_Button_Handler
 1406 0070 00000000 		.word	Down_Button_Handler
 1407              		.cfi_endproc
 1408              	.LFE66:
 1409              		.size	main, .-main
 1410              		.section	.text.Down_Button_Handler,"ax",%progbits
 1411              		.align	2
 1412              		.global	Down_Button_Handler
 1413              		.thumb
 1414              		.thumb_func
 1415              		.type	Down_Button_Handler, %function
 1416              	Down_Button_Handler:
 1417              	.LFB63:
 109:.\main.c      **** 
 1418              		.loc 1 109 0
 1419              		.cfi_startproc
 1420              		@ args = 0, pretend = 0, frame = 0
 1421              		@ frame_needed = 0, uses_anonymous_args = 0
 1422 0000 70B5     		push	{r4, r5, r6, lr}
 1423              		.cfi_def_cfa_offset 16
 1424              		.cfi_offset 4, -16
 1425              		.cfi_offset 5, -12
 1426              		.cfi_offset 6, -8
 1427              		.cfi_offset 14, -4
 111:.\main.c      ****         int old_motor = motor_scroll;
 1428              		.loc 1 111 0
 1429 0002 2B4B     		ldr	r3, .L97
 1430 0004 1B78     		ldrb	r3, [r3]	@ zero_extendqisi2
 1431 0006 43BB     		cbnz	r3, .L91
 1432              	.LBB11:
 112:.\main.c      ****         motor_scroll--;
 1433              		.loc 1 112 0
 1434 0008 2A4D     		ldr	r5, .L97+4
 1435 000a EC68     		ldr	r4, [r5, #12]
 1436              	.LVL133:
 114:.\main.c      ****         if (motor_scroll == MOTOR_COUNT) {
 1437              		.loc 1 114 0
 1438 000c 601E     		subs	r0, r4, #1
ARM GAS  C:\Users\mark6\AppData\Local\Temp\ccm1Ykfm.s 			page 36


 1439 000e 0721     		movs	r1, #7
 1440 0010 FFF7FEFF 		bl	clean_number
 1441              	.LVL134:
 1442 0014 E860     		str	r0, [r5, #12]
 115:.\main.c      ****             redraw_config_text("Clean Tubing", 7, BABYBLUE);
 1443              		.loc 1 115 0
 1444 0016 0628     		cmp	r0, #6
 1445 0018 0BD1     		bne	.L92
 116:.\main.c      ****             draw_active_config(old_motor, old_motor, WHITE); // clear the old motor still
 1446              		.loc 1 116 0
 1447 001a 2748     		ldr	r0, .L97+8
 1448 001c 0721     		movs	r1, #7
 1449 001e 274A     		ldr	r2, .L97+12
 1450 0020 FFF7FEFF 		bl	redraw_config_text
 1451              	.LVL135:
 117:.\main.c      ****         } else if (old_motor == MOTOR_COUNT) {
 1452              		.loc 1 117 0
 1453 0024 2046     		mov	r0, r4
 1454 0026 2146     		mov	r1, r4
 1455 0028 6FF07F42 		mvn	r2, #-16777216
 1456 002c FFF7FEFF 		bl	draw_active_config
 1457              	.LVL136:
 1458 0030 38E0     		b	.L93
 1459              	.L92:
 118:.\main.c      ****             redraw_config_text("Clean Tubing", 7, WHITE);
 1460              		.loc 1 118 0
 1461 0032 062C     		cmp	r4, #6
 1462 0034 0CD1     		bne	.L94
 119:.\main.c      ****             draw_active_config(motor_scroll, motor_scroll, PINK);
 1463              		.loc 1 119 0
 1464 0036 2048     		ldr	r0, .L97+8
 1465 0038 0721     		movs	r1, #7
 1466 003a 6FF07F42 		mvn	r2, #-16777216
 1467 003e FFF7FEFF 		bl	redraw_config_text
 1468              	.LVL137:
 120:.\main.c      ****         } else {
 1469              		.loc 1 120 0
 1470 0042 1C4B     		ldr	r3, .L97+4
 1471 0044 D968     		ldr	r1, [r3, #12]
 1472 0046 0846     		mov	r0, r1
 1473 0048 1D4A     		ldr	r2, .L97+16
 1474 004a FFF7FEFF 		bl	draw_active_config
 1475              	.LVL138:
 1476 004e 29E0     		b	.L93
 1477              	.L94:
 122:.\main.c      ****         }
 1478              		.loc 1 122 0
 1479 0050 2146     		mov	r1, r4
 1480 0052 1B4A     		ldr	r2, .L97+16
 1481 0054 FFF7FEFF 		bl	draw_active_config
 1482              	.LVL139:
 1483 0058 24E0     		b	.L93
 1484              	.LVL140:
 1485              	.L91:
 1486              	.LBE11:
 124:.\main.c      ****         redraw_config_text(Liquids[mixie_scroll], motor_scroll, BLACK);
 1487              		.loc 1 124 0
ARM GAS  C:\Users\mark6\AppData\Local\Temp\ccm1Ykfm.s 			page 37


 1488 005a 022B     		cmp	r3, #2
 1489 005c 16D1     		bne	.L95
 125:.\main.c      ****         mixie_scroll--;
 1490              		.loc 1 125 0
 1491 005e 154C     		ldr	r4, .L97+4
 1492 0060 2069     		ldr	r0, [r4, #16]
 1493 0062 3226     		movs	r6, #50
 1494 0064 174D     		ldr	r5, .L97+20
 1495 0066 06FB0050 		mla	r0, r6, r0, r5
 1496 006a E168     		ldr	r1, [r4, #12]
 1497 006c 0022     		movs	r2, #0
 1498 006e FFF7FEFF 		bl	redraw_config_text
 1499              	.LVL141:
 126:.\main.c      ****         mixie_scroll = clean_number(mixie_scroll, NUM_MIXIES);
 1500              		.loc 1 126 0
 1501 0072 2069     		ldr	r0, [r4, #16]
 127:.\main.c      ****         redraw_config_text(Liquids[mixie_scroll], motor_scroll, ORANGE);
 1502              		.loc 1 127 0
 1503 0074 0138     		subs	r0, r0, #1
 1504 0076 2721     		movs	r1, #39
 1505 0078 FFF7FEFF 		bl	clean_number
 1506              	.LVL142:
 1507 007c 2061     		str	r0, [r4, #16]
 128:.\main.c      ****     } 
 1508              		.loc 1 128 0
 1509 007e 06FB0050 		mla	r0, r6, r0, r5
 1510 0082 E168     		ldr	r1, [r4, #12]
 1511 0084 104A     		ldr	r2, .L97+24
 1512 0086 FFF7FEFF 		bl	redraw_config_text
 1513              	.LVL143:
 1514 008a 0BE0     		b	.L93
 1515              	.L95:
 130:.\main.c      ****         drink_scroll--;
 1516              		.loc 1 130 0
 1517 008c 012B     		cmp	r3, #1
 1518 008e 09D1     		bne	.L93
 131:.\main.c      ****         drink_scroll = clean_number(drink_scroll, menu_length);
 1519              		.loc 1 131 0
 1520 0090 084C     		ldr	r4, .L97+4
 1521 0092 A068     		ldr	r0, [r4, #8]
 132:.\main.c      ****         update_dispenser_text();
 1522              		.loc 1 132 0
 1523 0094 0138     		subs	r0, r0, #1
 1524 0096 0D4B     		ldr	r3, .L97+28
 1525 0098 1968     		ldr	r1, [r3]
 1526 009a FFF7FEFF 		bl	clean_number
 1527              	.LVL144:
 1528 009e A060     		str	r0, [r4, #8]
 133:.\main.c      ****     }
 1529              		.loc 1 133 0
 1530 00a0 FFF7FEFF 		bl	update_dispenser_text
 1531              	.LVL145:
 1532              	.L93:
 135:.\main.c      **** }
 1533              		.loc 1 135 0
 1534 00a4 0A48     		ldr	r0, .L97+32
 1535 00a6 0121     		movs	r1, #1
ARM GAS  C:\Users\mark6\AppData\Local\Temp\ccm1Ykfm.s 			page 38


 1536 00a8 0822     		movs	r2, #8
 1537 00aa FFF7FEFF 		bl	push_to_list
 1538              	.LVL146:
 1539 00ae 70BD     		pop	{r4, r5, r6, pc}
 1540              	.L98:
 1541              		.align	2
 1542              	.L97:
 1543 00b0 00000000 		.word	current_display
 1544 00b4 00000000 		.word	.LANCHOR0
 1545 00b8 38000000 		.word	.LC2
 1546 00bc F8FC0300 		.word	261368
 1547 00c0 E370F600 		.word	16150755
 1548 00c4 00000000 		.word	Liquids
 1549 00c8 3399FF00 		.word	16750899
 1550 00cc 00000000 		.word	.LANCHOR1
 1551 00d0 14000000 		.word	.LANCHOR0+20
 1552              		.cfi_endproc
 1553              	.LFE63:
 1554              		.size	Down_Button_Handler, .-Down_Button_Handler
 1555              		.section	.text.Up_Button_Handler,"ax",%progbits
 1556              		.align	2
 1557              		.global	Up_Button_Handler
 1558              		.thumb
 1559              		.thumb_func
 1560              		.type	Up_Button_Handler, %function
 1561              	Up_Button_Handler:
 1562              	.LFB64:
 138:.\main.c      ****     if (current_display == CONFIG) {
 1563              		.loc 1 138 0
 1564              		.cfi_startproc
 1565              		@ args = 0, pretend = 0, frame = 0
 1566              		@ frame_needed = 0, uses_anonymous_args = 0
 1567 0000 70B5     		push	{r4, r5, r6, lr}
 1568              		.cfi_def_cfa_offset 16
 1569              		.cfi_offset 4, -16
 1570              		.cfi_offset 5, -12
 1571              		.cfi_offset 6, -8
 1572              		.cfi_offset 14, -4
 139:.\main.c      ****         int old_motor = motor_scroll;
 1573              		.loc 1 139 0
 1574 0002 2B4B     		ldr	r3, .L106
 1575 0004 1B78     		ldrb	r3, [r3]	@ zero_extendqisi2
 1576 0006 43BB     		cbnz	r3, .L100
 1577              	.LBB12:
 140:.\main.c      ****         motor_scroll++;
 1578              		.loc 1 140 0
 1579 0008 2A4D     		ldr	r5, .L106+4
 1580 000a EC68     		ldr	r4, [r5, #12]
 1581              	.LVL147:
 142:.\main.c      ****         if (motor_scroll == MOTOR_COUNT) {
 1582              		.loc 1 142 0
 1583 000c 601C     		adds	r0, r4, #1
 1584 000e 0721     		movs	r1, #7
 1585 0010 FFF7FEFF 		bl	clean_number
 1586              	.LVL148:
 1587 0014 E860     		str	r0, [r5, #12]
 143:.\main.c      ****             redraw_config_text("Clean Tubing", 7, BABYBLUE);
ARM GAS  C:\Users\mark6\AppData\Local\Temp\ccm1Ykfm.s 			page 39


 1588              		.loc 1 143 0
 1589 0016 0628     		cmp	r0, #6
 1590 0018 0BD1     		bne	.L101
 144:.\main.c      ****             draw_active_config(old_motor, old_motor, WHITE); // clear the old motor still
 1591              		.loc 1 144 0
 1592 001a 2748     		ldr	r0, .L106+8
 1593 001c 0721     		movs	r1, #7
 1594 001e 274A     		ldr	r2, .L106+12
 1595 0020 FFF7FEFF 		bl	redraw_config_text
 1596              	.LVL149:
 145:.\main.c      ****         } else if (old_motor == MOTOR_COUNT) {
 1597              		.loc 1 145 0
 1598 0024 2046     		mov	r0, r4
 1599 0026 2146     		mov	r1, r4
 1600 0028 6FF07F42 		mvn	r2, #-16777216
 1601 002c FFF7FEFF 		bl	draw_active_config
 1602              	.LVL150:
 1603 0030 38E0     		b	.L102
 1604              	.L101:
 146:.\main.c      ****             redraw_config_text("Clean Tubing", 7, WHITE);
 1605              		.loc 1 146 0
 1606 0032 062C     		cmp	r4, #6
 1607 0034 0CD1     		bne	.L103
 147:.\main.c      ****             draw_active_config(motor_scroll, motor_scroll, PINK);
 1608              		.loc 1 147 0
 1609 0036 2048     		ldr	r0, .L106+8
 1610 0038 0721     		movs	r1, #7
 1611 003a 6FF07F42 		mvn	r2, #-16777216
 1612 003e FFF7FEFF 		bl	redraw_config_text
 1613              	.LVL151:
 148:.\main.c      ****         } else {
 1614              		.loc 1 148 0
 1615 0042 1C4B     		ldr	r3, .L106+4
 1616 0044 D968     		ldr	r1, [r3, #12]
 1617 0046 0846     		mov	r0, r1
 1618 0048 1D4A     		ldr	r2, .L106+16
 1619 004a FFF7FEFF 		bl	draw_active_config
 1620              	.LVL152:
 1621 004e 29E0     		b	.L102
 1622              	.L103:
 150:.\main.c      ****         }
 1623              		.loc 1 150 0
 1624 0050 2146     		mov	r1, r4
 1625 0052 1B4A     		ldr	r2, .L106+16
 1626 0054 FFF7FEFF 		bl	draw_active_config
 1627              	.LVL153:
 1628 0058 24E0     		b	.L102
 1629              	.LVL154:
 1630              	.L100:
 1631              	.LBE12:
 152:.\main.c      ****         redraw_config_text(Liquids[mixie_scroll], motor_scroll, BLACK);
 1632              		.loc 1 152 0
 1633 005a 022B     		cmp	r3, #2
 1634 005c 16D1     		bne	.L104
 153:.\main.c      ****         mixie_scroll++;
 1635              		.loc 1 153 0
 1636 005e 154C     		ldr	r4, .L106+4
ARM GAS  C:\Users\mark6\AppData\Local\Temp\ccm1Ykfm.s 			page 40


 1637 0060 2069     		ldr	r0, [r4, #16]
 1638 0062 3226     		movs	r6, #50
 1639 0064 174D     		ldr	r5, .L106+20
 1640 0066 06FB0050 		mla	r0, r6, r0, r5
 1641 006a E168     		ldr	r1, [r4, #12]
 1642 006c 0022     		movs	r2, #0
 1643 006e FFF7FEFF 		bl	redraw_config_text
 1644              	.LVL155:
 154:.\main.c      ****         mixie_scroll = clean_number(mixie_scroll, NUM_MIXIES);
 1645              		.loc 1 154 0
 1646 0072 2069     		ldr	r0, [r4, #16]
 155:.\main.c      ****         redraw_config_text(Liquids[mixie_scroll], motor_scroll, ORANGE);
 1647              		.loc 1 155 0
 1648 0074 0130     		adds	r0, r0, #1
 1649 0076 2721     		movs	r1, #39
 1650 0078 FFF7FEFF 		bl	clean_number
 1651              	.LVL156:
 1652 007c 2061     		str	r0, [r4, #16]
 156:.\main.c      ****     } 
 1653              		.loc 1 156 0
 1654 007e 06FB0050 		mla	r0, r6, r0, r5
 1655 0082 E168     		ldr	r1, [r4, #12]
 1656 0084 104A     		ldr	r2, .L106+24
 1657 0086 FFF7FEFF 		bl	redraw_config_text
 1658              	.LVL157:
 1659 008a 0BE0     		b	.L102
 1660              	.L104:
 158:.\main.c      ****         drink_scroll++;
 1661              		.loc 1 158 0
 1662 008c 012B     		cmp	r3, #1
 1663 008e 09D1     		bne	.L102
 159:.\main.c      ****         drink_scroll = clean_number(drink_scroll, menu_length);
 1664              		.loc 1 159 0
 1665 0090 084C     		ldr	r4, .L106+4
 1666 0092 A068     		ldr	r0, [r4, #8]
 160:.\main.c      ****         update_dispenser_text();
 1667              		.loc 1 160 0
 1668 0094 0130     		adds	r0, r0, #1
 1669 0096 0D4B     		ldr	r3, .L106+28
 1670 0098 1968     		ldr	r1, [r3]
 1671 009a FFF7FEFF 		bl	clean_number
 1672              	.LVL158:
 1673 009e A060     		str	r0, [r4, #8]
 161:.\main.c      ****     }
 1674              		.loc 1 161 0
 1675 00a0 FFF7FEFF 		bl	update_dispenser_text
 1676              	.LVL159:
 1677              	.L102:
 163:.\main.c      **** }
 1678              		.loc 1 163 0
 1679 00a4 0A48     		ldr	r0, .L106+32
 1680 00a6 0021     		movs	r1, #0
 1681 00a8 0822     		movs	r2, #8
 1682 00aa FFF7FEFF 		bl	push_to_list
 1683              	.LVL160:
 1684 00ae 70BD     		pop	{r4, r5, r6, pc}
 1685              	.L107:
ARM GAS  C:\Users\mark6\AppData\Local\Temp\ccm1Ykfm.s 			page 41


 1686              		.align	2
 1687              	.L106:
 1688 00b0 00000000 		.word	current_display
 1689 00b4 00000000 		.word	.LANCHOR0
 1690 00b8 38000000 		.word	.LC2
 1691 00bc F8FC0300 		.word	261368
 1692 00c0 E370F600 		.word	16150755
 1693 00c4 00000000 		.word	Liquids
 1694 00c8 3399FF00 		.word	16750899
 1695 00cc 00000000 		.word	.LANCHOR1
 1696 00d0 14000000 		.word	.LANCHOR0+20
 1697              		.cfi_endproc
 1698              	.LFE64:
 1699              		.size	Up_Button_Handler, .-Up_Button_Handler
 1700              		.global	__aeabi_i2d
 1701              		.global	__aeabi_ddiv
 1702              		.global	__aeabi_dmul
 1703              		.global	__aeabi_d2iz
 1704              		.section	.text.ms_to_dispense,"ax",%progbits
 1705              		.align	2
 1706              		.global	ms_to_dispense
 1707              		.thumb
 1708              		.thumb_func
 1709              		.type	ms_to_dispense, %function
 1710              	ms_to_dispense:
 1711              	.LFB82:
 474:.\main.c      **** 
 475:.\main.c      **** int ms_to_dispense(int amount) {
 1712              		.loc 1 475 0
 1713              		.cfi_startproc
 1714              		@ args = 0, pretend = 0, frame = 0
 1715              		@ frame_needed = 0, uses_anonymous_args = 0
 1716              	.LVL161:
 1717 0000 08B5     		push	{r3, lr}
 1718              		.cfi_def_cfa_offset 8
 1719              		.cfi_offset 3, -8
 1720              		.cfi_offset 14, -4
 476:.\main.c      ****     return (amount / PUMP_RATE) * 60 * 1000;
 1721              		.loc 1 476 0
 1722 0002 FFF7FEFF 		bl	__aeabi_i2d
 1723              	.LVL162:
 1724 0006 0022     		movs	r2, #0
 1725 0008 064B     		ldr	r3, .L110
 1726 000a FFF7FEFF 		bl	__aeabi_ddiv
 1727              	.LVL163:
 1728 000e 0022     		movs	r2, #0
 1729 0010 054B     		ldr	r3, .L110+4
 1730 0012 FFF7FEFF 		bl	__aeabi_dmul
 1731              	.LVL164:
 1732 0016 0022     		movs	r2, #0
 1733 0018 044B     		ldr	r3, .L110+8
 1734 001a FFF7FEFF 		bl	__aeabi_dmul
 1735              	.LVL165:
 1736 001e FFF7FEFF 		bl	__aeabi_d2iz
 1737              	.LVL166:
 477:.\main.c      ****     
 478:.\main.c      **** }
ARM GAS  C:\Users\mark6\AppData\Local\Temp\ccm1Ykfm.s 			page 42


 1738              		.loc 1 478 0
 1739 0022 08BD     		pop	{r3, pc}
 1740              	.L111:
 1741              		.align	2
 1742              	.L110:
 1743 0024 00007940 		.word	1081671680
 1744 0028 00004E40 		.word	1078853632
 1745 002c 00408F40 		.word	1083129856
 1746              		.cfi_endproc
 1747              	.LFE82:
 1748              		.size	ms_to_dispense, .-ms_to_dispense
 1749              		.section	.text.comp,"ax",%progbits
 1750              		.align	2
 1751              		.global	comp
 1752              		.thumb
 1753              		.thumb_func
 1754              		.type	comp, %function
 1755              	comp:
 1756              	.LFB83:
 479:.\main.c      **** int comp (const void * elem1, const void * elem2) 
 480:.\main.c      **** {
 1757              		.loc 1 480 0
 1758              		.cfi_startproc
 1759              		@ args = 0, pretend = 0, frame = 0
 1760              		@ frame_needed = 0, uses_anonymous_args = 0
 1761              		@ link register save eliminated.
 1762              	.LVL167:
 481:.\main.c      ****     int f = *((int*)elem1);
 1763              		.loc 1 481 0
 1764 0000 0268     		ldr	r2, [r0]
 1765              	.LVL168:
 482:.\main.c      ****     int s = *((int*)elem2);
 1766              		.loc 1 482 0
 1767 0002 0B68     		ldr	r3, [r1]
 1768              	.LVL169:
 483:.\main.c      ****     if (f > s) return  1;
 1769              		.loc 1 483 0
 1770 0004 9A42     		cmp	r2, r3
 1771 0006 03DC     		bgt	.L114
 484:.\main.c      ****     if (f < s) return -1;
 1772              		.loc 1 484 0
 1773 0008 04DA     		bge	.L115
 1774 000a 4FF0FF30 		mov	r0, #-1
 1775              	.LVL170:
 1776 000e 7047     		bx	lr
 1777              	.LVL171:
 1778              	.L114:
 483:.\main.c      ****     if (f > s) return  1;
 1779              		.loc 1 483 0
 1780 0010 0120     		movs	r0, #1
 1781              	.LVL172:
 1782 0012 7047     		bx	lr
 1783              	.LVL173:
 1784              	.L115:
 485:.\main.c      ****     return 0;
 1785              		.loc 1 485 0
 1786 0014 0020     		movs	r0, #0
ARM GAS  C:\Users\mark6\AppData\Local\Temp\ccm1Ykfm.s 			page 43


 1787              	.LVL174:
 486:.\main.c      **** }
 1788              		.loc 1 486 0
 1789 0016 7047     		bx	lr
 1790              		.cfi_endproc
 1791              	.LFE83:
 1792              		.size	comp, .-comp
 1793              		.section	.text.get_required_motors,"ax",%progbits
 1794              		.align	2
 1795              		.global	get_required_motors
 1796              		.thumb
 1797              		.thumb_func
 1798              		.type	get_required_motors, %function
 1799              	get_required_motors:
 1800              	.LFB84:
 487:.\main.c      **** 
 488:.\main.c      **** // Motor Functions
 489:.\main.c      **** void get_required_motors(Drink* drink) {
 1801              		.loc 1 489 0
 1802              		.cfi_startproc
 1803              		@ args = 0, pretend = 0, frame = 0
 1804              		@ frame_needed = 0, uses_anonymous_args = 0
 1805              	.LVL175:
 1806 0000 F8B5     		push	{r3, r4, r5, r6, r7, lr}
 1807              		.cfi_def_cfa_offset 24
 1808              		.cfi_offset 3, -24
 1809              		.cfi_offset 4, -20
 1810              		.cfi_offset 5, -16
 1811              		.cfi_offset 6, -12
 1812              		.cfi_offset 7, -8
 1813              		.cfi_offset 14, -4
 1814 0002 0546     		mov	r5, r0
 1815              	.LVL176:
 490:.\main.c      ****     int i, j;
 491:.\main.c      ****     for (i = 0; i < MOTOR_COUNT; i++) {
 1816              		.loc 1 491 0
 1817 0004 0022     		movs	r2, #0
 1818 0006 06E0     		b	.L117
 1819              	.LVL177:
 1820              	.L118:
 492:.\main.c      ****         required_motors[i] = 0;
 1821              		.loc 1 492 0 discriminator 3
 1822 0008 134B     		ldr	r3, .L125
 1823 000a 03EB8203 		add	r3, r3, r2, lsl #2
 1824 000e 0021     		movs	r1, #0
 1825 0010 5963     		str	r1, [r3, #52]
 493:.\main.c      ****         dispense_amount[i] = 0;
 1826              		.loc 1 493 0 discriminator 3
 1827 0012 D964     		str	r1, [r3, #76]
 491:.\main.c      ****         required_motors[i] = 0;
 1828              		.loc 1 491 0 discriminator 3
 1829 0014 0132     		adds	r2, r2, #1
 1830              	.LVL178:
 1831              	.L117:
 491:.\main.c      ****         required_motors[i] = 0;
 1832              		.loc 1 491 0 is_stmt 0 discriminator 1
 1833 0016 052A     		cmp	r2, #5
ARM GAS  C:\Users\mark6\AppData\Local\Temp\ccm1Ykfm.s 			page 44


 1834 0018 F6DD     		ble	.L118
 1835 001a 0026     		movs	r6, #0
 1836 001c 19E0     		b	.L119
 1837              	.LVL179:
 1838              	.L121:
 494:.\main.c      ****     }
 495:.\main.c      ****     for (i = 0; i < MOTOR_COUNT; i++) {
 496:.\main.c      ****         for (j = 0; j < drink->num_ingredients; j++) {
 497:.\main.c      ****             if (config_data[i] == drink->ingredients[j]->liquid) {
 1839              		.loc 1 497 0 is_stmt 1
 1840 001e 0E4B     		ldr	r3, .L125
 1841 0020 995D     		ldrb	r1, [r3, r6]	@ zero_extendqisi2
 1842 0022 6B6B     		ldr	r3, [r5, #52]
 1843 0024 53F82420 		ldr	r2, [r3, r4, lsl #2]
 1844 0028 1278     		ldrb	r2, [r2]	@ zero_extendqisi2
 1845 002a 9142     		cmp	r1, r2
 1846 002c 0AD1     		bne	.L120
 498:.\main.c      ****                 required_motors[i] = 1;
 1847              		.loc 1 498 0
 1848 002e 0A4F     		ldr	r7, .L125
 1849 0030 07EB8607 		add	r7, r7, r6, lsl #2
 1850 0034 0122     		movs	r2, #1
 1851 0036 7A63     		str	r2, [r7, #52]
 499:.\main.c      ****                 dispense_amount[i] = ms_to_dispense(drink->ingredients[j]->amount);
 1852              		.loc 1 499 0
 1853 0038 53F82430 		ldr	r3, [r3, r4, lsl #2]
 1854 003c 5868     		ldr	r0, [r3, #4]
 1855 003e FFF7FEFF 		bl	ms_to_dispense
 1856              	.LVL180:
 1857 0042 F864     		str	r0, [r7, #76]
 1858              	.L120:
 496:.\main.c      ****             if (config_data[i] == drink->ingredients[j]->liquid) {
 1859              		.loc 1 496 0 discriminator 2
 1860 0044 0134     		adds	r4, r4, #1
 1861              	.LVL181:
 1862 0046 00E0     		b	.L122
 1863              	.LVL182:
 1864              	.L123:
 1865 0048 0024     		movs	r4, #0
 1866              	.L122:
 1867              	.LVL183:
 496:.\main.c      ****             if (config_data[i] == drink->ingredients[j]->liquid) {
 1868              		.loc 1 496 0 is_stmt 0 discriminator 1
 1869 004a AB6B     		ldr	r3, [r5, #56]
 1870 004c A342     		cmp	r3, r4
 1871 004e E6DC     		bgt	.L121
 495:.\main.c      ****         for (j = 0; j < drink->num_ingredients; j++) {
 1872              		.loc 1 495 0 is_stmt 1 discriminator 2
 1873 0050 0136     		adds	r6, r6, #1
 1874              	.LVL184:
 1875              	.L119:
 495:.\main.c      ****         for (j = 0; j < drink->num_ingredients; j++) {
 1876              		.loc 1 495 0 is_stmt 0 discriminator 1
 1877 0052 052E     		cmp	r6, #5
 1878 0054 F8DD     		ble	.L123
 500:.\main.c      ****             }
 501:.\main.c      ****         }
ARM GAS  C:\Users\mark6\AppData\Local\Temp\ccm1Ykfm.s 			page 45


 502:.\main.c      ****     }
 503:.\main.c      **** }
 1879              		.loc 1 503 0 is_stmt 1
 1880 0056 F8BD     		pop	{r3, r4, r5, r6, r7, pc}
 1881              	.LVL185:
 1882              	.L126:
 1883              		.align	2
 1884              	.L125:
 1885 0058 00000000 		.word	.LANCHOR0
 1886              		.cfi_endproc
 1887              	.LFE84:
 1888              		.size	get_required_motors, .-get_required_motors
 1889              		.section	.text.relay_flip,"ax",%progbits
 1890              		.align	2
 1891              		.global	relay_flip
 1892              		.thumb
 1893              		.thumb_func
 1894              		.type	relay_flip, %function
 1895              	relay_flip:
 1896              	.LFB86:
 504:.\main.c      **** 
 505:.\main.c      **** void dispense_drink(int drink_number) {
 506:.\main.c      ****     Drink* drink = drinks[drink_number];
 507:.\main.c      ****     get_required_motors(drink); // now have which motors and which amounts
 508:.\main.c      ****     int i;
 509:.\main.c      ****     for (i = 0; i < MOTOR_COUNT; i++) {
 510:.\main.c      ****         if (required_motors[i]) {
 511:.\main.c      ****             relay_on(i);
 512:.\main.c      ****             CyDelay(dispense_amount[i]);
 513:.\main.c      ****             relay_off(i);
 514:.\main.c      ****         }
 515:.\main.c      ****     }
 516:.\main.c      ****     display_dispenser();
 517:.\main.c      ****     // qsort(dispense_amount, sizeof(dispense_amount)/sizeof(*dispense_amount), sizeof(*dispense_am
 518:.\main.c      **** 
 519:.\main.c      **** }
 520:.\main.c      **** 
 521:.\main.c      **** void relay_flip(int button_num) {
 1897              		.loc 1 521 0
 1898              		.cfi_startproc
 1899              		@ args = 0, pretend = 0, frame = 0
 1900              		@ frame_needed = 0, uses_anonymous_args = 0
 1901              	.LVL186:
 1902 0000 08B5     		push	{r3, lr}
 1903              		.cfi_def_cfa_offset 8
 1904              		.cfi_offset 3, -8
 1905              		.cfi_offset 14, -4
 522:.\main.c      ****     if (button_num == 0) {
 1906              		.loc 1 522 0
 1907 0002 30B9     		cbnz	r0, .L128
 523:.\main.c      ****         Relay_1_Write(~Relay_1_Read());
 1908              		.loc 1 523 0
 1909 0004 FFF7FEFF 		bl	Relay_1_Read
 1910              	.LVL187:
 1911 0008 C043     		mvns	r0, r0
 1912 000a C0B2     		uxtb	r0, r0
 1913 000c FFF7FEFF 		bl	Relay_1_Write
ARM GAS  C:\Users\mark6\AppData\Local\Temp\ccm1Ykfm.s 			page 46


 1914              	.LVL188:
 1915 0010 08BD     		pop	{r3, pc}
 1916              	.LVL189:
 1917              	.L128:
 524:.\main.c      ****     } else if (button_num == 1) {
 1918              		.loc 1 524 0
 1919 0012 0128     		cmp	r0, #1
 1920 0014 06D1     		bne	.L130
 525:.\main.c      ****         Relay_2_Write(~Relay_2_Read());
 1921              		.loc 1 525 0
 1922 0016 FFF7FEFF 		bl	Relay_2_Read
 1923              	.LVL190:
 1924 001a C043     		mvns	r0, r0
 1925 001c C0B2     		uxtb	r0, r0
 1926 001e FFF7FEFF 		bl	Relay_2_Write
 1927              	.LVL191:
 1928 0022 08BD     		pop	{r3, pc}
 1929              	.LVL192:
 1930              	.L130:
 526:.\main.c      ****     } else if (button_num == 2) {
 1931              		.loc 1 526 0
 1932 0024 0228     		cmp	r0, #2
 1933 0026 06D1     		bne	.L131
 527:.\main.c      ****         Relay_3_Write(~Relay_3_Read());
 1934              		.loc 1 527 0
 1935 0028 FFF7FEFF 		bl	Relay_3_Read
 1936              	.LVL193:
 1937 002c C043     		mvns	r0, r0
 1938 002e C0B2     		uxtb	r0, r0
 1939 0030 FFF7FEFF 		bl	Relay_3_Write
 1940              	.LVL194:
 1941 0034 08BD     		pop	{r3, pc}
 1942              	.LVL195:
 1943              	.L131:
 528:.\main.c      ****     } else if (button_num == 3) {
 1944              		.loc 1 528 0
 1945 0036 0328     		cmp	r0, #3
 1946 0038 06D1     		bne	.L132
 529:.\main.c      ****         Relay_4_Write(~Relay_4_Read());
 1947              		.loc 1 529 0
 1948 003a FFF7FEFF 		bl	Relay_4_Read
 1949              	.LVL196:
 1950 003e C043     		mvns	r0, r0
 1951 0040 C0B2     		uxtb	r0, r0
 1952 0042 FFF7FEFF 		bl	Relay_4_Write
 1953              	.LVL197:
 1954 0046 08BD     		pop	{r3, pc}
 1955              	.LVL198:
 1956              	.L132:
 530:.\main.c      ****     } else if (button_num == 4) {
 1957              		.loc 1 530 0
 1958 0048 0428     		cmp	r0, #4
 1959 004a 06D1     		bne	.L133
 531:.\main.c      ****         Relay_5_Write(~Relay_5_Read());
 1960              		.loc 1 531 0
 1961 004c FFF7FEFF 		bl	Relay_5_Read
 1962              	.LVL199:
ARM GAS  C:\Users\mark6\AppData\Local\Temp\ccm1Ykfm.s 			page 47


 1963 0050 C043     		mvns	r0, r0
 1964 0052 C0B2     		uxtb	r0, r0
 1965 0054 FFF7FEFF 		bl	Relay_5_Write
 1966              	.LVL200:
 1967 0058 08BD     		pop	{r3, pc}
 1968              	.LVL201:
 1969              	.L133:
 532:.\main.c      ****     } else if (button_num == 5) {
 1970              		.loc 1 532 0
 1971 005a 0528     		cmp	r0, #5
 1972 005c 05D1     		bne	.L127
 533:.\main.c      ****         Relay_6_Write(~Relay_6_Read());
 1973              		.loc 1 533 0
 1974 005e FFF7FEFF 		bl	Relay_6_Read
 1975              	.LVL202:
 1976 0062 C043     		mvns	r0, r0
 1977 0064 C0B2     		uxtb	r0, r0
 1978 0066 FFF7FEFF 		bl	Relay_6_Write
 1979              	.LVL203:
 1980              	.L127:
 1981 006a 08BD     		pop	{r3, pc}
 1982              		.cfi_endproc
 1983              	.LFE86:
 1984              		.size	relay_flip, .-relay_flip
 1985              		.section	.text.relay_on,"ax",%progbits
 1986              		.align	2
 1987              		.global	relay_on
 1988              		.thumb
 1989              		.thumb_func
 1990              		.type	relay_on, %function
 1991              	relay_on:
 1992              	.LFB87:
 534:.\main.c      ****     }
 535:.\main.c      **** }
 536:.\main.c      **** void relay_on(int motor) {
 1993              		.loc 1 536 0
 1994              		.cfi_startproc
 1995              		@ args = 0, pretend = 0, frame = 0
 1996              		@ frame_needed = 0, uses_anonymous_args = 0
 1997              	.LVL204:
 1998 0000 08B5     		push	{r3, lr}
 1999              		.cfi_def_cfa_offset 8
 2000              		.cfi_offset 3, -8
 2001              		.cfi_offset 14, -4
 537:.\main.c      ****      if (motor == 0) {
 2002              		.loc 1 537 0
 2003 0002 10B9     		cbnz	r0, .L136
 538:.\main.c      ****         Relay_1_Write(0);
 2004              		.loc 1 538 0
 2005 0004 FFF7FEFF 		bl	Relay_1_Write
 2006              	.LVL205:
 2007 0008 08BD     		pop	{r3, pc}
 2008              	.LVL206:
 2009              	.L136:
 539:.\main.c      ****     } else if (motor == 1) {
 2010              		.loc 1 539 0
 2011 000a 0128     		cmp	r0, #1
ARM GAS  C:\Users\mark6\AppData\Local\Temp\ccm1Ykfm.s 			page 48


 2012 000c 03D1     		bne	.L138
 540:.\main.c      ****         Relay_2_Write(0);
 2013              		.loc 1 540 0
 2014 000e 0020     		movs	r0, #0
 2015              	.LVL207:
 2016 0010 FFF7FEFF 		bl	Relay_2_Write
 2017              	.LVL208:
 2018 0014 08BD     		pop	{r3, pc}
 2019              	.LVL209:
 2020              	.L138:
 541:.\main.c      ****     } else if (motor == 2) {
 2021              		.loc 1 541 0
 2022 0016 0228     		cmp	r0, #2
 2023 0018 03D1     		bne	.L139
 542:.\main.c      ****         Relay_3_Write(0);
 2024              		.loc 1 542 0
 2025 001a 0020     		movs	r0, #0
 2026              	.LVL210:
 2027 001c FFF7FEFF 		bl	Relay_3_Write
 2028              	.LVL211:
 2029 0020 08BD     		pop	{r3, pc}
 2030              	.LVL212:
 2031              	.L139:
 543:.\main.c      ****     } else if (motor == 3) {
 2032              		.loc 1 543 0
 2033 0022 0328     		cmp	r0, #3
 2034 0024 03D1     		bne	.L140
 544:.\main.c      ****         Relay_4_Write(0);
 2035              		.loc 1 544 0
 2036 0026 0020     		movs	r0, #0
 2037              	.LVL213:
 2038 0028 FFF7FEFF 		bl	Relay_4_Write
 2039              	.LVL214:
 2040 002c 08BD     		pop	{r3, pc}
 2041              	.LVL215:
 2042              	.L140:
 545:.\main.c      ****     } else if (motor == 4) {
 2043              		.loc 1 545 0
 2044 002e 0428     		cmp	r0, #4
 2045 0030 03D1     		bne	.L141
 546:.\main.c      ****         Relay_5_Write(0);
 2046              		.loc 1 546 0
 2047 0032 0020     		movs	r0, #0
 2048              	.LVL216:
 2049 0034 FFF7FEFF 		bl	Relay_5_Write
 2050              	.LVL217:
 2051 0038 08BD     		pop	{r3, pc}
 2052              	.LVL218:
 2053              	.L141:
 547:.\main.c      ****     } else if (motor == 5) {
 2054              		.loc 1 547 0
 2055 003a 0528     		cmp	r0, #5
 2056 003c 02D1     		bne	.L135
 548:.\main.c      ****         Relay_6_Write(0);
 2057              		.loc 1 548 0
 2058 003e 0020     		movs	r0, #0
 2059              	.LVL219:
ARM GAS  C:\Users\mark6\AppData\Local\Temp\ccm1Ykfm.s 			page 49


 2060 0040 FFF7FEFF 		bl	Relay_6_Write
 2061              	.LVL220:
 2062              	.L135:
 2063 0044 08BD     		pop	{r3, pc}
 2064              		.cfi_endproc
 2065              	.LFE87:
 2066              		.size	relay_on, .-relay_on
 2067 0046 00BF     		.section	.text.relay_off,"ax",%progbits
 2068              		.align	2
 2069              		.global	relay_off
 2070              		.thumb
 2071              		.thumb_func
 2072              		.type	relay_off, %function
 2073              	relay_off:
 2074              	.LFB88:
 549:.\main.c      ****     }   
 550:.\main.c      **** }
 551:.\main.c      **** 
 552:.\main.c      **** void relay_off(int motor) {
 2075              		.loc 1 552 0
 2076              		.cfi_startproc
 2077              		@ args = 0, pretend = 0, frame = 0
 2078              		@ frame_needed = 0, uses_anonymous_args = 0
 2079              	.LVL221:
 2080 0000 08B5     		push	{r3, lr}
 2081              		.cfi_def_cfa_offset 8
 2082              		.cfi_offset 3, -8
 2083              		.cfi_offset 14, -4
 553:.\main.c      ****      if (motor == 0) {
 2084              		.loc 1 553 0
 2085 0002 18B9     		cbnz	r0, .L144
 554:.\main.c      ****         Relay_1_Write(1);
 2086              		.loc 1 554 0
 2087 0004 0120     		movs	r0, #1
 2088              	.LVL222:
 2089 0006 FFF7FEFF 		bl	Relay_1_Write
 2090              	.LVL223:
 2091 000a 08BD     		pop	{r3, pc}
 2092              	.LVL224:
 2093              	.L144:
 555:.\main.c      ****     } else if (motor == 1) {
 2094              		.loc 1 555 0
 2095 000c 0128     		cmp	r0, #1
 2096 000e 03D1     		bne	.L146
 556:.\main.c      ****         Relay_2_Write(1);
 2097              		.loc 1 556 0
 2098 0010 0120     		movs	r0, #1
 2099              	.LVL225:
 2100 0012 FFF7FEFF 		bl	Relay_2_Write
 2101              	.LVL226:
 2102 0016 08BD     		pop	{r3, pc}
 2103              	.LVL227:
 2104              	.L146:
 557:.\main.c      ****     } else if (motor == 2) {
 2105              		.loc 1 557 0
 2106 0018 0228     		cmp	r0, #2
 2107 001a 03D1     		bne	.L147
ARM GAS  C:\Users\mark6\AppData\Local\Temp\ccm1Ykfm.s 			page 50


 558:.\main.c      ****         Relay_3_Write(1);
 2108              		.loc 1 558 0
 2109 001c 0120     		movs	r0, #1
 2110              	.LVL228:
 2111 001e FFF7FEFF 		bl	Relay_3_Write
 2112              	.LVL229:
 2113 0022 08BD     		pop	{r3, pc}
 2114              	.LVL230:
 2115              	.L147:
 559:.\main.c      ****     } else if (motor == 3) {
 2116              		.loc 1 559 0
 2117 0024 0328     		cmp	r0, #3
 2118 0026 03D1     		bne	.L148
 560:.\main.c      ****         Relay_4_Write(1);
 2119              		.loc 1 560 0
 2120 0028 0120     		movs	r0, #1
 2121              	.LVL231:
 2122 002a FFF7FEFF 		bl	Relay_4_Write
 2123              	.LVL232:
 2124 002e 08BD     		pop	{r3, pc}
 2125              	.LVL233:
 2126              	.L148:
 561:.\main.c      ****     } else if (motor == 4) {
 2127              		.loc 1 561 0
 2128 0030 0428     		cmp	r0, #4
 2129 0032 03D1     		bne	.L149
 562:.\main.c      ****         Relay_5_Write(1);
 2130              		.loc 1 562 0
 2131 0034 0120     		movs	r0, #1
 2132              	.LVL234:
 2133 0036 FFF7FEFF 		bl	Relay_5_Write
 2134              	.LVL235:
 2135 003a 08BD     		pop	{r3, pc}
 2136              	.LVL236:
 2137              	.L149:
 563:.\main.c      ****     } else if (motor == 5) {
 2138              		.loc 1 563 0
 2139 003c 0528     		cmp	r0, #5
 2140 003e 02D1     		bne	.L143
 564:.\main.c      ****         Relay_6_Write(1);
 2141              		.loc 1 564 0
 2142 0040 0120     		movs	r0, #1
 2143              	.LVL237:
 2144 0042 FFF7FEFF 		bl	Relay_6_Write
 2145              	.LVL238:
 2146              	.L143:
 2147 0046 08BD     		pop	{r3, pc}
 2148              		.cfi_endproc
 2149              	.LFE88:
 2150              		.size	relay_off, .-relay_off
 2151              		.section	.text.dispense_drink,"ax",%progbits
 2152              		.align	2
 2153              		.global	dispense_drink
 2154              		.thumb
 2155              		.thumb_func
 2156              		.type	dispense_drink, %function
 2157              	dispense_drink:
ARM GAS  C:\Users\mark6\AppData\Local\Temp\ccm1Ykfm.s 			page 51


 2158              	.LFB85:
 505:.\main.c      ****     Drink* drink = drinks[drink_number];
 2159              		.loc 1 505 0
 2160              		.cfi_startproc
 2161              		@ args = 0, pretend = 0, frame = 0
 2162              		@ frame_needed = 0, uses_anonymous_args = 0
 2163              	.LVL239:
 2164 0000 10B5     		push	{r4, lr}
 2165              		.cfi_def_cfa_offset 8
 2166              		.cfi_offset 4, -8
 2167              		.cfi_offset 14, -4
 506:.\main.c      ****     get_required_motors(drink); // now have which motors and which amounts
 2168              		.loc 1 506 0
 2169 0002 0F4B     		ldr	r3, .L156
 2170 0004 1B68     		ldr	r3, [r3]
 2171              	.LVL240:
 507:.\main.c      ****     int i;
 2172              		.loc 1 507 0
 2173 0006 53F82000 		ldr	r0, [r3, r0, lsl #2]
 2174              	.LVL241:
 2175 000a FFF7FEFF 		bl	get_required_motors
 2176              	.LVL242:
 509:.\main.c      ****         if (required_motors[i]) {
 2177              		.loc 1 509 0
 2178 000e 0024     		movs	r4, #0
 2179 0010 11E0     		b	.L152
 2180              	.LVL243:
 2181              	.L154:
 510:.\main.c      ****             relay_on(i);
 2182              		.loc 1 510 0
 2183 0012 0C4B     		ldr	r3, .L156+4
 2184 0014 03EB8403 		add	r3, r3, r4, lsl #2
 2185 0018 5B6B     		ldr	r3, [r3, #52]
 2186 001a 5BB1     		cbz	r3, .L153
 511:.\main.c      ****             CyDelay(dispense_amount[i]);
 2187              		.loc 1 511 0
 2188 001c 2046     		mov	r0, r4
 2189 001e FFF7FEFF 		bl	relay_on
 2190              	.LVL244:
 512:.\main.c      ****             relay_off(i);
 2191              		.loc 1 512 0
 2192 0022 084B     		ldr	r3, .L156+4
 2193 0024 03EB8403 		add	r3, r3, r4, lsl #2
 2194 0028 D86C     		ldr	r0, [r3, #76]
 2195 002a FFF7FEFF 		bl	CyDelay
 2196              	.LVL245:
 513:.\main.c      ****         }
 2197              		.loc 1 513 0
 2198 002e 2046     		mov	r0, r4
 2199 0030 FFF7FEFF 		bl	relay_off
 2200              	.LVL246:
 2201              	.L153:
 509:.\main.c      ****         if (required_motors[i]) {
 2202              		.loc 1 509 0 discriminator 2
 2203 0034 0134     		adds	r4, r4, #1
 2204              	.LVL247:
 2205              	.L152:
ARM GAS  C:\Users\mark6\AppData\Local\Temp\ccm1Ykfm.s 			page 52


 509:.\main.c      ****         if (required_motors[i]) {
 2206              		.loc 1 509 0 is_stmt 0 discriminator 1
 2207 0036 052C     		cmp	r4, #5
 2208 0038 EBDD     		ble	.L154
 516:.\main.c      ****     // qsort(dispense_amount, sizeof(dispense_amount)/sizeof(*dispense_amount), sizeof(*dispense_am
 2209              		.loc 1 516 0 is_stmt 1
 2210 003a FFF7FEFF 		bl	display_dispenser
 2211              	.LVL248:
 2212 003e 10BD     		pop	{r4, pc}
 2213              	.LVL249:
 2214              	.L157:
 2215              		.align	2
 2216              	.L156:
 2217 0040 00000000 		.word	drinks
 2218 0044 00000000 		.word	.LANCHOR0
 2219              		.cfi_endproc
 2220              	.LFE85:
 2221              		.size	dispense_drink, .-dispense_drink
 2222              		.section	.text.prime_pump,"ax",%progbits
 2223              		.align	2
 2224              		.global	prime_pump
 2225              		.thumb
 2226              		.thumb_func
 2227              		.type	prime_pump, %function
 2228              	prime_pump:
 2229              	.LFB89:
 565:.\main.c      ****     }   
 566:.\main.c      **** }
 567:.\main.c      **** void prime_pump(int motor) {
 2230              		.loc 1 567 0
 2231              		.cfi_startproc
 2232              		@ args = 0, pretend = 0, frame = 0
 2233              		@ frame_needed = 0, uses_anonymous_args = 0
 2234              	.LVL250:
 2235 0000 10B5     		push	{r4, lr}
 2236              		.cfi_def_cfa_offset 8
 2237              		.cfi_offset 4, -8
 2238              		.cfi_offset 14, -4
 2239 0002 0446     		mov	r4, r0
 568:.\main.c      ****     relay_on(motor);
 2240              		.loc 1 568 0
 2241 0004 FFF7FEFF 		bl	relay_on
 2242              	.LVL251:
 569:.\main.c      ****     CyDelay(1000 * PRIME_TIME);
 2243              		.loc 1 569 0
 2244 0008 41F27070 		movw	r0, #6000
 2245 000c FFF7FEFF 		bl	CyDelay
 2246              	.LVL252:
 570:.\main.c      ****     relay_off(motor);
 2247              		.loc 1 570 0
 2248 0010 2046     		mov	r0, r4
 2249 0012 FFF7FEFF 		bl	relay_off
 2250              	.LVL253:
 2251 0016 10BD     		pop	{r4, pc}
 2252              		.cfi_endproc
 2253              	.LFE89:
 2254              		.size	prime_pump, .-prime_pump
ARM GAS  C:\Users\mark6\AppData\Local\Temp\ccm1Ykfm.s 			page 53


 2255              		.section	.text.clear_config_data,"ax",%progbits
 2256              		.align	2
 2257              		.global	clear_config_data
 2258              		.thumb
 2259              		.thumb_func
 2260              		.type	clear_config_data, %function
 2261              	clear_config_data:
 2262              	.LFB90:
 571:.\main.c      **** }
 572:.\main.c      **** 
 573:.\main.c      **** void clear_config_data() {
 2263              		.loc 1 573 0
 2264              		.cfi_startproc
 2265              		@ args = 0, pretend = 0, frame = 0
 2266              		@ frame_needed = 0, uses_anonymous_args = 0
 2267              		@ link register save eliminated.
 2268              	.LVL254:
 574:.\main.c      ****     // clears all the words we've used to prepare for next data send
 575:.\main.c      ****     int i;
 576:.\main.c      ****     for (i = 0; i < MOTOR_COUNT; i++) {
 2269              		.loc 1 576 0
 2270 0000 0023     		movs	r3, #0
 2271 0002 03E0     		b	.L161
 2272              	.LVL255:
 2273              	.L162:
 577:.\main.c      ****         config_data[i] = 0;
 2274              		.loc 1 577 0 discriminator 3
 2275 0004 0021     		movs	r1, #0
 2276 0006 034A     		ldr	r2, .L163
 2277 0008 D154     		strb	r1, [r2, r3]
 576:.\main.c      ****         config_data[i] = 0;
 2278              		.loc 1 576 0 discriminator 3
 2279 000a 0133     		adds	r3, r3, #1
 2280              	.LVL256:
 2281              	.L161:
 576:.\main.c      ****         config_data[i] = 0;
 2282              		.loc 1 576 0 is_stmt 0 discriminator 1
 2283 000c 052B     		cmp	r3, #5
 2284 000e F9DD     		ble	.L162
 578:.\main.c      ****     }
 579:.\main.c      **** }
 2285              		.loc 1 579 0 is_stmt 1
 2286 0010 7047     		bx	lr
 2287              	.L164:
 2288 0012 00BF     		.align	2
 2289              	.L163:
 2290 0014 00000000 		.word	.LANCHOR0
 2291              		.cfi_endproc
 2292              	.LFE90:
 2293              		.size	clear_config_data, .-clear_config_data
 2294              		.section	.text.clean_tubing,"ax",%progbits
 2295              		.align	2
 2296              		.global	clean_tubing
 2297              		.thumb
 2298              		.thumb_func
 2299              		.type	clean_tubing, %function
 2300              	clean_tubing:
ARM GAS  C:\Users\mark6\AppData\Local\Temp\ccm1Ykfm.s 			page 54


 2301              	.LFB91:
 580:.\main.c      **** 
 581:.\main.c      **** void clean_tubing() {
 2302              		.loc 1 581 0
 2303              		.cfi_startproc
 2304              		@ args = 0, pretend = 0, frame = 0
 2305              		@ frame_needed = 0, uses_anonymous_args = 0
 2306 0000 10B5     		push	{r4, lr}
 2307              		.cfi_def_cfa_offset 8
 2308              		.cfi_offset 4, -8
 2309              		.cfi_offset 14, -4
 582:.\main.c      ****     // TODO this
 583:.\main.c      ****     clear_config_data();
 2310              		.loc 1 583 0
 2311 0002 FFF7FEFF 		bl	clear_config_data
 2312              	.LVL257:
 584:.\main.c      ****     display_cleaning();
 2313              		.loc 1 584 0
 2314 0006 FFF7FEFF 		bl	display_cleaning
 2315              	.LVL258:
 585:.\main.c      ****     int i;
 586:.\main.c      ****     for (i = 0; i < MOTOR_COUNT; i++) {
 2316              		.loc 1 586 0
 2317 000a 0024     		movs	r4, #0
 2318 000c 03E0     		b	.L166
 2319              	.LVL259:
 2320              	.L167:
 587:.\main.c      ****         relay_on(i);
 2321              		.loc 1 587 0 discriminator 3
 2322 000e 2046     		mov	r0, r4
 2323 0010 FFF7FEFF 		bl	relay_on
 2324              	.LVL260:
 586:.\main.c      ****         relay_on(i);
 2325              		.loc 1 586 0 discriminator 3
 2326 0014 0134     		adds	r4, r4, #1
 2327              	.LVL261:
 2328              	.L166:
 586:.\main.c      ****         relay_on(i);
 2329              		.loc 1 586 0 is_stmt 0 discriminator 1
 2330 0016 052C     		cmp	r4, #5
 2331 0018 F9DD     		ble	.L167
 588:.\main.c      ****     }
 589:.\main.c      ****     CyDelay(1000 * 120);
 2332              		.loc 1 589 0 is_stmt 1
 2333 001a 0748     		ldr	r0, .L171
 2334 001c FFF7FEFF 		bl	CyDelay
 2335              	.LVL262:
 590:.\main.c      ****     for (i = 0; i < MOTOR_COUNT; i++) {
 2336              		.loc 1 590 0
 2337 0020 0024     		movs	r4, #0
 2338 0022 03E0     		b	.L168
 2339              	.LVL263:
 2340              	.L169:
 591:.\main.c      ****         relay_off(i);
 2341              		.loc 1 591 0 discriminator 3
 2342 0024 2046     		mov	r0, r4
 2343 0026 FFF7FEFF 		bl	relay_off
ARM GAS  C:\Users\mark6\AppData\Local\Temp\ccm1Ykfm.s 			page 55


 2344              	.LVL264:
 590:.\main.c      ****     for (i = 0; i < MOTOR_COUNT; i++) {
 2345              		.loc 1 590 0 discriminator 3
 2346 002a 0134     		adds	r4, r4, #1
 2347              	.LVL265:
 2348              	.L168:
 590:.\main.c      ****     for (i = 0; i < MOTOR_COUNT; i++) {
 2349              		.loc 1 590 0 is_stmt 0 discriminator 1
 2350 002c 052C     		cmp	r4, #5
 2351 002e F9DD     		ble	.L169
 592:.\main.c      ****     }
 593:.\main.c      ****     display_config();
 2352              		.loc 1 593 0 is_stmt 1
 2353 0030 FFF7FEFF 		bl	display_config
 2354              	.LVL266:
 2355 0034 10BD     		pop	{r4, pc}
 2356              	.LVL267:
 2357              	.L172:
 2358 0036 00BF     		.align	2
 2359              	.L171:
 2360 0038 C0D40100 		.word	120000
 2361              		.cfi_endproc
 2362              	.LFE91:
 2363              		.size	clean_tubing, .-clean_tubing
 2364              		.section	.text.Submit_Button_Handler,"ax",%progbits
 2365              		.align	2
 2366              		.global	Submit_Button_Handler
 2367              		.thumb
 2368              		.thumb_func
 2369              		.type	Submit_Button_Handler, %function
 2370              	Submit_Button_Handler:
 2371              	.LFB65:
 166:.\main.c      ****     if (compare_lists(previous_presses, special_sequence, PRESS_SEQUENCE)) {
 2372              		.loc 1 166 0
 2373              		.cfi_startproc
 2374              		@ args = 0, pretend = 0, frame = 0
 2375              		@ frame_needed = 0, uses_anonymous_args = 0
 2376 0000 10B5     		push	{r4, lr}
 2377              		.cfi_def_cfa_offset 8
 2378              		.cfi_offset 4, -8
 2379              		.cfi_offset 14, -4
 167:.\main.c      ****         // Sequence entered, switch configuration
 2380              		.loc 1 167 0
 2381 0002 2E48     		ldr	r0, .L182
 2382 0004 2E49     		ldr	r1, .L182+4
 2383 0006 0822     		movs	r2, #8
 2384 0008 FFF7FEFF 		bl	compare_lists
 2385              	.LVL268:
 2386 000c A0B1     		cbz	r0, .L174
 169:.\main.c      ****             display_dispenser(); 
 2387              		.loc 1 169 0
 2388 000e 2D4B     		ldr	r3, .L182+8
 2389 0010 1B78     		ldrb	r3, [r3]	@ zero_extendqisi2
 2390 0012 3BB9     		cbnz	r3, .L175
 170:.\main.c      ****             push_to_list(previous_presses, SUBMIT, PRESS_SEQUENCE);    
 2391              		.loc 1 170 0
 2392 0014 FFF7FEFF 		bl	display_dispenser
ARM GAS  C:\Users\mark6\AppData\Local\Temp\ccm1Ykfm.s 			page 56


 2393              	.LVL269:
 171:.\main.c      ****             return;
 2394              		.loc 1 171 0
 2395 0018 2848     		ldr	r0, .L182
 2396 001a 0221     		movs	r1, #2
 2397 001c 0822     		movs	r2, #8
 2398 001e FFF7FEFF 		bl	push_to_list
 2399              	.LVL270:
 172:.\main.c      ****         } else if (current_display == DISPLAY) {
 2400              		.loc 1 172 0
 2401 0022 10BD     		pop	{r4, pc}
 2402              	.L175:
 173:.\main.c      ****             display_config(); 
 2403              		.loc 1 173 0
 2404 0024 012B     		cmp	r3, #1
 2405 0026 07D1     		bne	.L174
 174:.\main.c      ****             push_to_list(previous_presses, SUBMIT, PRESS_SEQUENCE);
 2406              		.loc 1 174 0
 2407 0028 FFF7FEFF 		bl	display_config
 2408              	.LVL271:
 175:.\main.c      ****             return;
 2409              		.loc 1 175 0
 2410 002c 2348     		ldr	r0, .L182
 2411 002e 0221     		movs	r1, #2
 2412 0030 0822     		movs	r2, #8
 2413 0032 FFF7FEFF 		bl	push_to_list
 2414              	.LVL272:
 176:.\main.c      ****         }
 2415              		.loc 1 176 0
 2416 0036 10BD     		pop	{r4, pc}
 2417              	.L174:
 179:.\main.c      ****         if (motor_scroll == MOTOR_COUNT) {
 2418              		.loc 1 179 0
 2419 0038 224B     		ldr	r3, .L182+8
 2420 003a 1B78     		ldrb	r3, [r3]	@ zero_extendqisi2
 2421 003c BBB9     		cbnz	r3, .L177
 180:.\main.c      ****             redraw_config_text("Clean Tubing", 7, GREEN);
 2422              		.loc 1 180 0
 2423 003e 224B     		ldr	r3, .L182+12
 2424 0040 D868     		ldr	r0, [r3, #12]
 2425 0042 0628     		cmp	r0, #6
 2426 0044 08D1     		bne	.L178
 181:.\main.c      ****             clean_tubing();
 2427              		.loc 1 181 0
 2428 0046 2148     		ldr	r0, .L182+16
 2429 0048 0721     		movs	r1, #7
 2430 004a 4FF47F42 		mov	r2, #65280
 2431 004e FFF7FEFF 		bl	redraw_config_text
 2432              	.LVL273:
 182:.\main.c      ****         } else {
 2433              		.loc 1 182 0
 2434 0052 FFF7FEFF 		bl	clean_tubing
 2435              	.LVL274:
 2436 0056 2BE0     		b	.L179
 2437              	.L178:
 184:.\main.c      ****             mixie_scroll = config_data[motor_scroll];
 2438              		.loc 1 184 0
ARM GAS  C:\Users\mark6\AppData\Local\Temp\ccm1Ykfm.s 			page 57


 2439 0058 1D49     		ldr	r1, .L182+20
 2440 005a FFF7FEFF 		bl	change_config_color
 2441              	.LVL275:
 185:.\main.c      ****             current_display = SELECTMIXIE;
 2442              		.loc 1 185 0
 2443 005e 1A4B     		ldr	r3, .L182+12
 2444 0060 DA68     		ldr	r2, [r3, #12]
 2445 0062 9A5C     		ldrb	r2, [r3, r2]	@ zero_extendqisi2
 2446 0064 1A61     		str	r2, [r3, #16]
 186:.\main.c      ****         }
 2447              		.loc 1 186 0
 2448 0066 0222     		movs	r2, #2
 2449 0068 164B     		ldr	r3, .L182+8
 2450 006a 1A70     		strb	r2, [r3]
 2451 006c 20E0     		b	.L179
 2452              	.L177:
 188:.\main.c      ****         current_display = CONFIG;
 2453              		.loc 1 188 0
 2454 006e 022B     		cmp	r3, #2
 2455 0070 15D1     		bne	.L180
 189:.\main.c      ****         config_data[motor_scroll] = mixie_scroll;
 2456              		.loc 1 189 0
 2457 0072 0022     		movs	r2, #0
 2458 0074 134B     		ldr	r3, .L182+8
 2459 0076 1A70     		strb	r2, [r3]
 190:.\main.c      ****         change_config_color(motor_scroll, GREEN);
 2460              		.loc 1 190 0
 2461 0078 134C     		ldr	r4, .L182+12
 2462 007a E068     		ldr	r0, [r4, #12]
 2463 007c 2369     		ldr	r3, [r4, #16]
 2464 007e 2354     		strb	r3, [r4, r0]
 191:.\main.c      ****         Em_EEPROM_Write(config_data, eeprom_config_data, sizeof(config_data));
 2465              		.loc 1 191 0
 2466 0080 4FF47F41 		mov	r1, #65280
 2467 0084 FFF7FEFF 		bl	change_config_color
 2468              	.LVL276:
 192:.\main.c      ****         prime_pump(motor_scroll);
 2469              		.loc 1 192 0
 2470 0088 2046     		mov	r0, r4
 2471 008a 1249     		ldr	r1, .L182+24
 2472 008c 0622     		movs	r2, #6
 2473 008e FFF7FEFF 		bl	Em_EEPROM_Write
 2474              	.LVL277:
 193:.\main.c      ****         display_config();
 2475              		.loc 1 193 0
 2476 0092 E068     		ldr	r0, [r4, #12]
 2477 0094 FFF7FEFF 		bl	prime_pump
 2478              	.LVL278:
 194:.\main.c      ****     } 
 2479              		.loc 1 194 0
 2480 0098 FFF7FEFF 		bl	display_config
 2481              	.LVL279:
 2482 009c 08E0     		b	.L179
 2483              	.L180:
 196:.\main.c      ****         dispense_drink(menu_indices[drink_scroll]);
 2484              		.loc 1 196 0
 2485 009e 012B     		cmp	r3, #1
ARM GAS  C:\Users\mark6\AppData\Local\Temp\ccm1Ykfm.s 			page 58


 2486 00a0 06D1     		bne	.L179
 197:.\main.c      ****     }
 2487              		.loc 1 197 0
 2488 00a2 0D4B     		ldr	r3, .L182+28
 2489 00a4 1A68     		ldr	r2, [r3]
 2490 00a6 084B     		ldr	r3, .L182+12
 2491 00a8 9B68     		ldr	r3, [r3, #8]
 2492 00aa D05C     		ldrb	r0, [r2, r3]	@ zero_extendqisi2
 2493 00ac FFF7FEFF 		bl	dispense_drink
 2494              	.LVL280:
 2495              	.L179:
 199:.\main.c      **** }
 2496              		.loc 1 199 0
 2497 00b0 0248     		ldr	r0, .L182
 2498 00b2 0221     		movs	r1, #2
 2499 00b4 0822     		movs	r2, #8
 2500 00b6 FFF7FEFF 		bl	push_to_list
 2501              	.LVL281:
 2502 00ba 10BD     		pop	{r4, pc}
 2503              	.L183:
 2504              		.align	2
 2505              	.L182:
 2506 00bc 14000000 		.word	.LANCHOR0+20
 2507 00c0 04000000 		.word	.LANCHOR1+4
 2508 00c4 00000000 		.word	current_display
 2509 00c8 00000000 		.word	.LANCHOR0
 2510 00cc 38000000 		.word	.LC2
 2511 00d0 3399FF00 		.word	16750899
 2512 00d4 18000000 		.word	.LANCHOR2+24
 2513 00d8 00000000 		.word	menu_indices
 2514              		.cfi_endproc
 2515              	.LFE65:
 2516              		.size	Submit_Button_Handler, .-Submit_Button_Handler
 2517              		.global	DownArrowPoints
 2518              		.global	UpArrowPoints
 2519              		.comm	current_display,1,1
 2520              		.comm	menu_indices,4,4
 2521              		.global	menu_length
 2522              		.global	timer_count
 2523              		.global	drink_scroll
 2524              		.global	motor_scroll
 2525              		.global	mixie_scroll
 2526              		.global	button_number
 2527              		.global	dispense_amount
 2528              		.global	required_motors
 2529              		.global	special_sequence
 2530              		.global	previous_presses
 2531              		.comm	menu,4,4
 2532              		.comm	drinks,4,4
 2533              		.global	config_data
 2534              		.comm	dispenser_rects,32,4
 2535              		.comm	rects,64,4
 2536              		.section	.rodata
 2537              		.align	2
 2538              		.set	.LANCHOR2,. + 0
 2539              		.type	UpArrowPoints, %object
 2540              		.size	UpArrowPoints, 12
ARM GAS  C:\Users\mark6\AppData\Local\Temp\ccm1Ykfm.s 			page 59


 2541              	UpArrowPoints:
 2542 0000 1E00     		.short	30
 2543 0002 1400     		.short	20
 2544 0004 0A00     		.short	10
 2545 0006 1400     		.short	20
 2546 0008 1400     		.short	20
 2547 000a 0000     		.short	0
 2548              		.type	DownArrowPoints, %object
 2549              		.size	DownArrowPoints, 12
 2550              	DownArrowPoints:
 2551 000c 1E00     		.short	30
 2552 000e 0000     		.short	0
 2553 0010 1400     		.short	20
 2554 0012 1400     		.short	20
 2555 0014 0A00     		.short	10
 2556 0016 0000     		.short	0
 2557              		.type	eeprom_config_data, %object
 2558              		.size	eeprom_config_data, 6
 2559              	eeprom_config_data:
 2560 0018 FF       		.byte	-1
 2561 0019 FF       		.byte	-1
 2562 001a FF       		.byte	-1
 2563 001b FF       		.byte	-1
 2564 001c FF       		.byte	-1
 2565 001d FF       		.byte	-1
 2566 001e 0000     		.data
 2567              		.align	2
 2568              		.set	.LANCHOR1,. + 0
 2569              		.type	menu_length, %object
 2570              		.size	menu_length, 4
 2571              	menu_length:
 2572 0000 01000000 		.word	1
 2573              		.type	special_sequence, %object
 2574              		.size	special_sequence, 32
 2575              	special_sequence:
 2576 0004 00000000 		.word	0
 2577 0008 01000000 		.word	1
 2578 000c 00000000 		.word	0
 2579 0010 01000000 		.word	1
 2580 0014 00000000 		.word	0
 2581 0018 00000000 		.word	0
 2582 001c 01000000 		.word	1
 2583 0020 01000000 		.word	1
 2584              		.section	.rodata.str1.4,"aMS",%progbits,1
 2585              		.align	2
 2586              	.LC0:
 2587 0000 436C6561 		.ascii	"Cleaning... Please wait 2 minutes\000"
 2587      6E696E67 
 2587      2E2E2E20 
 2587      506C6561 
 2587      73652077 
 2588 0022 0000     		.space	2
 2589              	.LC1:
 2590 0024 436F6E66 		.ascii	"Configuration Menu\000"
 2590      69677572 
 2590      6174696F 
 2590      6E204D65 
ARM GAS  C:\Users\mark6\AppData\Local\Temp\ccm1Ykfm.s 			page 60


 2590      6E7500
 2591 0037 00       		.space	1
 2592              	.LC2:
 2593 0038 436C6561 		.ascii	"Clean Tubing\000"
 2593      6E205475 
 2593      62696E67 
 2593      00
 2594 0045 000000   		.space	3
 2595              	.LC3:
 2596 0048 20202020 		.ascii	"                   \000"
 2596      20202020 
 2596      20202020 
 2596      20202020 
 2596      20202000 
 2597              	.LC4:
 2598 005c 4D6F726B 		.ascii	"Mork or Chungie, set this bitch up\000"
 2598      206F7220 
 2598      4368756E 
 2598      6769652C 
 2598      20736574 
 2599 007f 00       		.space	1
 2600              	.LC5:
 2601 0080 57656C63 		.ascii	"Welcome to Mork and Chungus's Bar Bot!\000"
 2601      6F6D6520 
 2601      746F204D 
 2601      6F726B20 
 2601      616E6420 
 2602 00a7 00       		.bss
 2603              		.align	2
 2604              		.set	.LANCHOR0,. + 0
 2605              		.type	config_data, %object
 2606              		.size	config_data, 6
 2607              	config_data:
 2608 0000 00000000 		.space	6
 2608      0000
 2609 0006 0000     		.space	2
 2610              		.type	drink_scroll, %object
 2611              		.size	drink_scroll, 4
 2612              	drink_scroll:
 2613 0008 00000000 		.space	4
 2614              		.type	motor_scroll, %object
 2615              		.size	motor_scroll, 4
 2616              	motor_scroll:
 2617 000c 00000000 		.space	4
 2618              		.type	mixie_scroll, %object
 2619              		.size	mixie_scroll, 4
 2620              	mixie_scroll:
 2621 0010 00000000 		.space	4
 2622              		.type	previous_presses, %object
 2623              		.size	previous_presses, 32
 2624              	previous_presses:
 2625 0014 00000000 		.space	32
 2625      00000000 
 2625      00000000 
 2625      00000000 
 2625      00000000 
 2626              		.type	required_motors, %object
ARM GAS  C:\Users\mark6\AppData\Local\Temp\ccm1Ykfm.s 			page 61


 2627              		.size	required_motors, 24
 2628              	required_motors:
 2629 0034 00000000 		.space	24
 2629      00000000 
 2629      00000000 
 2629      00000000 
 2629      00000000 
 2630              		.type	dispense_amount, %object
 2631              		.size	dispense_amount, 24
 2632              	dispense_amount:
 2633 004c 00000000 		.space	24
 2633      00000000 
 2633      00000000 
 2633      00000000 
 2633      00000000 
 2634              		.type	timer_count, %object
 2635              		.size	timer_count, 4
 2636              	timer_count:
 2637 0064 00000000 		.space	4
 2638              		.type	button_number, %object
 2639              		.size	button_number, 4
 2640              	button_number:
 2641 0068 00000000 		.space	4
 2642              		.text
 2643              	.Letext0:
 2644              		.file 2 "c:\\program files (x86)\\cypress\\psoc creator\\3.3\\psoc creator\\import\\gnu\\arm\\4.9.
 2645              		.file 3 "c:\\program files (x86)\\cypress\\psoc creator\\3.3\\psoc creator\\import\\gnu\\arm\\4.9.
 2646              		.file 4 "Generated_Source\\PSoC5/cytypes.h"
 2647              		.file 5 "c:\\program files (x86)\\cypress\\psoc creator\\3.3\\psoc creator\\import\\gnu\\arm\\4.9.
 2648              		.file 6 "c:\\program files (x86)\\cypress\\psoc creator\\3.3\\psoc creator\\import\\gnu\\arm\\4.9.
 2649              		.file 7 "..\\..\\emWinGraphics_v5_46\\Code\\Include\\PSoC4_5/LCD.h"
 2650              		.file 8 "..\\..\\emWinGraphics_v5_46\\Code\\Include\\PSoC4_5/GUI_Type.h"
 2651              		.file 9 "..\\..\\emWinGraphics_v5_46\\Code\\Include\\PSoC4_5/GUI.h"
 2652              		.file 10 ".\\drinks.h"
 2653              		.file 11 "Generated_Source\\PSoC5/core_cm3.h"
 2654              		.file 12 "Generated_Source\\PSoC5/SPIM_1.h"
 2655              		.file 13 "Generated_Source\\PSoC5/Em_EEPROM.h"
 2656              		.file 14 "c:\\program files (x86)\\cypress\\psoc creator\\3.3\\psoc creator\\import\\gnu\\arm\\4.9
 2657              		.file 15 "Generated_Source\\PSoC5/Submit_Int.h"
 2658              		.file 16 "Generated_Source\\PSoC5/Up_Int.h"
 2659              		.file 17 "Generated_Source\\PSoC5/Down_Int.h"
 2660              		.file 18 "Generated_Source\\PSoC5/Relay_1.h"
 2661              		.file 19 "Generated_Source\\PSoC5/Relay_2.h"
 2662              		.file 20 "Generated_Source\\PSoC5/Relay_3.h"
 2663              		.file 21 "Generated_Source\\PSoC5/Relay_4.h"
 2664              		.file 22 "Generated_Source\\PSoC5/Relay_5.h"
 2665              		.file 23 "Generated_Source\\PSoC5/Relay_6.h"
 2666              		.file 24 "Generated_Source\\PSoC5/CyLib.h"
 2667              		.section	.debug_info,"",%progbits
 2668              	.Ldebug_info0:
 2669 0000 191F0000 		.4byte	0x1f19
 2670 0004 0400     		.2byte	0x4
 2671 0006 00000000 		.4byte	.Ldebug_abbrev0
 2672 000a 04       		.byte	0x4
 2673 000b 01       		.uleb128 0x1
 2674 000c 83020000 		.4byte	.LASF254
 2675 0010 01       		.byte	0x1
ARM GAS  C:\Users\mark6\AppData\Local\Temp\ccm1Ykfm.s 			page 62


 2676 0011 790B0000 		.4byte	.LASF255
 2677 0015 05000000 		.4byte	.LASF256
 2678 0019 00000000 		.4byte	.Ldebug_ranges0+0
 2679 001d 00000000 		.4byte	0
 2680 0021 00000000 		.4byte	.Ldebug_line0
 2681 0025 02       		.uleb128 0x2
 2682 0026 01       		.byte	0x1
 2683 0027 06       		.byte	0x6
 2684 0028 4F020000 		.4byte	.LASF0
 2685 002c 02       		.uleb128 0x2
 2686 002d 01       		.byte	0x1
 2687 002e 08       		.byte	0x8
 2688 002f 19030000 		.4byte	.LASF1
 2689 0033 02       		.uleb128 0x2
 2690 0034 02       		.byte	0x2
 2691 0035 05       		.byte	0x5
 2692 0036 850A0000 		.4byte	.LASF2
 2693 003a 02       		.uleb128 0x2
 2694 003b 02       		.byte	0x2
 2695 003c 07       		.byte	0x7
 2696 003d 8B0B0000 		.4byte	.LASF3
 2697 0041 03       		.uleb128 0x3
 2698 0042 D10B0000 		.4byte	.LASF9
 2699 0046 02       		.byte	0x2
 2700 0047 3F       		.byte	0x3f
 2701 0048 4C000000 		.4byte	0x4c
 2702 004c 02       		.uleb128 0x2
 2703 004d 04       		.byte	0x4
 2704 004e 05       		.byte	0x5
 2705 004f B6010000 		.4byte	.LASF4
 2706 0053 02       		.uleb128 0x2
 2707 0054 04       		.byte	0x4
 2708 0055 07       		.byte	0x7
 2709 0056 E2050000 		.4byte	.LASF5
 2710 005a 02       		.uleb128 0x2
 2711 005b 08       		.byte	0x8
 2712 005c 05       		.byte	0x5
 2713 005d C5060000 		.4byte	.LASF6
 2714 0061 02       		.uleb128 0x2
 2715 0062 08       		.byte	0x8
 2716 0063 07       		.byte	0x7
 2717 0064 EA080000 		.4byte	.LASF7
 2718 0068 04       		.uleb128 0x4
 2719 0069 04       		.byte	0x4
 2720 006a 05       		.byte	0x5
 2721 006b 696E7400 		.ascii	"int\000"
 2722 006f 02       		.uleb128 0x2
 2723 0070 04       		.byte	0x4
 2724 0071 07       		.byte	0x7
 2725 0072 67070000 		.4byte	.LASF8
 2726 0076 03       		.uleb128 0x3
 2727 0077 95000000 		.4byte	.LASF10
 2728 007b 03       		.byte	0x3
 2729 007c 2C       		.byte	0x2c
 2730 007d 41000000 		.4byte	0x41
 2731 0081 05       		.uleb128 0x5
 2732 0082 570A0000 		.4byte	.LASF11
ARM GAS  C:\Users\mark6\AppData\Local\Temp\ccm1Ykfm.s 			page 63


 2733 0086 04       		.byte	0x4
 2734 0087 9201     		.2byte	0x192
 2735 0089 2C000000 		.4byte	0x2c
 2736 008d 05       		.uleb128 0x5
 2737 008e A7000000 		.4byte	.LASF12
 2738 0092 04       		.byte	0x4
 2739 0093 9401     		.2byte	0x194
 2740 0095 53000000 		.4byte	0x53
 2741 0099 02       		.uleb128 0x2
 2742 009a 04       		.byte	0x4
 2743 009b 04       		.byte	0x4
 2744 009c 5B070000 		.4byte	.LASF13
 2745 00a0 02       		.uleb128 0x2
 2746 00a1 08       		.byte	0x8
 2747 00a2 04       		.byte	0x4
 2748 00a3 F8060000 		.4byte	.LASF14
 2749 00a7 02       		.uleb128 0x2
 2750 00a8 01       		.byte	0x1
 2751 00a9 08       		.byte	0x8
 2752 00aa 92030000 		.4byte	.LASF15
 2753 00ae 05       		.uleb128 0x5
 2754 00af AB070000 		.4byte	.LASF16
 2755 00b3 04       		.byte	0x4
 2756 00b4 3402     		.2byte	0x234
 2757 00b6 53000000 		.4byte	0x53
 2758 00ba 05       		.uleb128 0x5
 2759 00bb C4080000 		.4byte	.LASF17
 2760 00bf 04       		.byte	0x4
 2761 00c0 4E02     		.2byte	0x24e
 2762 00c2 C6000000 		.4byte	0xc6
 2763 00c6 06       		.uleb128 0x6
 2764 00c7 04       		.byte	0x4
 2765 00c8 CC000000 		.4byte	0xcc
 2766 00cc 07       		.uleb128 0x7
 2767 00cd 03       		.uleb128 0x3
 2768 00ce 53000000 		.4byte	.LASF18
 2769 00d2 05       		.byte	0x5
 2770 00d3 D4       		.byte	0xd4
 2771 00d4 6F000000 		.4byte	0x6f
 2772 00d8 02       		.uleb128 0x2
 2773 00d9 04       		.byte	0x4
 2774 00da 07       		.byte	0x7
 2775 00db 5A000000 		.4byte	.LASF19
 2776 00df 08       		.uleb128 0x8
 2777 00e0 04       		.byte	0x4
 2778 00e1 06       		.uleb128 0x6
 2779 00e2 04       		.byte	0x4
 2780 00e3 A7000000 		.4byte	0xa7
 2781 00e7 06       		.uleb128 0x6
 2782 00e8 04       		.byte	0x4
 2783 00e9 ED000000 		.4byte	0xed
 2784 00ed 09       		.uleb128 0x9
 2785 00ee A7000000 		.4byte	0xa7
 2786 00f2 03       		.uleb128 0x3
 2787 00f3 7C040000 		.4byte	.LASF20
 2788 00f7 06       		.byte	0x6
 2789 00f8 70       		.byte	0x70
ARM GAS  C:\Users\mark6\AppData\Local\Temp\ccm1Ykfm.s 			page 64


 2790 00f9 6F000000 		.4byte	0x6f
 2791 00fd 03       		.uleb128 0x3
 2792 00fe 5B090000 		.4byte	.LASF21
 2793 0102 07       		.byte	0x7
 2794 0103 6A       		.byte	0x6a
 2795 0104 53000000 		.4byte	0x53
 2796 0108 0A       		.uleb128 0xa
 2797 0109 04       		.byte	0x4
 2798 010a 07       		.byte	0x7
 2799 010b 70       		.byte	0x70
 2800 010c 25010000 		.4byte	0x125
 2801 0110 0B       		.uleb128 0xb
 2802 0111 7800     		.ascii	"x\000"
 2803 0113 07       		.byte	0x7
 2804 0114 70       		.byte	0x70
 2805 0115 33000000 		.4byte	0x33
 2806 0119 00       		.byte	0
 2807 011a 0B       		.uleb128 0xb
 2808 011b 7900     		.ascii	"y\000"
 2809 011d 07       		.byte	0x7
 2810 011e 70       		.byte	0x70
 2811 011f 33000000 		.4byte	0x33
 2812 0123 02       		.byte	0x2
 2813 0124 00       		.byte	0
 2814 0125 03       		.uleb128 0x3
 2815 0126 76080000 		.4byte	.LASF22
 2816 012a 07       		.byte	0x7
 2817 012b 70       		.byte	0x70
 2818 012c 08010000 		.4byte	0x108
 2819 0130 0A       		.uleb128 0xa
 2820 0131 08       		.byte	0x8
 2821 0132 07       		.byte	0x7
 2822 0133 71       		.byte	0x71
 2823 0134 65010000 		.4byte	0x165
 2824 0138 0B       		.uleb128 0xb
 2825 0139 783000   		.ascii	"x0\000"
 2826 013c 07       		.byte	0x7
 2827 013d 71       		.byte	0x71
 2828 013e 33000000 		.4byte	0x33
 2829 0142 00       		.byte	0
 2830 0143 0B       		.uleb128 0xb
 2831 0144 793000   		.ascii	"y0\000"
 2832 0147 07       		.byte	0x7
 2833 0148 71       		.byte	0x71
 2834 0149 33000000 		.4byte	0x33
 2835 014d 02       		.byte	0x2
 2836 014e 0B       		.uleb128 0xb
 2837 014f 783100   		.ascii	"x1\000"
 2838 0152 07       		.byte	0x7
 2839 0153 71       		.byte	0x71
 2840 0154 33000000 		.4byte	0x33
 2841 0158 04       		.byte	0x4
 2842 0159 0B       		.uleb128 0xb
 2843 015a 793100   		.ascii	"y1\000"
 2844 015d 07       		.byte	0x7
 2845 015e 71       		.byte	0x71
 2846 015f 33000000 		.4byte	0x33
ARM GAS  C:\Users\mark6\AppData\Local\Temp\ccm1Ykfm.s 			page 65


 2847 0163 06       		.byte	0x6
 2848 0164 00       		.byte	0
 2849 0165 03       		.uleb128 0x3
 2850 0166 E7000000 		.4byte	.LASF23
 2851 016a 07       		.byte	0x7
 2852 016b 71       		.byte	0x71
 2853 016c 30010000 		.4byte	0x130
 2854 0170 06       		.uleb128 0x6
 2855 0171 04       		.byte	0x4
 2856 0172 76010000 		.4byte	0x176
 2857 0176 09       		.uleb128 0x9
 2858 0177 25010000 		.4byte	0x125
 2859 017b 06       		.uleb128 0x6
 2860 017c 04       		.byte	0x4
 2861 017d 81010000 		.4byte	0x181
 2862 0181 09       		.uleb128 0x9
 2863 0182 2C000000 		.4byte	0x2c
 2864 0186 06       		.uleb128 0x6
 2865 0187 04       		.byte	0x4
 2866 0188 8C010000 		.4byte	0x18c
 2867 018c 0C       		.uleb128 0xc
 2868 018d 03       		.uleb128 0x3
 2869 018e 10040000 		.4byte	.LASF24
 2870 0192 08       		.byte	0x8
 2871 0193 3D       		.byte	0x3d
 2872 0194 FD000000 		.4byte	0xfd
 2873 0198 03       		.uleb128 0x3
 2874 0199 EF060000 		.4byte	.LASF25
 2875 019d 08       		.byte	0x8
 2876 019e 40       		.byte	0x40
 2877 019f 65010000 		.4byte	0x165
 2878 01a3 0A       		.uleb128 0xa
 2879 01a4 04       		.byte	0x4
 2880 01a5 08       		.byte	0x8
 2881 01a6 B6       		.byte	0xb6
 2882 01a7 C2010000 		.4byte	0x1c2
 2883 01ab 0B       		.uleb128 0xb
 2884 01ac 633000   		.ascii	"c0\000"
 2885 01af 08       		.byte	0x8
 2886 01b0 B7       		.byte	0xb7
 2887 01b1 33000000 		.4byte	0x33
 2888 01b5 00       		.byte	0
 2889 01b6 0B       		.uleb128 0xb
 2890 01b7 633100   		.ascii	"c1\000"
 2891 01ba 08       		.byte	0x8
 2892 01bb B8       		.byte	0xb8
 2893 01bc 33000000 		.4byte	0x33
 2894 01c0 02       		.byte	0x2
 2895 01c1 00       		.byte	0
 2896 01c2 03       		.uleb128 0x3
 2897 01c3 B7040000 		.4byte	.LASF26
 2898 01c7 08       		.byte	0x8
 2899 01c8 B9       		.byte	0xb9
 2900 01c9 A3010000 		.4byte	0x1a3
 2901 01cd 0A       		.uleb128 0xa
 2902 01ce 08       		.byte	0x8
 2903 01cf 08       		.byte	0x8
ARM GAS  C:\Users\mark6\AppData\Local\Temp\ccm1Ykfm.s 			page 66


 2904 01d0 BB       		.byte	0xbb
 2905 01d1 FA010000 		.4byte	0x1fa
 2906 01d5 0D       		.uleb128 0xd
 2907 01d6 8E040000 		.4byte	.LASF27
 2908 01da 08       		.byte	0x8
 2909 01db BC       		.byte	0xbc
 2910 01dc 3A000000 		.4byte	0x3a
 2911 01e0 00       		.byte	0
 2912 01e1 0D       		.uleb128 0xd
 2913 01e2 820B0000 		.4byte	.LASF28
 2914 01e6 08       		.byte	0x8
 2915 01e7 BD       		.byte	0xbd
 2916 01e8 3A000000 		.4byte	0x3a
 2917 01ec 02       		.byte	0x2
 2918 01ed 0D       		.uleb128 0xd
 2919 01ee E1070000 		.4byte	.LASF29
 2920 01f2 08       		.byte	0x8
 2921 01f3 BE       		.byte	0xbe
 2922 01f4 FA010000 		.4byte	0x1fa
 2923 01f8 04       		.byte	0x4
 2924 01f9 00       		.byte	0
 2925 01fa 06       		.uleb128 0x6
 2926 01fb 04       		.byte	0x4
 2927 01fc 00020000 		.4byte	0x200
 2928 0200 09       		.uleb128 0x9
 2929 0201 C2010000 		.4byte	0x1c2
 2930 0205 03       		.uleb128 0x3
 2931 0206 B6050000 		.4byte	.LASF30
 2932 020a 08       		.byte	0x8
 2933 020b BF       		.byte	0xbf
 2934 020c CD010000 		.4byte	0x1cd
 2935 0210 0A       		.uleb128 0xa
 2936 0211 08       		.byte	0x8
 2937 0212 08       		.byte	0x8
 2938 0213 C1       		.byte	0xc1
 2939 0214 49020000 		.4byte	0x249
 2940 0218 0D       		.uleb128 0xd
 2941 0219 FB000000 		.4byte	.LASF31
 2942 021d 08       		.byte	0x8
 2943 021e C2       		.byte	0xc2
 2944 021f 2C000000 		.4byte	0x2c
 2945 0223 00       		.byte	0
 2946 0224 0D       		.uleb128 0xd
 2947 0225 B6030000 		.4byte	.LASF32
 2948 0229 08       		.byte	0x8
 2949 022a C3       		.byte	0xc3
 2950 022b 2C000000 		.4byte	0x2c
 2951 022f 01       		.byte	0x1
 2952 0230 0D       		.uleb128 0xd
 2953 0231 41050000 		.4byte	.LASF33
 2954 0235 08       		.byte	0x8
 2955 0236 C4       		.byte	0xc4
 2956 0237 2C000000 		.4byte	0x2c
 2957 023b 02       		.byte	0x2
 2958 023c 0D       		.uleb128 0xd
 2959 023d E10B0000 		.4byte	.LASF34
 2960 0241 08       		.byte	0x8
ARM GAS  C:\Users\mark6\AppData\Local\Temp\ccm1Ykfm.s 			page 67


 2961 0242 C5       		.byte	0xc5
 2962 0243 7B010000 		.4byte	0x17b
 2963 0247 04       		.byte	0x4
 2964 0248 00       		.byte	0
 2965 0249 03       		.uleb128 0x3
 2966 024a 18060000 		.4byte	.LASF35
 2967 024e 08       		.byte	0x8
 2968 024f C6       		.byte	0xc6
 2969 0250 10020000 		.4byte	0x210
 2970 0254 0A       		.uleb128 0xa
 2971 0255 0C       		.byte	0xc
 2972 0256 08       		.byte	0x8
 2973 0257 C8       		.byte	0xc8
 2974 0258 A5020000 		.4byte	0x2a5
 2975 025c 0D       		.uleb128 0xd
 2976 025d FB000000 		.4byte	.LASF31
 2977 0261 08       		.byte	0x8
 2978 0262 C9       		.byte	0xc9
 2979 0263 2C000000 		.4byte	0x2c
 2980 0267 00       		.byte	0
 2981 0268 0D       		.uleb128 0xd
 2982 0269 730B0000 		.4byte	.LASF36
 2983 026d 08       		.byte	0x8
 2984 026e CA       		.byte	0xca
 2985 026f 2C000000 		.4byte	0x2c
 2986 0273 01       		.byte	0x1
 2987 0274 0D       		.uleb128 0xd
 2988 0275 B2040000 		.4byte	.LASF37
 2989 0279 08       		.byte	0x8
 2990 027a CB       		.byte	0xcb
 2991 027b 25000000 		.4byte	0x25
 2992 027f 02       		.byte	0x2
 2993 0280 0D       		.uleb128 0xd
 2994 0281 C70A0000 		.4byte	.LASF38
 2995 0285 08       		.byte	0x8
 2996 0286 CC       		.byte	0xcc
 2997 0287 25000000 		.4byte	0x25
 2998 028b 03       		.byte	0x3
 2999 028c 0D       		.uleb128 0xd
 3000 028d B6030000 		.4byte	.LASF32
 3001 0291 08       		.byte	0x8
 3002 0292 CD       		.byte	0xcd
 3003 0293 2C000000 		.4byte	0x2c
 3004 0297 04       		.byte	0x4
 3005 0298 0D       		.uleb128 0xd
 3006 0299 E10B0000 		.4byte	.LASF34
 3007 029d 08       		.byte	0x8
 3008 029e CE       		.byte	0xce
 3009 029f 7B010000 		.4byte	0x17b
 3010 02a3 08       		.byte	0x8
 3011 02a4 00       		.byte	0
 3012 02a5 03       		.uleb128 0x3
 3013 02a6 C8030000 		.4byte	.LASF39
 3014 02aa 08       		.byte	0x8
 3015 02ab CF       		.byte	0xcf
 3016 02ac 54020000 		.4byte	0x254
 3017 02b0 0E       		.uleb128 0xe
ARM GAS  C:\Users\mark6\AppData\Local\Temp\ccm1Ykfm.s 			page 68


 3018 02b1 8B090000 		.4byte	.LASF44
 3019 02b5 0C       		.byte	0xc
 3020 02b6 08       		.byte	0x8
 3021 02b7 D1       		.byte	0xd1
 3022 02b8 ED020000 		.4byte	0x2ed
 3023 02bc 0D       		.uleb128 0xd
 3024 02bd 74070000 		.4byte	.LASF40
 3025 02c1 08       		.byte	0x8
 3026 02c2 D2       		.byte	0xd2
 3027 02c3 3A000000 		.4byte	0x3a
 3028 02c7 00       		.byte	0
 3029 02c8 0D       		.uleb128 0xd
 3030 02c9 B80A0000 		.4byte	.LASF41
 3031 02cd 08       		.byte	0x8
 3032 02ce D3       		.byte	0xd3
 3033 02cf 3A000000 		.4byte	0x3a
 3034 02d3 02       		.byte	0x2
 3035 02d4 0D       		.uleb128 0xd
 3036 02d5 0B020000 		.4byte	.LASF42
 3037 02d9 08       		.byte	0x8
 3038 02da D4       		.byte	0xd4
 3039 02db ED020000 		.4byte	0x2ed
 3040 02df 04       		.byte	0x4
 3041 02e0 0D       		.uleb128 0xd
 3042 02e1 DB0B0000 		.4byte	.LASF43
 3043 02e5 08       		.byte	0x8
 3044 02e6 D5       		.byte	0xd5
 3045 02e7 F8020000 		.4byte	0x2f8
 3046 02eb 08       		.byte	0x8
 3047 02ec 00       		.byte	0
 3048 02ed 06       		.uleb128 0x6
 3049 02ee 04       		.byte	0x4
 3050 02ef F3020000 		.4byte	0x2f3
 3051 02f3 09       		.uleb128 0x9
 3052 02f4 49020000 		.4byte	0x249
 3053 02f8 06       		.uleb128 0x6
 3054 02f9 04       		.byte	0x4
 3055 02fa FE020000 		.4byte	0x2fe
 3056 02fe 09       		.uleb128 0x9
 3057 02ff B0020000 		.4byte	0x2b0
 3058 0303 03       		.uleb128 0x3
 3059 0304 8B090000 		.4byte	.LASF44
 3060 0308 08       		.byte	0x8
 3061 0309 D6       		.byte	0xd6
 3062 030a B0020000 		.4byte	0x2b0
 3063 030e 0E       		.uleb128 0xe
 3064 030f 6D000000 		.4byte	.LASF45
 3065 0313 0C       		.byte	0xc
 3066 0314 08       		.byte	0x8
 3067 0315 D8       		.byte	0xd8
 3068 0316 4B030000 		.4byte	0x34b
 3069 031a 0D       		.uleb128 0xd
 3070 031b 74070000 		.4byte	.LASF40
 3071 031f 08       		.byte	0x8
 3072 0320 D9       		.byte	0xd9
 3073 0321 3A000000 		.4byte	0x3a
 3074 0325 00       		.byte	0
ARM GAS  C:\Users\mark6\AppData\Local\Temp\ccm1Ykfm.s 			page 69


 3075 0326 0D       		.uleb128 0xd
 3076 0327 B80A0000 		.4byte	.LASF41
 3077 032b 08       		.byte	0x8
 3078 032c DA       		.byte	0xda
 3079 032d 3A000000 		.4byte	0x3a
 3080 0331 02       		.byte	0x2
 3081 0332 0D       		.uleb128 0xd
 3082 0333 0B020000 		.4byte	.LASF42
 3083 0337 08       		.byte	0x8
 3084 0338 DB       		.byte	0xdb
 3085 0339 4B030000 		.4byte	0x34b
 3086 033d 04       		.byte	0x4
 3087 033e 0D       		.uleb128 0xd
 3088 033f DB0B0000 		.4byte	.LASF43
 3089 0343 08       		.byte	0x8
 3090 0344 DC       		.byte	0xdc
 3091 0345 56030000 		.4byte	0x356
 3092 0349 08       		.byte	0x8
 3093 034a 00       		.byte	0
 3094 034b 06       		.uleb128 0x6
 3095 034c 04       		.byte	0x4
 3096 034d 51030000 		.4byte	0x351
 3097 0351 09       		.uleb128 0x9
 3098 0352 A5020000 		.4byte	0x2a5
 3099 0356 06       		.uleb128 0x6
 3100 0357 04       		.byte	0x4
 3101 0358 5C030000 		.4byte	0x35c
 3102 035c 09       		.uleb128 0x9
 3103 035d 0E030000 		.4byte	0x30e
 3104 0361 03       		.uleb128 0x3
 3105 0362 6D000000 		.4byte	.LASF45
 3106 0366 08       		.byte	0x8
 3107 0367 DD       		.byte	0xdd
 3108 0368 0E030000 		.4byte	0x30e
 3109 036c 0A       		.uleb128 0xa
 3110 036d 14       		.byte	0x14
 3111 036e 08       		.byte	0x8
 3112 036f DF       		.byte	0xdf
 3113 0370 D5030000 		.4byte	0x3d5
 3114 0374 0D       		.uleb128 0xd
 3115 0375 E10B0000 		.4byte	.LASF34
 3116 0379 08       		.byte	0x8
 3117 037a E0       		.byte	0xe0
 3118 037b 7B010000 		.4byte	0x17b
 3119 037f 00       		.byte	0
 3120 0380 0D       		.uleb128 0xd
 3121 0381 AA0B0000 		.4byte	.LASF46
 3122 0385 08       		.byte	0x8
 3123 0386 E1       		.byte	0xe1
 3124 0387 7B010000 		.4byte	0x17b
 3125 038b 04       		.byte	0x4
 3126 038c 0D       		.uleb128 0xd
 3127 038d 84090000 		.4byte	.LASF47
 3128 0391 08       		.byte	0x8
 3129 0392 E2       		.byte	0xe2
 3130 0393 D5030000 		.4byte	0x3d5
 3131 0397 08       		.byte	0x8
ARM GAS  C:\Users\mark6\AppData\Local\Temp\ccm1Ykfm.s 			page 70


 3132 0398 0D       		.uleb128 0xd
 3133 0399 8E040000 		.4byte	.LASF27
 3134 039d 08       		.byte	0x8
 3135 039e E3       		.byte	0xe3
 3136 039f 3A000000 		.4byte	0x3a
 3137 03a3 0C       		.byte	0xc
 3138 03a4 0D       		.uleb128 0xd
 3139 03a5 820B0000 		.4byte	.LASF28
 3140 03a9 08       		.byte	0x8
 3141 03aa E4       		.byte	0xe4
 3142 03ab 3A000000 		.4byte	0x3a
 3143 03af 0E       		.byte	0xe
 3144 03b0 0D       		.uleb128 0xd
 3145 03b1 FB000000 		.4byte	.LASF31
 3146 03b5 08       		.byte	0x8
 3147 03b6 E5       		.byte	0xe5
 3148 03b7 2C000000 		.4byte	0x2c
 3149 03bb 10       		.byte	0x10
 3150 03bc 0D       		.uleb128 0xd
 3151 03bd B6030000 		.4byte	.LASF32
 3152 03c1 08       		.byte	0x8
 3153 03c2 E6       		.byte	0xe6
 3154 03c3 2C000000 		.4byte	0x2c
 3155 03c7 11       		.byte	0x11
 3156 03c8 0D       		.uleb128 0xd
 3157 03c9 41050000 		.4byte	.LASF33
 3158 03cd 08       		.byte	0x8
 3159 03ce E7       		.byte	0xe7
 3160 03cf 2C000000 		.4byte	0x2c
 3161 03d3 12       		.byte	0x12
 3162 03d4 00       		.byte	0
 3163 03d5 06       		.uleb128 0x6
 3164 03d6 04       		.byte	0x4
 3165 03d7 DB030000 		.4byte	0x3db
 3166 03db 09       		.uleb128 0x9
 3167 03dc 05020000 		.4byte	0x205
 3168 03e0 03       		.uleb128 0x3
 3169 03e1 D3070000 		.4byte	.LASF48
 3170 03e5 08       		.byte	0x8
 3171 03e6 E8       		.byte	0xe8
 3172 03e7 6C030000 		.4byte	0x36c
 3173 03eb 0A       		.uleb128 0xa
 3174 03ec 06       		.byte	0x6
 3175 03ed 08       		.byte	0x8
 3176 03ee F1       		.byte	0xf1
 3177 03ef 24040000 		.4byte	0x424
 3178 03f3 0D       		.uleb128 0xd
 3179 03f4 8C030000 		.4byte	.LASF49
 3180 03f8 08       		.byte	0x8
 3181 03f9 F2       		.byte	0xf2
 3182 03fa 3A000000 		.4byte	0x3a
 3183 03fe 00       		.byte	0
 3184 03ff 0D       		.uleb128 0xd
 3185 0400 140B0000 		.4byte	.LASF50
 3186 0404 08       		.byte	0x8
 3187 0405 F3       		.byte	0xf3
 3188 0406 2C000000 		.4byte	0x2c
ARM GAS  C:\Users\mark6\AppData\Local\Temp\ccm1Ykfm.s 			page 71


 3189 040a 02       		.byte	0x2
 3190 040b 0D       		.uleb128 0xd
 3191 040c 4C030000 		.4byte	.LASF51
 3192 0410 08       		.byte	0x8
 3193 0411 F4       		.byte	0xf4
 3194 0412 2C000000 		.4byte	0x2c
 3195 0416 03       		.byte	0x3
 3196 0417 0D       		.uleb128 0xd
 3197 0418 1C0A0000 		.4byte	.LASF52
 3198 041c 08       		.byte	0x8
 3199 041d F5       		.byte	0xf5
 3200 041e 2C000000 		.4byte	0x2c
 3201 0422 04       		.byte	0x4
 3202 0423 00       		.byte	0
 3203 0424 03       		.uleb128 0x3
 3204 0425 B7080000 		.4byte	.LASF53
 3205 0429 08       		.byte	0x8
 3206 042a F6       		.byte	0xf6
 3207 042b EB030000 		.4byte	0x3eb
 3208 042f 05       		.uleb128 0x5
 3209 0430 7A070000 		.4byte	.LASF54
 3210 0434 08       		.byte	0x8
 3211 0435 1301     		.2byte	0x113
 3212 0437 3B040000 		.4byte	0x43b
 3213 043b 0F       		.uleb128 0xf
 3214 043c 68000000 		.4byte	0x68
 3215 0440 4F040000 		.4byte	0x44f
 3216 0444 10       		.uleb128 0x10
 3217 0445 E7000000 		.4byte	0xe7
 3218 0449 10       		.uleb128 0x10
 3219 044a 68000000 		.4byte	0x68
 3220 044e 00       		.byte	0
 3221 044f 05       		.uleb128 0x5
 3222 0450 77060000 		.4byte	.LASF55
 3223 0454 08       		.byte	0x8
 3224 0455 1401     		.2byte	0x114
 3225 0457 3B040000 		.4byte	0x43b
 3226 045b 05       		.uleb128 0x5
 3227 045c 0D080000 		.4byte	.LASF56
 3228 0460 08       		.byte	0x8
 3229 0461 1501     		.2byte	0x115
 3230 0463 67040000 		.4byte	0x467
 3231 0467 11       		.uleb128 0x11
 3232 0468 77040000 		.4byte	0x477
 3233 046c 10       		.uleb128 0x10
 3234 046d E7000000 		.4byte	0xe7
 3235 0471 10       		.uleb128 0x10
 3236 0472 68000000 		.4byte	0x68
 3237 0476 00       		.byte	0
 3238 0477 12       		.uleb128 0x12
 3239 0478 0C       		.byte	0xc
 3240 0479 08       		.byte	0x8
 3241 047a 1701     		.2byte	0x117
 3242 047c A8040000 		.4byte	0x4a8
 3243 0480 13       		.uleb128 0x13
 3244 0481 FC010000 		.4byte	.LASF57
 3245 0485 08       		.byte	0x8
ARM GAS  C:\Users\mark6\AppData\Local\Temp\ccm1Ykfm.s 			page 72


 3246 0486 1801     		.2byte	0x118
 3247 0488 A8040000 		.4byte	0x4a8
 3248 048c 00       		.byte	0
 3249 048d 13       		.uleb128 0x13
 3250 048e 070A0000 		.4byte	.LASF58
 3251 0492 08       		.byte	0x8
 3252 0493 1901     		.2byte	0x119
 3253 0495 AE040000 		.4byte	0x4ae
 3254 0499 04       		.byte	0x4
 3255 049a 13       		.uleb128 0x13
 3256 049b 99090000 		.4byte	.LASF59
 3257 049f 08       		.byte	0x8
 3258 04a0 1A01     		.2byte	0x11a
 3259 04a2 B4040000 		.4byte	0x4b4
 3260 04a6 08       		.byte	0x8
 3261 04a7 00       		.byte	0
 3262 04a8 06       		.uleb128 0x6
 3263 04a9 04       		.byte	0x4
 3264 04aa 2F040000 		.4byte	0x42f
 3265 04ae 06       		.uleb128 0x6
 3266 04af 04       		.byte	0x4
 3267 04b0 4F040000 		.4byte	0x44f
 3268 04b4 06       		.uleb128 0x6
 3269 04b5 04       		.byte	0x4
 3270 04b6 5B040000 		.4byte	0x45b
 3271 04ba 05       		.uleb128 0x5
 3272 04bb 980A0000 		.4byte	.LASF60
 3273 04bf 08       		.byte	0x8
 3274 04c0 1B01     		.2byte	0x11b
 3275 04c2 77040000 		.4byte	0x477
 3276 04c6 05       		.uleb128 0x5
 3277 04c7 AF0A0000 		.4byte	.LASF61
 3278 04cb 08       		.byte	0x8
 3279 04cc 2401     		.2byte	0x124
 3280 04ce D2040000 		.4byte	0x4d2
 3281 04d2 14       		.uleb128 0x14
 3282 04d3 AF0A0000 		.4byte	.LASF61
 3283 04d7 24       		.byte	0x24
 3284 04d8 08       		.byte	0x8
 3285 04d9 B101     		.2byte	0x1b1
 3286 04db 94050000 		.4byte	0x594
 3287 04df 13       		.uleb128 0x13
 3288 04e0 95070000 		.4byte	.LASF62
 3289 04e4 08       		.byte	0x8
 3290 04e5 B201     		.2byte	0x1b2
 3291 04e7 9F060000 		.4byte	0x69f
 3292 04eb 00       		.byte	0
 3293 04ec 13       		.uleb128 0x13
 3294 04ed 050B0000 		.4byte	.LASF63
 3295 04f1 08       		.byte	0x8
 3296 04f2 B301     		.2byte	0x1b3
 3297 04f4 A5060000 		.4byte	0x6a5
 3298 04f8 04       		.byte	0x4
 3299 04f9 13       		.uleb128 0x13
 3300 04fa D3000000 		.4byte	.LASF64
 3301 04fe 08       		.byte	0x8
 3302 04ff B401     		.2byte	0x1b4
ARM GAS  C:\Users\mark6\AppData\Local\Temp\ccm1Ykfm.s 			page 73


 3303 0501 AB060000 		.4byte	0x6ab
 3304 0505 08       		.byte	0x8
 3305 0506 13       		.uleb128 0x13
 3306 0507 16020000 		.4byte	.LASF65
 3307 050b 08       		.byte	0x8
 3308 050c B501     		.2byte	0x1b5
 3309 050e B1060000 		.4byte	0x6b1
 3310 0512 0C       		.byte	0xc
 3311 0513 13       		.uleb128 0x13
 3312 0514 B7060000 		.4byte	.LASF66
 3313 0518 08       		.byte	0x8
 3314 0519 B601     		.2byte	0x1b6
 3315 051b B7060000 		.4byte	0x6b7
 3316 051f 10       		.byte	0x10
 3317 0520 13       		.uleb128 0x13
 3318 0521 63000000 		.4byte	.LASF67
 3319 0525 08       		.byte	0x8
 3320 0526 B701     		.2byte	0x1b7
 3321 0528 BD060000 		.4byte	0x6bd
 3322 052c 14       		.byte	0x14
 3323 052d 13       		.uleb128 0x13
 3324 052e 730B0000 		.4byte	.LASF36
 3325 0532 08       		.byte	0x8
 3326 0533 B801     		.2byte	0x1b8
 3327 0535 2C000000 		.4byte	0x2c
 3328 0539 18       		.byte	0x18
 3329 053a 13       		.uleb128 0x13
 3330 053b 4F010000 		.4byte	.LASF68
 3331 053f 08       		.byte	0x8
 3332 0540 B901     		.2byte	0x1b9
 3333 0542 2C000000 		.4byte	0x2c
 3334 0546 19       		.byte	0x19
 3335 0547 13       		.uleb128 0x13
 3336 0548 87030000 		.4byte	.LASF69
 3337 054c 08       		.byte	0x8
 3338 054d BA01     		.2byte	0x1ba
 3339 054f 2C000000 		.4byte	0x2c
 3340 0553 1A       		.byte	0x1a
 3341 0554 13       		.uleb128 0x13
 3342 0555 F1090000 		.4byte	.LASF70
 3343 0559 08       		.byte	0x8
 3344 055a BB01     		.2byte	0x1bb
 3345 055c 2C000000 		.4byte	0x2c
 3346 0560 1B       		.byte	0x1b
 3347 0561 15       		.uleb128 0x15
 3348 0562 7000     		.ascii	"p\000"
 3349 0564 08       		.byte	0x8
 3350 0565 C101     		.2byte	0x1c1
 3351 0567 44060000 		.4byte	0x644
 3352 056b 1C       		.byte	0x1c
 3353 056c 13       		.uleb128 0x13
 3354 056d 140B0000 		.4byte	.LASF50
 3355 0571 08       		.byte	0x8
 3356 0572 C201     		.2byte	0x1c2
 3357 0574 2C000000 		.4byte	0x2c
 3358 0578 20       		.byte	0x20
 3359 0579 13       		.uleb128 0x13
ARM GAS  C:\Users\mark6\AppData\Local\Temp\ccm1Ykfm.s 			page 74


 3360 057a 4C030000 		.4byte	.LASF51
 3361 057e 08       		.byte	0x8
 3362 057f C301     		.2byte	0x1c3
 3363 0581 2C000000 		.4byte	0x2c
 3364 0585 21       		.byte	0x21
 3365 0586 13       		.uleb128 0x13
 3366 0587 1C0A0000 		.4byte	.LASF52
 3367 058b 08       		.byte	0x8
 3368 058c C401     		.2byte	0x1c4
 3369 058e 2C000000 		.4byte	0x2c
 3370 0592 22       		.byte	0x22
 3371 0593 00       		.byte	0
 3372 0594 05       		.uleb128 0x5
 3373 0595 3B090000 		.4byte	.LASF71
 3374 0599 08       		.byte	0x8
 3375 059a 2601     		.2byte	0x126
 3376 059c A0050000 		.4byte	0x5a0
 3377 05a0 11       		.uleb128 0x11
 3378 05a1 AB050000 		.4byte	0x5ab
 3379 05a5 10       		.uleb128 0x10
 3380 05a6 3A000000 		.4byte	0x3a
 3381 05aa 00       		.byte	0
 3382 05ab 05       		.uleb128 0x5
 3383 05ac A5050000 		.4byte	.LASF72
 3384 05b0 08       		.byte	0x8
 3385 05b1 2701     		.2byte	0x127
 3386 05b3 B7050000 		.4byte	0x5b7
 3387 05b7 0F       		.uleb128 0xf
 3388 05b8 68000000 		.4byte	0x68
 3389 05bc CB050000 		.4byte	0x5cb
 3390 05c0 10       		.uleb128 0x10
 3391 05c1 3A000000 		.4byte	0x3a
 3392 05c5 10       		.uleb128 0x10
 3393 05c6 CB050000 		.4byte	0x5cb
 3394 05ca 00       		.byte	0
 3395 05cb 06       		.uleb128 0x6
 3396 05cc 04       		.byte	0x4
 3397 05cd 68000000 		.4byte	0x68
 3398 05d1 05       		.uleb128 0x5
 3399 05d2 9D040000 		.4byte	.LASF73
 3400 05d6 08       		.byte	0x8
 3401 05d7 2801     		.2byte	0x128
 3402 05d9 DD050000 		.4byte	0x5dd
 3403 05dd 11       		.uleb128 0x11
 3404 05de ED050000 		.4byte	0x5ed
 3405 05e2 10       		.uleb128 0x10
 3406 05e3 ED050000 		.4byte	0x5ed
 3407 05e7 10       		.uleb128 0x10
 3408 05e8 F8050000 		.4byte	0x5f8
 3409 05ec 00       		.byte	0
 3410 05ed 06       		.uleb128 0x6
 3411 05ee 04       		.byte	0x4
 3412 05ef F3050000 		.4byte	0x5f3
 3413 05f3 09       		.uleb128 0x9
 3414 05f4 C6040000 		.4byte	0x4c6
 3415 05f8 06       		.uleb128 0x6
 3416 05f9 04       		.byte	0x4
ARM GAS  C:\Users\mark6\AppData\Local\Temp\ccm1Ykfm.s 			page 75


 3417 05fa 24040000 		.4byte	0x424
 3418 05fe 05       		.uleb128 0x5
 3419 05ff 7A030000 		.4byte	.LASF74
 3420 0603 08       		.byte	0x8
 3421 0604 2901     		.2byte	0x129
 3422 0606 0A060000 		.4byte	0x60a
 3423 060a 0F       		.uleb128 0xf
 3424 060b A7000000 		.4byte	0xa7
 3425 060f 1E060000 		.4byte	0x61e
 3426 0613 10       		.uleb128 0x10
 3427 0614 ED050000 		.4byte	0x5ed
 3428 0618 10       		.uleb128 0x10
 3429 0619 3A000000 		.4byte	0x3a
 3430 061d 00       		.byte	0
 3431 061e 05       		.uleb128 0x5
 3432 061f B0090000 		.4byte	.LASF75
 3433 0623 08       		.byte	0x8
 3434 0624 2A01     		.2byte	0x12a
 3435 0626 2A060000 		.4byte	0x62a
 3436 062a 0F       		.uleb128 0xf
 3437 062b 68000000 		.4byte	0x68
 3438 062f 3E060000 		.4byte	0x63e
 3439 0633 10       		.uleb128 0x10
 3440 0634 3A000000 		.4byte	0x3a
 3441 0638 10       		.uleb128 0x10
 3442 0639 3E060000 		.4byte	0x63e
 3443 063d 00       		.byte	0
 3444 063e 06       		.uleb128 0x6
 3445 063f 04       		.byte	0x4
 3446 0640 A5020000 		.4byte	0x2a5
 3447 0644 16       		.uleb128 0x16
 3448 0645 04       		.byte	0x4
 3449 0646 08       		.byte	0x8
 3450 0647 BC01     		.2byte	0x1bc
 3451 0649 7E060000 		.4byte	0x67e
 3452 064d 17       		.uleb128 0x17
 3453 064e FB0A0000 		.4byte	.LASF76
 3454 0652 08       		.byte	0x8
 3455 0653 BD01     		.2byte	0x1bd
 3456 0655 86010000 		.4byte	0x186
 3457 0659 17       		.uleb128 0x17
 3458 065a B0010000 		.4byte	.LASF77
 3459 065e 08       		.byte	0x8
 3460 065f BE01     		.2byte	0x1be
 3461 0661 7E060000 		.4byte	0x67e
 3462 0665 17       		.uleb128 0x17
 3463 0666 29040000 		.4byte	.LASF78
 3464 066a 08       		.byte	0x8
 3465 066b BF01     		.2byte	0x1bf
 3466 066d 89060000 		.4byte	0x689
 3467 0671 17       		.uleb128 0x17
 3468 0672 CC0A0000 		.4byte	.LASF79
 3469 0676 08       		.byte	0x8
 3470 0677 C001     		.2byte	0x1c0
 3471 0679 94060000 		.4byte	0x694
 3472 067d 00       		.byte	0
 3473 067e 06       		.uleb128 0x6
ARM GAS  C:\Users\mark6\AppData\Local\Temp\ccm1Ykfm.s 			page 76


 3474 067f 04       		.byte	0x4
 3475 0680 84060000 		.4byte	0x684
 3476 0684 09       		.uleb128 0x9
 3477 0685 E0030000 		.4byte	0x3e0
 3478 0689 06       		.uleb128 0x6
 3479 068a 04       		.byte	0x4
 3480 068b 8F060000 		.4byte	0x68f
 3481 068f 09       		.uleb128 0x9
 3482 0690 03030000 		.4byte	0x303
 3483 0694 06       		.uleb128 0x6
 3484 0695 04       		.byte	0x4
 3485 0696 9A060000 		.4byte	0x69a
 3486 069a 09       		.uleb128 0x9
 3487 069b 61030000 		.4byte	0x361
 3488 069f 06       		.uleb128 0x6
 3489 06a0 04       		.byte	0x4
 3490 06a1 94050000 		.4byte	0x594
 3491 06a5 06       		.uleb128 0x6
 3492 06a6 04       		.byte	0x4
 3493 06a7 AB050000 		.4byte	0x5ab
 3494 06ab 06       		.uleb128 0x6
 3495 06ac 04       		.byte	0x4
 3496 06ad D1050000 		.4byte	0x5d1
 3497 06b1 06       		.uleb128 0x6
 3498 06b2 04       		.byte	0x4
 3499 06b3 FE050000 		.4byte	0x5fe
 3500 06b7 06       		.uleb128 0x6
 3501 06b8 04       		.byte	0x4
 3502 06b9 1E060000 		.4byte	0x61e
 3503 06bd 06       		.uleb128 0x6
 3504 06be 04       		.byte	0x4
 3505 06bf C3060000 		.4byte	0x6c3
 3506 06c3 09       		.uleb128 0x9
 3507 06c4 BA040000 		.4byte	0x4ba
 3508 06c8 06       		.uleb128 0x6
 3509 06c9 04       		.byte	0x4
 3510 06ca 98010000 		.4byte	0x198
 3511 06ce 18       		.uleb128 0x18
 3512 06cf 01       		.byte	0x1
 3513 06d0 09       		.byte	0x9
 3514 06d1 F902     		.2byte	0x2f9
 3515 06d3 EA060000 		.4byte	0x6ea
 3516 06d7 19       		.uleb128 0x19
 3517 06d8 65090000 		.4byte	.LASF80
 3518 06dc 00       		.sleb128 0
 3519 06dd 19       		.uleb128 0x19
 3520 06de D0050000 		.4byte	.LASF81
 3521 06e2 01       		.sleb128 1
 3522 06e3 19       		.uleb128 0x19
 3523 06e4 E5040000 		.4byte	.LASF82
 3524 06e8 02       		.sleb128 2
 3525 06e9 00       		.byte	0
 3526 06ea 05       		.uleb128 0x5
 3527 06eb 15010000 		.4byte	.LASF83
 3528 06ef 09       		.byte	0x9
 3529 06f0 F902     		.2byte	0x2f9
 3530 06f2 CE060000 		.4byte	0x6ce
ARM GAS  C:\Users\mark6\AppData\Local\Temp\ccm1Ykfm.s 			page 77


 3531 06f6 1A       		.uleb128 0x1a
 3532 06f7 3D030000 		.4byte	.LASF132
 3533 06fb 01       		.byte	0x1
 3534 06fc 0A       		.byte	0xa
 3535 06fd 15       		.byte	0x15
 3536 06fe ED070000 		.4byte	0x7ed
 3537 0702 19       		.uleb128 0x19
 3538 0703 F30A0000 		.4byte	.LASF84
 3539 0707 00       		.sleb128 0
 3540 0708 19       		.uleb128 0x19
 3541 0709 3F0A0000 		.4byte	.LASF85
 3542 070d 01       		.sleb128 1
 3543 070e 19       		.uleb128 0x19
 3544 070f 140A0000 		.4byte	.LASF86
 3545 0713 02       		.sleb128 2
 3546 0714 19       		.uleb128 0x19
 3547 0715 8C070000 		.4byte	.LASF87
 3548 0719 03       		.sleb128 3
 3549 071a 19       		.uleb128 0x19
 3550 071b 03080000 		.4byte	.LASF88
 3551 071f 04       		.sleb128 4
 3552 0720 19       		.uleb128 0x19
 3553 0721 F4050000 		.4byte	.LASF89
 3554 0725 05       		.sleb128 5
 3555 0726 19       		.uleb128 0x19
 3556 0727 B50B0000 		.4byte	.LASF90
 3557 072b 06       		.sleb128 6
 3558 072c 19       		.uleb128 0x19
 3559 072d E1000000 		.4byte	.LASF91
 3560 0731 07       		.sleb128 7
 3561 0732 19       		.uleb128 0x19
 3562 0733 98040000 		.4byte	.LASF92
 3563 0737 08       		.sleb128 8
 3564 0738 19       		.uleb128 0x19
 3565 0739 1A040000 		.4byte	.LASF93
 3566 073d 09       		.sleb128 9
 3567 073e 19       		.uleb128 0x19
 3568 073f A2060000 		.4byte	.LASF94
 3569 0743 0A       		.sleb128 10
 3570 0744 19       		.uleb128 0x19
 3571 0745 B0060000 		.4byte	.LASF95
 3572 0749 0B       		.sleb128 11
 3573 074a 19       		.uleb128 0x19
 3574 074b F3070000 		.4byte	.LASF96
 3575 074f 0C       		.sleb128 12
 3576 0750 19       		.uleb128 0x19
 3577 0751 3E080000 		.4byte	.LASF97
 3578 0755 0D       		.sleb128 13
 3579 0756 1B       		.uleb128 0x1b
 3580 0757 47494E00 		.ascii	"GIN\000"
 3581 075b 0E       		.sleb128 14
 3582 075c 19       		.uleb128 0x19
 3583 075d F1010000 		.4byte	.LASF98
 3584 0761 0F       		.sleb128 15
 3585 0762 19       		.uleb128 0x19
 3586 0763 54090000 		.4byte	.LASF99
 3587 0767 10       		.sleb128 16
ARM GAS  C:\Users\mark6\AppData\Local\Temp\ccm1Ykfm.s 			page 78


 3588 0768 19       		.uleb128 0x19
 3589 0769 38050000 		.4byte	.LASF100
 3590 076d 11       		.sleb128 17
 3591 076e 19       		.uleb128 0x19
 3592 076f 0E010000 		.4byte	.LASF101
 3593 0773 12       		.sleb128 18
 3594 0774 19       		.uleb128 0x19
 3595 0775 62030000 		.4byte	.LASF102
 3596 0779 13       		.sleb128 19
 3597 077a 19       		.uleb128 0x19
 3598 077b 81040000 		.4byte	.LASF103
 3599 077f 14       		.sleb128 20
 3600 0780 19       		.uleb128 0x19
 3601 0781 31020000 		.4byte	.LASF104
 3602 0785 15       		.sleb128 21
 3603 0786 19       		.uleb128 0x19
 3604 0787 66010000 		.4byte	.LASF105
 3605 078b 16       		.sleb128 22
 3606 078c 19       		.uleb128 0x19
 3607 078d 24050000 		.4byte	.LASF106
 3608 0791 17       		.sleb128 23
 3609 0792 19       		.uleb128 0x19
 3610 0793 240A0000 		.4byte	.LASF107
 3611 0797 18       		.sleb128 24
 3612 0798 19       		.uleb128 0x19
 3613 0799 E50A0000 		.4byte	.LASF108
 3614 079d 19       		.sleb128 25
 3615 079e 19       		.uleb128 0x19
 3616 079f A7030000 		.4byte	.LASF109
 3617 07a3 1A       		.sleb128 26
 3618 07a4 19       		.uleb128 0x19
 3619 07a5 48090000 		.4byte	.LASF110
 3620 07a9 1B       		.sleb128 27
 3621 07aa 19       		.uleb128 0x19
 3622 07ab 42070000 		.4byte	.LASF111
 3623 07af 1C       		.sleb128 28
 3624 07b0 19       		.uleb128 0x19
 3625 07b1 11030000 		.4byte	.LASF112
 3626 07b5 1D       		.sleb128 29
 3627 07b6 19       		.uleb128 0x19
 3628 07b7 BD0A0000 		.4byte	.LASF113
 3629 07bb 1E       		.sleb128 30
 3630 07bc 19       		.uleb128 0x19
 3631 07bd 2B090000 		.4byte	.LASF114
 3632 07c1 1F       		.sleb128 31
 3633 07c2 19       		.uleb128 0x19
 3634 07c3 370A0000 		.4byte	.LASF115
 3635 07c7 20       		.sleb128 32
 3636 07c8 19       		.uleb128 0x19
 3637 07c9 FD070000 		.4byte	.LASF116
 3638 07cd 21       		.sleb128 33
 3639 07ce 19       		.uleb128 0x19
 3640 07cf 9D000000 		.4byte	.LASF117
 3641 07d3 22       		.sleb128 34
 3642 07d4 19       		.uleb128 0x19
 3643 07d5 F7040000 		.4byte	.LASF118
 3644 07d9 23       		.sleb128 35
ARM GAS  C:\Users\mark6\AppData\Local\Temp\ccm1Ykfm.s 			page 79


 3645 07da 19       		.uleb128 0x19
 3646 07db 20070000 		.4byte	.LASF119
 3647 07df 24       		.sleb128 36
 3648 07e0 19       		.uleb128 0x19
 3649 07e1 D4040000 		.4byte	.LASF120
 3650 07e5 25       		.sleb128 37
 3651 07e6 19       		.uleb128 0x19
 3652 07e7 32090000 		.4byte	.LASF121
 3653 07eb 26       		.sleb128 38
 3654 07ec 00       		.byte	0
 3655 07ed 03       		.uleb128 0x3
 3656 07ee 30010000 		.4byte	.LASF122
 3657 07f2 0A       		.byte	0xa
 3658 07f3 15       		.byte	0x15
 3659 07f4 F6060000 		.4byte	0x6f6
 3660 07f8 0E       		.uleb128 0xe
 3661 07f9 FD040000 		.4byte	.LASF123
 3662 07fd 08       		.byte	0x8
 3663 07fe 0A       		.byte	0xa
 3664 07ff 17       		.byte	0x17
 3665 0800 1D080000 		.4byte	0x81d
 3666 0804 0D       		.uleb128 0xd
 3667 0805 AE000000 		.4byte	.LASF124
 3668 0809 0A       		.byte	0xa
 3669 080a 18       		.byte	0x18
 3670 080b ED070000 		.4byte	0x7ed
 3671 080f 00       		.byte	0
 3672 0810 0D       		.uleb128 0xd
 3673 0811 19070000 		.4byte	.LASF125
 3674 0815 0A       		.byte	0xa
 3675 0816 19       		.byte	0x19
 3676 0817 68000000 		.4byte	0x68
 3677 081b 04       		.byte	0x4
 3678 081c 00       		.byte	0
 3679 081d 03       		.uleb128 0x3
 3680 081e 8E080000 		.4byte	.LASF126
 3681 0822 0A       		.byte	0xa
 3682 0823 1A       		.byte	0x1a
 3683 0824 F8070000 		.4byte	0x7f8
 3684 0828 0E       		.uleb128 0xe
 3685 0829 60060000 		.4byte	.LASF127
 3686 082d 3C       		.byte	0x3c
 3687 082e 0A       		.byte	0xa
 3688 082f 1C       		.byte	0x1c
 3689 0830 59080000 		.4byte	0x859
 3690 0834 0D       		.uleb128 0xd
 3691 0835 480A0000 		.4byte	.LASF128
 3692 0839 0A       		.byte	0xa
 3693 083a 1D       		.byte	0x1d
 3694 083b 59080000 		.4byte	0x859
 3695 083f 00       		.byte	0
 3696 0840 0D       		.uleb128 0xd
 3697 0841 9E0B0000 		.4byte	.LASF129
 3698 0845 0A       		.byte	0xa
 3699 0846 1E       		.byte	0x1e
 3700 0847 69080000 		.4byte	0x869
 3701 084b 34       		.byte	0x34
ARM GAS  C:\Users\mark6\AppData\Local\Temp\ccm1Ykfm.s 			page 80


 3702 084c 0D       		.uleb128 0xd
 3703 084d 7F010000 		.4byte	.LASF130
 3704 0851 0A       		.byte	0xa
 3705 0852 1F       		.byte	0x1f
 3706 0853 68000000 		.4byte	0x68
 3707 0857 38       		.byte	0x38
 3708 0858 00       		.byte	0
 3709 0859 1C       		.uleb128 0x1c
 3710 085a A7000000 		.4byte	0xa7
 3711 085e 69080000 		.4byte	0x869
 3712 0862 1D       		.uleb128 0x1d
 3713 0863 D8000000 		.4byte	0xd8
 3714 0867 31       		.byte	0x31
 3715 0868 00       		.byte	0
 3716 0869 06       		.uleb128 0x6
 3717 086a 04       		.byte	0x4
 3718 086b 6F080000 		.4byte	0x86f
 3719 086f 06       		.uleb128 0x6
 3720 0870 04       		.byte	0x4
 3721 0871 1D080000 		.4byte	0x81d
 3722 0875 03       		.uleb128 0x3
 3723 0876 67060000 		.4byte	.LASF131
 3724 087a 0A       		.byte	0xa
 3725 087b 20       		.byte	0x20
 3726 087c 28080000 		.4byte	0x828
 3727 0880 1A       		.uleb128 0x1a
 3728 0881 7F000000 		.4byte	.LASF133
 3729 0885 01       		.byte	0x1
 3730 0886 01       		.byte	0x1
 3731 0887 45       		.byte	0x45
 3732 0888 9E080000 		.4byte	0x89e
 3733 088c 1B       		.uleb128 0x1b
 3734 088d 555000   		.ascii	"UP\000"
 3735 0890 00       		.sleb128 0
 3736 0891 19       		.uleb128 0x19
 3737 0892 00000000 		.4byte	.LASF134
 3738 0896 01       		.sleb128 1
 3739 0897 19       		.uleb128 0x19
 3740 0898 64040000 		.4byte	.LASF135
 3741 089c 02       		.sleb128 2
 3742 089d 00       		.byte	0
 3743 089e 1A       		.uleb128 0x1a
 3744 089f 27030000 		.4byte	.LASF136
 3745 08a3 01       		.byte	0x1
 3746 08a4 01       		.byte	0x1
 3747 08a5 46       		.byte	0x46
 3748 08a6 C3080000 		.4byte	0x8c3
 3749 08aa 19       		.uleb128 0x19
 3750 08ab C9050000 		.4byte	.LASF137
 3751 08af 00       		.sleb128 0
 3752 08b0 19       		.uleb128 0x19
 3753 08b1 1D0B0000 		.4byte	.LASF138
 3754 08b5 01       		.sleb128 1
 3755 08b6 19       		.uleb128 0x19
 3756 08b7 E5090000 		.4byte	.LASF139
 3757 08bb 02       		.sleb128 2
 3758 08bc 19       		.uleb128 0x19
ARM GAS  C:\Users\mark6\AppData\Local\Temp\ccm1Ykfm.s 			page 81


 3759 08bd 36020000 		.4byte	.LASF140
 3760 08c1 03       		.sleb128 3
 3761 08c2 00       		.byte	0
 3762 08c3 03       		.uleb128 0x3
 3763 08c4 27030000 		.4byte	.LASF136
 3764 08c8 01       		.byte	0x1
 3765 08c9 46       		.byte	0x46
 3766 08ca 9E080000 		.4byte	0x89e
 3767 08ce 1E       		.uleb128 0x1e
 3768 08cf AA080000 		.4byte	.LASF146
 3769 08d3 01       		.byte	0x1
 3770 08d4 F1       		.byte	0xf1
 3771 08d5 00000000 		.4byte	.LFB68
 3772 08d9 26000000 		.4byte	.LFE68-.LFB68
 3773 08dd 01       		.uleb128 0x1
 3774 08de 9C       		.byte	0x9c
 3775 08df 1A090000 		.4byte	0x91a
 3776 08e3 1F       		.uleb128 0x1f
 3777 08e4 08080000 		.4byte	.LASF141
 3778 08e8 01       		.byte	0x1
 3779 08e9 F1       		.byte	0xf1
 3780 08ea CB050000 		.4byte	0x5cb
 3781 08ee 01       		.uleb128 0x1
 3782 08ef 50       		.byte	0x50
 3783 08f0 1F       		.uleb128 0x1f
 3784 08f1 74030000 		.4byte	.LASF142
 3785 08f5 01       		.byte	0x1
 3786 08f6 F1       		.byte	0xf1
 3787 08f7 68000000 		.4byte	0x68
 3788 08fb 01       		.uleb128 0x1
 3789 08fc 51       		.byte	0x51
 3790 08fd 20       		.uleb128 0x20
 3791 08fe E5080000 		.4byte	.LASF143
 3792 0902 01       		.byte	0x1
 3793 0903 F1       		.byte	0xf1
 3794 0904 68000000 		.4byte	0x68
 3795 0908 00000000 		.4byte	.LLST0
 3796 090c 21       		.uleb128 0x21
 3797 090d 6900     		.ascii	"i\000"
 3798 090f 01       		.byte	0x1
 3799 0910 F2       		.byte	0xf2
 3800 0911 68000000 		.4byte	0x68
 3801 0915 35000000 		.4byte	.LLST1
 3802 0919 00       		.byte	0
 3803 091a 22       		.uleb128 0x22
 3804 091b 150C0000 		.4byte	.LASF156
 3805 091f 01       		.byte	0x1
 3806 0920 F9       		.byte	0xf9
 3807 0921 68000000 		.4byte	0x68
 3808 0925 00000000 		.4byte	.LFB69
 3809 0929 22000000 		.4byte	.LFE69-.LFB69
 3810 092d 01       		.uleb128 0x1
 3811 092e 9C       		.byte	0x9c
 3812 092f 6A090000 		.4byte	0x96a
 3813 0933 20       		.uleb128 0x20
 3814 0934 250B0000 		.4byte	.LASF144
 3815 0938 01       		.byte	0x1
ARM GAS  C:\Users\mark6\AppData\Local\Temp\ccm1Ykfm.s 			page 82


 3816 0939 F9       		.byte	0xf9
 3817 093a CB050000 		.4byte	0x5cb
 3818 093e 54000000 		.4byte	.LLST2
 3819 0942 1F       		.uleb128 0x1f
 3820 0943 2B0B0000 		.4byte	.LASF145
 3821 0947 01       		.byte	0x1
 3822 0948 F9       		.byte	0xf9
 3823 0949 CB050000 		.4byte	0x5cb
 3824 094d 01       		.uleb128 0x1
 3825 094e 51       		.byte	0x51
 3826 094f 1F       		.uleb128 0x1f
 3827 0950 E5080000 		.4byte	.LASF143
 3828 0954 01       		.byte	0x1
 3829 0955 F9       		.byte	0xf9
 3830 0956 68000000 		.4byte	0x68
 3831 095a 01       		.uleb128 0x1
 3832 095b 52       		.byte	0x52
 3833 095c 21       		.uleb128 0x21
 3834 095d 6900     		.ascii	"i\000"
 3835 095f 01       		.byte	0x1
 3836 0960 FA       		.byte	0xfa
 3837 0961 68000000 		.4byte	0x68
 3838 0965 8E000000 		.4byte	.LLST3
 3839 0969 00       		.byte	0
 3840 096a 23       		.uleb128 0x23
 3841 096b 42040000 		.4byte	.LASF147
 3842 096f 01       		.byte	0x1
 3843 0970 0C01     		.2byte	0x10c
 3844 0972 00000000 		.4byte	.LFB71
 3845 0976 88000000 		.4byte	.LFE71-.LFB71
 3846 097a 01       		.uleb128 0x1
 3847 097b 9C       		.byte	0x9c
 3848 097c 030A0000 		.4byte	0xa03
 3849 0980 24       		.uleb128 0x24
 3850 0981 A90A0000 		.4byte	.LASF148
 3851 0985 01       		.byte	0x1
 3852 0986 0C01     		.2byte	0x10c
 3853 0988 68000000 		.4byte	0x68
 3854 098c AD000000 		.4byte	.LLST4
 3855 0990 24       		.uleb128 0x24
 3856 0991 DF090000 		.4byte	.LASF149
 3857 0995 01       		.byte	0x1
 3858 0996 0C01     		.2byte	0x10c
 3859 0998 68000000 		.4byte	0x68
 3860 099c D9000000 		.4byte	.LLST5
 3861 09a0 25       		.uleb128 0x25
 3862 09a1 39080000 		.4byte	.LASF150
 3863 09a5 01       		.byte	0x1
 3864 09a6 0E01     		.2byte	0x10e
 3865 09a8 98010000 		.4byte	0x198
 3866 09ac 02       		.uleb128 0x2
 3867 09ad 91       		.byte	0x91
 3868 09ae 70       		.sleb128 -16
 3869 09af 26       		.uleb128 0x26
 3870 09b0 0C000000 		.4byte	.LVL15
 3871 09b4 E51C0000 		.4byte	0x1ce5
 3872 09b8 C4090000 		.4byte	0x9c4
ARM GAS  C:\Users\mark6\AppData\Local\Temp\ccm1Ykfm.s 			page 83


 3873 09bc 27       		.uleb128 0x27
 3874 09bd 01       		.uleb128 0x1
 3875 09be 50       		.byte	0x50
 3876 09bf 03       		.uleb128 0x3
 3877 09c0 F3       		.byte	0xf3
 3878 09c1 01       		.uleb128 0x1
 3879 09c2 51       		.byte	0x51
 3880 09c3 00       		.byte	0
 3881 09c4 28       		.uleb128 0x28
 3882 09c5 2C000000 		.4byte	.LVL16
 3883 09c9 F71C0000 		.4byte	0x1cf7
 3884 09cd 28       		.uleb128 0x28
 3885 09ce 3E000000 		.4byte	.LVL17
 3886 09d2 F71C0000 		.4byte	0x1cf7
 3887 09d6 28       		.uleb128 0x28
 3888 09d7 50000000 		.4byte	.LVL18
 3889 09db F71C0000 		.4byte	0x1cf7
 3890 09df 28       		.uleb128 0x28
 3891 09e0 62000000 		.4byte	.LVL19
 3892 09e4 F71C0000 		.4byte	0x1cf7
 3893 09e8 29       		.uleb128 0x29
 3894 09e9 78000000 		.4byte	.LVL20
 3895 09ed 181D0000 		.4byte	0x1d18
 3896 09f1 27       		.uleb128 0x27
 3897 09f2 01       		.uleb128 0x1
 3898 09f3 53       		.byte	0x53
 3899 09f4 01       		.uleb128 0x1
 3900 09f5 31       		.byte	0x31
 3901 09f6 27       		.uleb128 0x27
 3902 09f7 01       		.uleb128 0x1
 3903 09f8 52       		.byte	0x52
 3904 09f9 01       		.uleb128 0x1
 3905 09fa 3E       		.byte	0x3e
 3906 09fb 27       		.uleb128 0x27
 3907 09fc 01       		.uleb128 0x1
 3908 09fd 51       		.byte	0x51
 3909 09fe 02       		.uleb128 0x2
 3910 09ff 7D       		.byte	0x7d
 3911 0a00 00       		.sleb128 0
 3912 0a01 00       		.byte	0
 3913 0a02 00       		.byte	0
 3914 0a03 23       		.uleb128 0x23
 3915 0a04 2F040000 		.4byte	.LASF151
 3916 0a08 01       		.byte	0x1
 3917 0a09 0501     		.2byte	0x105
 3918 0a0b 00000000 		.4byte	.LFB70
 3919 0a0f 1A000000 		.4byte	.LFE70-.LFB70
 3920 0a13 01       		.uleb128 0x1
 3921 0a14 9C       		.byte	0x9c
 3922 0a15 7E0A0000 		.4byte	0xa7e
 3923 0a19 24       		.uleb128 0x24
 3924 0a1a 4D0A0000 		.4byte	.LASF152
 3925 0a1e 01       		.byte	0x1
 3926 0a1f 0501     		.2byte	0x105
 3927 0a21 68000000 		.4byte	0x68
 3928 0a25 FA000000 		.4byte	.LLST6
 3929 0a29 24       		.uleb128 0x24
ARM GAS  C:\Users\mark6\AppData\Local\Temp\ccm1Ykfm.s 			page 84


 3930 0a2a 79020000 		.4byte	.LASF153
 3931 0a2e 01       		.byte	0x1
 3932 0a2f 0501     		.2byte	0x105
 3933 0a31 68000000 		.4byte	0x68
 3934 0a35 18010000 		.4byte	.LLST7
 3935 0a39 24       		.uleb128 0x24
 3936 0a3a DF090000 		.4byte	.LASF149
 3937 0a3e 01       		.byte	0x1
 3938 0a3f 0501     		.2byte	0x105
 3939 0a41 68000000 		.4byte	0x68
 3940 0a45 44010000 		.4byte	.LLST8
 3941 0a49 26       		.uleb128 0x26
 3942 0a4a 10000000 		.4byte	.LVL25
 3943 0a4e 6A090000 		.4byte	0x96a
 3944 0a52 670A0000 		.4byte	0xa67
 3945 0a56 27       		.uleb128 0x27
 3946 0a57 01       		.uleb128 0x1
 3947 0a58 51       		.byte	0x51
 3948 0a59 05       		.uleb128 0x5
 3949 0a5a 0C       		.byte	0xc
 3950 0a5b FFFFFF00 		.4byte	0xffffff
 3951 0a5f 27       		.uleb128 0x27
 3952 0a60 01       		.uleb128 0x1
 3953 0a61 50       		.byte	0x50
 3954 0a62 03       		.uleb128 0x3
 3955 0a63 F3       		.byte	0xf3
 3956 0a64 01       		.uleb128 0x1
 3957 0a65 51       		.byte	0x51
 3958 0a66 00       		.byte	0
 3959 0a67 29       		.uleb128 0x29
 3960 0a68 18000000 		.4byte	.LVL26
 3961 0a6c 6A090000 		.4byte	0x96a
 3962 0a70 27       		.uleb128 0x27
 3963 0a71 01       		.uleb128 0x1
 3964 0a72 51       		.byte	0x51
 3965 0a73 02       		.uleb128 0x2
 3966 0a74 74       		.byte	0x74
 3967 0a75 00       		.sleb128 0
 3968 0a76 27       		.uleb128 0x27
 3969 0a77 01       		.uleb128 0x1
 3970 0a78 50       		.byte	0x50
 3971 0a79 02       		.uleb128 0x2
 3972 0a7a 75       		.byte	0x75
 3973 0a7b 00       		.sleb128 0
 3974 0a7c 00       		.byte	0
 3975 0a7d 00       		.byte	0
 3976 0a7e 23       		.uleb128 0x23
 3977 0a7f DC060000 		.4byte	.LASF154
 3978 0a83 01       		.byte	0x1
 3979 0a84 1A01     		.2byte	0x11a
 3980 0a86 00000000 		.4byte	.LFB72
 3981 0a8a 24000000 		.4byte	.LFE72-.LFB72
 3982 0a8e 01       		.uleb128 0x1
 3983 0a8f 9C       		.byte	0x9c
 3984 0a90 020B0000 		.4byte	0xb02
 3985 0a94 24       		.uleb128 0x24
 3986 0a95 AD040000 		.4byte	.LASF155
ARM GAS  C:\Users\mark6\AppData\Local\Temp\ccm1Ykfm.s 			page 85


 3987 0a99 01       		.byte	0x1
 3988 0a9a 1A01     		.2byte	0x11a
 3989 0a9c E1000000 		.4byte	0xe1
 3990 0aa0 62010000 		.4byte	.LLST9
 3991 0aa4 24       		.uleb128 0x24
 3992 0aa5 A90A0000 		.4byte	.LASF148
 3993 0aa9 01       		.byte	0x1
 3994 0aaa 1A01     		.2byte	0x11a
 3995 0aac 68000000 		.4byte	0x68
 3996 0ab0 8E010000 		.4byte	.LLST10
 3997 0ab4 24       		.uleb128 0x24
 3998 0ab5 DF090000 		.4byte	.LASF149
 3999 0ab9 01       		.byte	0x1
 4000 0aba 1A01     		.2byte	0x11a
 4001 0abc 68000000 		.4byte	0x68
 4002 0ac0 BA010000 		.4byte	.LLST11
 4003 0ac4 26       		.uleb128 0x26
 4004 0ac5 0C000000 		.4byte	.LVL29
 4005 0ac9 E51C0000 		.4byte	0x1ce5
 4006 0acd D90A0000 		.4byte	0xad9
 4007 0ad1 27       		.uleb128 0x27
 4008 0ad2 01       		.uleb128 0x1
 4009 0ad3 50       		.byte	0x50
 4010 0ad4 03       		.uleb128 0x3
 4011 0ad5 F3       		.byte	0xf3
 4012 0ad6 01       		.uleb128 0x1
 4013 0ad7 52       		.byte	0x52
 4014 0ad8 00       		.byte	0
 4015 0ad9 29       		.uleb128 0x29
 4016 0ada 1C000000 		.4byte	.LVL30
 4017 0ade 181D0000 		.4byte	0x1d18
 4018 0ae2 27       		.uleb128 0x27
 4019 0ae3 01       		.uleb128 0x1
 4020 0ae4 53       		.byte	0x53
 4021 0ae5 01       		.uleb128 0x1
 4022 0ae6 31       		.byte	0x31
 4023 0ae7 27       		.uleb128 0x27
 4024 0ae8 01       		.uleb128 0x1
 4025 0ae9 52       		.byte	0x52
 4026 0aea 01       		.uleb128 0x1
 4027 0aeb 3E       		.byte	0x3e
 4028 0aec 27       		.uleb128 0x27
 4029 0aed 01       		.uleb128 0x1
 4030 0aee 51       		.byte	0x51
 4031 0aef 0A       		.uleb128 0xa
 4032 0af0 74       		.byte	0x74
 4033 0af1 00       		.sleb128 0
 4034 0af2 33       		.byte	0x33
 4035 0af3 24       		.byte	0x24
 4036 0af4 03       		.byte	0x3
 4037 0af5 00000000 		.4byte	rects
 4038 0af9 22       		.byte	0x22
 4039 0afa 27       		.uleb128 0x27
 4040 0afb 01       		.uleb128 0x1
 4041 0afc 50       		.byte	0x50
 4042 0afd 02       		.uleb128 0x2
 4043 0afe 75       		.byte	0x75
ARM GAS  C:\Users\mark6\AppData\Local\Temp\ccm1Ykfm.s 			page 86


 4044 0aff 00       		.sleb128 0
 4045 0b00 00       		.byte	0
 4046 0b01 00       		.byte	0
 4047 0b02 2A       		.uleb128 0x2a
 4048 0b03 F6090000 		.4byte	.LASF163
 4049 0b07 01       		.byte	0x1
 4050 0b08 1F01     		.2byte	0x11f
 4051 0b0a 00000000 		.4byte	.LFB73
 4052 0b0e 2C000000 		.4byte	.LFE73-.LFB73
 4053 0b12 01       		.uleb128 0x1
 4054 0b13 9C       		.byte	0x9c
 4055 0b14 580B0000 		.4byte	0xb58
 4056 0b18 28       		.uleb128 0x28
 4057 0b19 06000000 		.4byte	.LVL32
 4058 0b1d 391D0000 		.4byte	0x1d39
 4059 0b21 26       		.uleb128 0x26
 4060 0b22 0C000000 		.4byte	.LVL33
 4061 0b26 E51C0000 		.4byte	0x1ce5
 4062 0b2a 380B0000 		.4byte	0xb38
 4063 0b2e 27       		.uleb128 0x27
 4064 0b2f 01       		.uleb128 0x1
 4065 0b30 50       		.byte	0x50
 4066 0b31 05       		.uleb128 0x5
 4067 0b32 0C       		.byte	0xc
 4068 0b33 F8FC0300 		.4byte	0x3fcf8
 4069 0b37 00       		.byte	0
 4070 0b38 29       		.uleb128 0x29
 4071 0b39 16000000 		.4byte	.LVL34
 4072 0b3d 411D0000 		.4byte	0x1d41
 4073 0b41 27       		.uleb128 0x27
 4074 0b42 01       		.uleb128 0x1
 4075 0b43 52       		.byte	0x52
 4076 0b44 02       		.uleb128 0x2
 4077 0b45 08       		.byte	0x8
 4078 0b46 78       		.byte	0x78
 4079 0b47 27       		.uleb128 0x27
 4080 0b48 01       		.uleb128 0x1
 4081 0b49 51       		.byte	0x51
 4082 0b4a 02       		.uleb128 0x2
 4083 0b4b 08       		.byte	0x8
 4084 0b4c A0       		.byte	0xa0
 4085 0b4d 27       		.uleb128 0x27
 4086 0b4e 01       		.uleb128 0x1
 4087 0b4f 50       		.byte	0x50
 4088 0b50 05       		.uleb128 0x5
 4089 0b51 03       		.byte	0x3
 4090 0b52 00000000 		.4byte	.LC0
 4091 0b56 00       		.byte	0
 4092 0b57 00       		.byte	0
 4093 0b58 2B       		.uleb128 0x2b
 4094 0b59 74050000 		.4byte	.LASF157
 4095 0b5d 01       		.byte	0x1
 4096 0b5e 2601     		.2byte	0x126
 4097 0b60 68000000 		.4byte	0x68
 4098 0b64 00000000 		.4byte	.LFB74
 4099 0b68 40000000 		.4byte	.LFE74-.LFB74
 4100 0b6c 01       		.uleb128 0x1
ARM GAS  C:\Users\mark6\AppData\Local\Temp\ccm1Ykfm.s 			page 87


 4101 0b6d 9C       		.byte	0x9c
 4102 0b6e 000C0000 		.4byte	0xc00
 4103 0b72 24       		.uleb128 0x24
 4104 0b73 AA060000 		.4byte	.LASF158
 4105 0b77 01       		.byte	0x1
 4106 0b78 2601     		.2byte	0x126
 4107 0b7a 000C0000 		.4byte	0xc00
 4108 0b7e DB010000 		.4byte	.LLST12
 4109 0b82 2C       		.uleb128 0x2c
 4110 0b83 6D060000 		.4byte	.LASF159
 4111 0b87 01       		.byte	0x1
 4112 0b88 2801     		.2byte	0x128
 4113 0b8a 68000000 		.4byte	0x68
 4114 0b8e 07020000 		.4byte	.LLST13
 4115 0b92 2D       		.uleb128 0x2d
 4116 0b93 6900     		.ascii	"i\000"
 4117 0b95 01       		.byte	0x1
 4118 0b96 2901     		.2byte	0x129
 4119 0b98 68000000 		.4byte	0x68
 4120 0b9c 26020000 		.4byte	.LLST14
 4121 0ba0 2D       		.uleb128 0x2d
 4122 0ba1 6A00     		.ascii	"j\000"
 4123 0ba3 01       		.byte	0x1
 4124 0ba4 2901     		.2byte	0x129
 4125 0ba6 68000000 		.4byte	0x68
 4126 0baa 45020000 		.4byte	.LLST15
 4127 0bae 2E       		.uleb128 0x2e
 4128 0baf 0E000000 		.4byte	.LBB2
 4129 0bb3 22000000 		.4byte	.LBE2-.LBB2
 4130 0bb7 F60B0000 		.4byte	0xbf6
 4131 0bbb 2C       		.uleb128 0x2c
 4132 0bbc 680B0000 		.4byte	.LASF160
 4133 0bc0 01       		.byte	0x1
 4134 0bc1 2B01     		.2byte	0x12b
 4135 0bc3 6F080000 		.4byte	0x86f
 4136 0bc7 64020000 		.4byte	.LLST16
 4137 0bcb 2C       		.uleb128 0x2c
 4138 0bcc F2030000 		.4byte	.LASF161
 4139 0bd0 01       		.byte	0x1
 4140 0bd1 2C01     		.2byte	0x12c
 4141 0bd3 68000000 		.4byte	0x68
 4142 0bd7 77020000 		.4byte	.LLST17
 4143 0bdb 2F       		.uleb128 0x2f
 4144 0bdc 1A000000 		.4byte	.LBB3
 4145 0be0 0C000000 		.4byte	.LBE3-.LBB3
 4146 0be4 2C       		.uleb128 0x2c
 4147 0be5 3B0B0000 		.4byte	.LASF162
 4148 0be9 01       		.byte	0x1
 4149 0bea 2E01     		.2byte	0x12e
 4150 0bec 68000000 		.4byte	0x68
 4151 0bf0 96020000 		.4byte	.LLST18
 4152 0bf4 00       		.byte	0
 4153 0bf5 00       		.byte	0
 4154 0bf6 28       		.uleb128 0x28
 4155 0bf7 08000000 		.4byte	.LVL36
 4156 0bfb 391D0000 		.4byte	0x1d39
 4157 0bff 00       		.byte	0
ARM GAS  C:\Users\mark6\AppData\Local\Temp\ccm1Ykfm.s 			page 88


 4158 0c00 06       		.uleb128 0x6
 4159 0c01 04       		.byte	0x4
 4160 0c02 75080000 		.4byte	0x875
 4161 0c06 2A       		.uleb128 0x2a
 4162 0c07 80080000 		.4byte	.LASF164
 4163 0c0b 01       		.byte	0x1
 4164 0c0c 3A01     		.2byte	0x13a
 4165 0c0e 00000000 		.4byte	.LFB75
 4166 0c12 44000000 		.4byte	.LFE75-.LFB75
 4167 0c16 01       		.uleb128 0x1
 4168 0c17 9C       		.byte	0x9c
 4169 0c18 4E0C0000 		.4byte	0xc4e
 4170 0c1c 2D       		.uleb128 0x2d
 4171 0c1d 6900     		.ascii	"i\000"
 4172 0c1f 01       		.byte	0x1
 4173 0c20 3D01     		.2byte	0x13d
 4174 0c22 68000000 		.4byte	0x68
 4175 0c26 A9020000 		.4byte	.LLST19
 4176 0c2a 2F       		.uleb128 0x2f
 4177 0c2b 0A000000 		.4byte	.LBB4
 4178 0c2f 1E000000 		.4byte	.LBE4-.LBB4
 4179 0c33 2C       		.uleb128 0x2c
 4180 0c34 6D060000 		.4byte	.LASF159
 4181 0c38 01       		.byte	0x1
 4182 0c39 3F01     		.2byte	0x13f
 4183 0c3b 68000000 		.4byte	0x68
 4184 0c3f C8020000 		.4byte	.LLST20
 4185 0c43 28       		.uleb128 0x28
 4186 0c44 16000000 		.4byte	.LVL48
 4187 0c48 580B0000 		.4byte	0xb58
 4188 0c4c 00       		.byte	0
 4189 0c4d 00       		.byte	0
 4190 0c4e 2A       		.uleb128 0x2a
 4191 0c4f 6D0A0000 		.4byte	.LASF165
 4192 0c53 01       		.byte	0x1
 4193 0c54 7801     		.2byte	0x178
 4194 0c56 00000000 		.4byte	.LFB78
 4195 0c5a 78010000 		.4byte	.LFE78-.LFB78
 4196 0c5e 01       		.uleb128 0x1
 4197 0c5f 9C       		.byte	0x9c
 4198 0c60 B00D0000 		.4byte	0xdb0
 4199 0c64 25       		.uleb128 0x25
 4200 0c65 39080000 		.4byte	.LASF150
 4201 0c69 01       		.byte	0x1
 4202 0c6a 7C01     		.2byte	0x17c
 4203 0c6c 98010000 		.4byte	0x198
 4204 0c70 02       		.uleb128 0x2
 4205 0c71 91       		.byte	0x91
 4206 0c72 70       		.sleb128 -16
 4207 0c73 2D       		.uleb128 0x2d
 4208 0c74 6900     		.ascii	"i\000"
 4209 0c76 01       		.byte	0x1
 4210 0c77 9201     		.2byte	0x192
 4211 0c79 68000000 		.4byte	0x68
 4212 0c7d DB020000 		.4byte	.LLST21
 4213 0c81 2E       		.uleb128 0x2e
 4214 0c82 D6000000 		.4byte	.LBB5
ARM GAS  C:\Users\mark6\AppData\Local\Temp\ccm1Ykfm.s 			page 89


 4215 0c86 6C000000 		.4byte	.LBE5-.LBB5
 4216 0c8a DC0C0000 		.4byte	0xcdc
 4217 0c8e 25       		.uleb128 0x25
 4218 0c8f 39080000 		.4byte	.LASF150
 4219 0c93 01       		.byte	0x1
 4220 0c94 9401     		.2byte	0x194
 4221 0c96 98010000 		.4byte	0x198
 4222 0c9a 02       		.uleb128 0x2
 4223 0c9b 91       		.byte	0x91
 4224 0c9c 68       		.sleb128 -24
 4225 0c9d 28       		.uleb128 0x28
 4226 0c9e F6000000 		.4byte	.LVL64
 4227 0ca2 F71C0000 		.4byte	0x1cf7
 4228 0ca6 28       		.uleb128 0x28
 4229 0ca7 08010000 		.4byte	.LVL65
 4230 0cab F71C0000 		.4byte	0x1cf7
 4231 0caf 28       		.uleb128 0x28
 4232 0cb0 1A010000 		.4byte	.LVL66
 4233 0cb4 F71C0000 		.4byte	0x1cf7
 4234 0cb8 28       		.uleb128 0x28
 4235 0cb9 2C010000 		.4byte	.LVL67
 4236 0cbd F71C0000 		.4byte	0x1cf7
 4237 0cc1 29       		.uleb128 0x29
 4238 0cc2 42010000 		.4byte	.LVL68
 4239 0cc6 181D0000 		.4byte	0x1d18
 4240 0cca 27       		.uleb128 0x27
 4241 0ccb 01       		.uleb128 0x1
 4242 0ccc 53       		.byte	0x53
 4243 0ccd 01       		.uleb128 0x1
 4244 0cce 31       		.byte	0x31
 4245 0ccf 27       		.uleb128 0x27
 4246 0cd0 01       		.uleb128 0x1
 4247 0cd1 52       		.byte	0x52
 4248 0cd2 01       		.uleb128 0x1
 4249 0cd3 3E       		.byte	0x3e
 4250 0cd4 27       		.uleb128 0x27
 4251 0cd5 01       		.uleb128 0x1
 4252 0cd6 51       		.byte	0x51
 4253 0cd7 02       		.uleb128 0x2
 4254 0cd8 7D       		.byte	0x7d
 4255 0cd9 00       		.sleb128 0
 4256 0cda 00       		.byte	0
 4257 0cdb 00       		.byte	0
 4258 0cdc 28       		.uleb128 0x28
 4259 0cdd 08000000 		.4byte	.LVL51
 4260 0ce1 391D0000 		.4byte	0x1d39
 4261 0ce5 26       		.uleb128 0x26
 4262 0ce6 10000000 		.4byte	.LVL52
 4263 0cea E51C0000 		.4byte	0x1ce5
 4264 0cee FC0C0000 		.4byte	0xcfc
 4265 0cf2 27       		.uleb128 0x27
 4266 0cf3 01       		.uleb128 0x1
 4267 0cf4 50       		.byte	0x50
 4268 0cf5 05       		.uleb128 0x5
 4269 0cf6 0C       		.byte	0xc
 4270 0cf7 FFFFFF00 		.4byte	0xffffff
 4271 0cfb 00       		.byte	0
ARM GAS  C:\Users\mark6\AppData\Local\Temp\ccm1Ykfm.s 			page 90


 4272 0cfc 28       		.uleb128 0x28
 4273 0cfd 30000000 		.4byte	.LVL53
 4274 0d01 F71C0000 		.4byte	0x1cf7
 4275 0d05 28       		.uleb128 0x28
 4276 0d06 42000000 		.4byte	.LVL54
 4277 0d0a F71C0000 		.4byte	0x1cf7
 4278 0d0e 28       		.uleb128 0x28
 4279 0d0f 54000000 		.4byte	.LVL55
 4280 0d13 F71C0000 		.4byte	0x1cf7
 4281 0d17 28       		.uleb128 0x28
 4282 0d18 66000000 		.4byte	.LVL56
 4283 0d1c F71C0000 		.4byte	0x1cf7
 4284 0d20 26       		.uleb128 0x26
 4285 0d21 72000000 		.4byte	.LVL57
 4286 0d25 181D0000 		.4byte	0x1d18
 4287 0d29 470D0000 		.4byte	0xd47
 4288 0d2d 27       		.uleb128 0x27
 4289 0d2e 01       		.uleb128 0x1
 4290 0d2f 53       		.byte	0x53
 4291 0d30 01       		.uleb128 0x1
 4292 0d31 31       		.byte	0x31
 4293 0d32 27       		.uleb128 0x27
 4294 0d33 01       		.uleb128 0x1
 4295 0d34 52       		.byte	0x52
 4296 0d35 01       		.uleb128 0x1
 4297 0d36 3E       		.byte	0x3e
 4298 0d37 27       		.uleb128 0x27
 4299 0d38 01       		.uleb128 0x1
 4300 0d39 51       		.byte	0x51
 4301 0d3a 02       		.uleb128 0x2
 4302 0d3b 91       		.byte	0x91
 4303 0d3c 70       		.sleb128 -16
 4304 0d3d 27       		.uleb128 0x27
 4305 0d3e 01       		.uleb128 0x1
 4306 0d3f 50       		.byte	0x50
 4307 0d40 05       		.uleb128 0x5
 4308 0d41 03       		.byte	0x3
 4309 0d42 24000000 		.4byte	.LC1
 4310 0d46 00       		.byte	0
 4311 0d47 28       		.uleb128 0x28
 4312 0d48 90000000 		.4byte	.LVL58
 4313 0d4c F71C0000 		.4byte	0x1cf7
 4314 0d50 28       		.uleb128 0x28
 4315 0d51 A2000000 		.4byte	.LVL59
 4316 0d55 F71C0000 		.4byte	0x1cf7
 4317 0d59 28       		.uleb128 0x28
 4318 0d5a B4000000 		.4byte	.LVL60
 4319 0d5e F71C0000 		.4byte	0x1cf7
 4320 0d62 28       		.uleb128 0x28
 4321 0d63 C6000000 		.4byte	.LVL61
 4322 0d67 F71C0000 		.4byte	0x1cf7
 4323 0d6b 26       		.uleb128 0x26
 4324 0d6c D2000000 		.4byte	.LVL62
 4325 0d70 181D0000 		.4byte	0x1d18
 4326 0d74 920D0000 		.4byte	0xd92
 4327 0d78 27       		.uleb128 0x27
 4328 0d79 01       		.uleb128 0x1
ARM GAS  C:\Users\mark6\AppData\Local\Temp\ccm1Ykfm.s 			page 91


 4329 0d7a 53       		.byte	0x53
 4330 0d7b 01       		.uleb128 0x1
 4331 0d7c 31       		.byte	0x31
 4332 0d7d 27       		.uleb128 0x27
 4333 0d7e 01       		.uleb128 0x1
 4334 0d7f 52       		.byte	0x52
 4335 0d80 01       		.uleb128 0x1
 4336 0d81 3E       		.byte	0x3e
 4337 0d82 27       		.uleb128 0x27
 4338 0d83 01       		.uleb128 0x1
 4339 0d84 51       		.byte	0x51
 4340 0d85 02       		.uleb128 0x2
 4341 0d86 91       		.byte	0x91
 4342 0d87 70       		.sleb128 -16
 4343 0d88 27       		.uleb128 0x27
 4344 0d89 01       		.uleb128 0x1
 4345 0d8a 50       		.byte	0x50
 4346 0d8b 05       		.uleb128 0x5
 4347 0d8c 03       		.byte	0x3
 4348 0d8d 38000000 		.4byte	.LC2
 4349 0d91 00       		.byte	0
 4350 0d92 29       		.uleb128 0x29
 4351 0d93 56010000 		.4byte	.LVL70
 4352 0d97 030A0000 		.4byte	0xa03
 4353 0d9b 27       		.uleb128 0x27
 4354 0d9c 01       		.uleb128 0x1
 4355 0d9d 52       		.byte	0x52
 4356 0d9e 05       		.uleb128 0x5
 4357 0d9f 0C       		.byte	0xc
 4358 0da0 E370F600 		.4byte	0xf670e3
 4359 0da4 27       		.uleb128 0x27
 4360 0da5 01       		.uleb128 0x1
 4361 0da6 51       		.byte	0x51
 4362 0da7 01       		.uleb128 0x1
 4363 0da8 30       		.byte	0x30
 4364 0da9 27       		.uleb128 0x27
 4365 0daa 01       		.uleb128 0x1
 4366 0dab 50       		.byte	0x50
 4367 0dac 01       		.uleb128 0x1
 4368 0dad 30       		.byte	0x30
 4369 0dae 00       		.byte	0
 4370 0daf 00       		.byte	0
 4371 0db0 2A       		.uleb128 0x2a
 4372 0db1 47080000 		.4byte	.LASF166
 4373 0db5 01       		.byte	0x1
 4374 0db6 A401     		.2byte	0x1a4
 4375 0db8 00000000 		.4byte	.LFB79
 4376 0dbc 74000000 		.4byte	.LFE79-.LFB79
 4377 0dc0 01       		.uleb128 0x1
 4378 0dc1 9C       		.byte	0x9c
 4379 0dc2 320E0000 		.4byte	0xe32
 4380 0dc6 2D       		.uleb128 0x2d
 4381 0dc7 6900     		.ascii	"i\000"
 4382 0dc9 01       		.byte	0x1
 4383 0dca A501     		.2byte	0x1a5
 4384 0dcc 68000000 		.4byte	0x68
 4385 0dd0 FA020000 		.4byte	.LLST22
ARM GAS  C:\Users\mark6\AppData\Local\Temp\ccm1Ykfm.s 			page 92


 4386 0dd4 30       		.uleb128 0x30
 4387 0dd5 CA040000 		.4byte	.LASF167
 4388 0dd9 01       		.byte	0x1
 4389 0dda A601     		.2byte	0x1a6
 4390 0ddc 68000000 		.4byte	0x68
 4391 0de0 3C       		.byte	0x3c
 4392 0de1 30       		.uleb128 0x30
 4393 0de2 310B0000 		.4byte	.LASF168
 4394 0de6 01       		.byte	0x1
 4395 0de7 A701     		.2byte	0x1a7
 4396 0de9 68000000 		.4byte	0x68
 4397 0ded 4B       		.byte	0x4b
 4398 0dee 30       		.uleb128 0x30
 4399 0def CB0B0000 		.4byte	.LASF169
 4400 0df3 01       		.byte	0x1
 4401 0df4 A801     		.2byte	0x1a8
 4402 0df6 68000000 		.4byte	0x68
 4403 0dfa 1E       		.byte	0x1e
 4404 0dfb 2D       		.uleb128 0x2d
 4405 0dfc 7900     		.ascii	"y\000"
 4406 0dfe 01       		.byte	0x1
 4407 0dff A901     		.2byte	0x1a9
 4408 0e01 68000000 		.4byte	0x68
 4409 0e05 19030000 		.4byte	.LLST23
 4410 0e09 25       		.uleb128 0x25
 4411 0e0a D4090000 		.4byte	.LASF170
 4412 0e0e 01       		.byte	0x1
 4413 0e0f AA01     		.2byte	0x1aa
 4414 0e11 98010000 		.4byte	0x198
 4415 0e15 02       		.uleb128 0x2
 4416 0e16 91       		.byte	0x91
 4417 0e17 68       		.sleb128 -24
 4418 0e18 2F       		.uleb128 0x2f
 4419 0e19 2C000000 		.4byte	.LBB6
 4420 0e1d 38000000 		.4byte	.LBE6-.LBB6
 4421 0e21 25       		.uleb128 0x25
 4422 0e22 8F0A0000 		.4byte	.LASF171
 4423 0e26 01       		.byte	0x1
 4424 0e27 AD01     		.2byte	0x1ad
 4425 0e29 98010000 		.4byte	0x198
 4426 0e2d 02       		.uleb128 0x2
 4427 0e2e 91       		.byte	0x91
 4428 0e2f 60       		.sleb128 -32
 4429 0e30 00       		.byte	0
 4430 0e31 00       		.byte	0
 4431 0e32 2A       		.uleb128 0x2a
 4432 0e33 25060000 		.4byte	.LASF172
 4433 0e37 01       		.byte	0x1
 4434 0e38 B201     		.2byte	0x1b2
 4435 0e3a 00000000 		.4byte	.LFB80
 4436 0e3e 3C010000 		.4byte	.LFE80-.LFB80
 4437 0e42 01       		.uleb128 0x1
 4438 0e43 9C       		.byte	0x9c
 4439 0e44 F10E0000 		.4byte	0xef1
 4440 0e48 2D       		.uleb128 0x2d
 4441 0e49 7800     		.ascii	"x\000"
 4442 0e4b 01       		.byte	0x1
ARM GAS  C:\Users\mark6\AppData\Local\Temp\ccm1Ykfm.s 			page 93


 4443 0e4c B501     		.2byte	0x1b5
 4444 0e4e 68000000 		.4byte	0x68
 4445 0e52 50030000 		.4byte	.LLST24
 4446 0e56 2D       		.uleb128 0x2d
 4447 0e57 7900     		.ascii	"y\000"
 4448 0e59 01       		.byte	0x1
 4449 0e5a B601     		.2byte	0x1b6
 4450 0e5c 68000000 		.4byte	0x68
 4451 0e60 85030000 		.4byte	.LLST25
 4452 0e64 2D       		.uleb128 0x2d
 4453 0e65 6900     		.ascii	"i\000"
 4454 0e67 01       		.byte	0x1
 4455 0e68 B701     		.2byte	0x1b7
 4456 0e6a F2000000 		.4byte	0xf2
 4457 0e6e A4030000 		.4byte	.LLST26
 4458 0e72 30       		.uleb128 0x30
 4459 0e73 97060000 		.4byte	.LASF173
 4460 0e77 01       		.byte	0x1
 4461 0e78 B801     		.2byte	0x1b8
 4462 0e7a 68000000 		.4byte	0x68
 4463 0e7e 14       		.byte	0x14
 4464 0e7f 25       		.uleb128 0x25
 4465 0e80 D4090000 		.4byte	.LASF170
 4466 0e84 01       		.byte	0x1
 4467 0e85 B901     		.2byte	0x1b9
 4468 0e87 98010000 		.4byte	0x198
 4469 0e8b 02       		.uleb128 0x2
 4470 0e8c 91       		.byte	0x91
 4471 0e8d 68       		.sleb128 -24
 4472 0e8e 25       		.uleb128 0x25
 4473 0e8f A0070000 		.4byte	.LASF174
 4474 0e93 01       		.byte	0x1
 4475 0e94 BB01     		.2byte	0x1bb
 4476 0e96 98010000 		.4byte	0x198
 4477 0e9a 02       		.uleb128 0x2
 4478 0e9b 91       		.byte	0x91
 4479 0e9c 60       		.sleb128 -32
 4480 0e9d 2E       		.uleb128 0x2e
 4481 0e9e 4C000000 		.4byte	.LBB7
 4482 0ea2 3E000000 		.4byte	.LBE7-.LBB7
 4483 0ea6 BA0E0000 		.4byte	0xeba
 4484 0eaa 25       		.uleb128 0x25
 4485 0eab 8F0A0000 		.4byte	.LASF171
 4486 0eaf 01       		.byte	0x1
 4487 0eb0 C101     		.2byte	0x1c1
 4488 0eb2 98010000 		.4byte	0x198
 4489 0eb6 02       		.uleb128 0x2
 4490 0eb7 91       		.byte	0x91
 4491 0eb8 58       		.sleb128 -40
 4492 0eb9 00       		.byte	0
 4493 0eba 2E       		.uleb128 0x2e
 4494 0ebb 90000000 		.4byte	.LBB8
 4495 0ebf 3E000000 		.4byte	.LBE8-.LBB8
 4496 0ec3 D70E0000 		.4byte	0xed7
 4497 0ec7 25       		.uleb128 0x25
 4498 0ec8 8F0A0000 		.4byte	.LASF171
 4499 0ecc 01       		.byte	0x1
ARM GAS  C:\Users\mark6\AppData\Local\Temp\ccm1Ykfm.s 			page 94


 4500 0ecd C501     		.2byte	0x1c5
 4501 0ecf 98010000 		.4byte	0x198
 4502 0ed3 02       		.uleb128 0x2
 4503 0ed4 91       		.byte	0x91
 4504 0ed5 58       		.sleb128 -40
 4505 0ed6 00       		.byte	0
 4506 0ed7 2F       		.uleb128 0x2f
 4507 0ed8 D0000000 		.4byte	.LBB9
 4508 0edc 40000000 		.4byte	.LBE9-.LBB9
 4509 0ee0 25       		.uleb128 0x25
 4510 0ee1 8F0A0000 		.4byte	.LASF171
 4511 0ee5 01       		.byte	0x1
 4512 0ee6 CA01     		.2byte	0x1ca
 4513 0ee8 98010000 		.4byte	0x198
 4514 0eec 02       		.uleb128 0x2
 4515 0eed 91       		.byte	0x91
 4516 0eee 58       		.sleb128 -40
 4517 0eef 00       		.byte	0
 4518 0ef0 00       		.byte	0
 4519 0ef1 2B       		.uleb128 0x2b
 4520 0ef2 69080000 		.4byte	.LASF175
 4521 0ef6 01       		.byte	0x1
 4522 0ef7 D701     		.2byte	0x1d7
 4523 0ef9 68000000 		.4byte	0x68
 4524 0efd 00000000 		.4byte	.LFB81
 4525 0f01 0C000000 		.4byte	.LFE81-.LFB81
 4526 0f05 01       		.uleb128 0x1
 4527 0f06 9C       		.byte	0x9c
 4528 0f07 2A0F0000 		.4byte	0xf2a
 4529 0f0b 31       		.uleb128 0x31
 4530 0f0c 6E756D00 		.ascii	"num\000"
 4531 0f10 01       		.byte	0x1
 4532 0f11 D701     		.2byte	0x1d7
 4533 0f13 68000000 		.4byte	0x68
 4534 0f17 C3030000 		.4byte	.LLST27
 4535 0f1b 32       		.uleb128 0x32
 4536 0f1c 61070000 		.4byte	.LASF176
 4537 0f20 01       		.byte	0x1
 4538 0f21 D701     		.2byte	0x1d7
 4539 0f23 68000000 		.4byte	0x68
 4540 0f27 01       		.uleb128 0x1
 4541 0f28 51       		.byte	0x51
 4542 0f29 00       		.byte	0
 4543 0f2a 2A       		.uleb128 0x2a
 4544 0f2b 23080000 		.4byte	.LASF177
 4545 0f2f 01       		.byte	0x1
 4546 0f30 4701     		.2byte	0x147
 4547 0f32 00000000 		.4byte	.LFB76
 4548 0f36 D4000000 		.4byte	.LFE76-.LFB76
 4549 0f3a 01       		.uleb128 0x1
 4550 0f3b 9C       		.byte	0x9c
 4551 0f3c 43100000 		.4byte	0x1043
 4552 0f40 26       		.uleb128 0x26
 4553 0f41 12000000 		.4byte	.LVL88
 4554 0f45 E51C0000 		.4byte	0x1ce5
 4555 0f49 570F0000 		.4byte	0xf57
 4556 0f4d 27       		.uleb128 0x27
ARM GAS  C:\Users\mark6\AppData\Local\Temp\ccm1Ykfm.s 			page 95


 4557 0f4e 01       		.uleb128 0x1
 4558 0f4f 50       		.byte	0x50
 4559 0f50 05       		.uleb128 0x5
 4560 0f51 0C       		.byte	0xc
 4561 0f52 D3D3D300 		.4byte	0xd3d3d3
 4562 0f56 00       		.byte	0
 4563 0f57 26       		.uleb128 0x26
 4564 0f58 24000000 		.4byte	.LVL89
 4565 0f5c 181D0000 		.4byte	0x1d18
 4566 0f60 7B0F0000 		.4byte	0xf7b
 4567 0f64 27       		.uleb128 0x27
 4568 0f65 01       		.uleb128 0x1
 4569 0f66 53       		.byte	0x53
 4570 0f67 01       		.uleb128 0x1
 4571 0f68 31       		.byte	0x31
 4572 0f69 27       		.uleb128 0x27
 4573 0f6a 01       		.uleb128 0x1
 4574 0f6b 52       		.byte	0x52
 4575 0f6c 01       		.uleb128 0x1
 4576 0f6d 3E       		.byte	0x3e
 4577 0f6e 27       		.uleb128 0x27
 4578 0f6f 01       		.uleb128 0x1
 4579 0f70 51       		.byte	0x51
 4580 0f71 02       		.uleb128 0x2
 4581 0f72 74       		.byte	0x74
 4582 0f73 00       		.sleb128 0
 4583 0f74 27       		.uleb128 0x27
 4584 0f75 01       		.uleb128 0x1
 4585 0f76 50       		.byte	0x50
 4586 0f77 02       		.uleb128 0x2
 4587 0f78 78       		.byte	0x78
 4588 0f79 00       		.sleb128 0
 4589 0f7a 00       		.byte	0
 4590 0f7b 28       		.uleb128 0x28
 4591 0f7c 42000000 		.4byte	.LVL90
 4592 0f80 F10E0000 		.4byte	0xef1
 4593 0f84 26       		.uleb128 0x26
 4594 0f85 54000000 		.4byte	.LVL91
 4595 0f89 181D0000 		.4byte	0x1d18
 4596 0f8d A20F0000 		.4byte	0xfa2
 4597 0f91 27       		.uleb128 0x27
 4598 0f92 01       		.uleb128 0x1
 4599 0f93 53       		.byte	0x53
 4600 0f94 01       		.uleb128 0x1
 4601 0f95 31       		.byte	0x31
 4602 0f96 27       		.uleb128 0x27
 4603 0f97 01       		.uleb128 0x1
 4604 0f98 52       		.byte	0x52
 4605 0f99 01       		.uleb128 0x1
 4606 0f9a 3E       		.byte	0x3e
 4607 0f9b 27       		.uleb128 0x27
 4608 0f9c 01       		.uleb128 0x1
 4609 0f9d 51       		.byte	0x51
 4610 0f9e 02       		.uleb128 0x2
 4611 0f9f 74       		.byte	0x74
 4612 0fa0 00       		.sleb128 0
 4613 0fa1 00       		.byte	0
ARM GAS  C:\Users\mark6\AppData\Local\Temp\ccm1Ykfm.s 			page 96


 4614 0fa2 26       		.uleb128 0x26
 4615 0fa3 62000000 		.4byte	.LVL92
 4616 0fa7 181D0000 		.4byte	0x1d18
 4617 0fab C60F0000 		.4byte	0xfc6
 4618 0faf 27       		.uleb128 0x27
 4619 0fb0 01       		.uleb128 0x1
 4620 0fb1 53       		.byte	0x53
 4621 0fb2 01       		.uleb128 0x1
 4622 0fb3 31       		.byte	0x31
 4623 0fb4 27       		.uleb128 0x27
 4624 0fb5 01       		.uleb128 0x1
 4625 0fb6 52       		.byte	0x52
 4626 0fb7 01       		.uleb128 0x1
 4627 0fb8 3E       		.byte	0x3e
 4628 0fb9 27       		.uleb128 0x27
 4629 0fba 01       		.uleb128 0x1
 4630 0fbb 51       		.byte	0x51
 4631 0fbc 02       		.uleb128 0x2
 4632 0fbd 74       		.byte	0x74
 4633 0fbe 00       		.sleb128 0
 4634 0fbf 27       		.uleb128 0x27
 4635 0fc0 01       		.uleb128 0x1
 4636 0fc1 50       		.byte	0x50
 4637 0fc2 02       		.uleb128 0x2
 4638 0fc3 78       		.byte	0x78
 4639 0fc4 00       		.sleb128 0
 4640 0fc5 00       		.byte	0
 4641 0fc6 28       		.uleb128 0x28
 4642 0fc7 76000000 		.4byte	.LVL93
 4643 0fcb F10E0000 		.4byte	0xef1
 4644 0fcf 26       		.uleb128 0x26
 4645 0fd0 88000000 		.4byte	.LVL94
 4646 0fd4 181D0000 		.4byte	0x1d18
 4647 0fd8 ED0F0000 		.4byte	0xfed
 4648 0fdc 27       		.uleb128 0x27
 4649 0fdd 01       		.uleb128 0x1
 4650 0fde 53       		.byte	0x53
 4651 0fdf 01       		.uleb128 0x1
 4652 0fe0 31       		.byte	0x31
 4653 0fe1 27       		.uleb128 0x27
 4654 0fe2 01       		.uleb128 0x1
 4655 0fe3 52       		.byte	0x52
 4656 0fe4 01       		.uleb128 0x1
 4657 0fe5 3E       		.byte	0x3e
 4658 0fe6 27       		.uleb128 0x27
 4659 0fe7 01       		.uleb128 0x1
 4660 0fe8 51       		.byte	0x51
 4661 0fe9 02       		.uleb128 0x2
 4662 0fea 74       		.byte	0x74
 4663 0feb 00       		.sleb128 0
 4664 0fec 00       		.byte	0
 4665 0fed 26       		.uleb128 0x26
 4666 0fee 90000000 		.4byte	.LVL95
 4667 0ff2 E51C0000 		.4byte	0x1ce5
 4668 0ff6 04100000 		.4byte	0x1004
 4669 0ffa 27       		.uleb128 0x27
 4670 0ffb 01       		.uleb128 0x1
ARM GAS  C:\Users\mark6\AppData\Local\Temp\ccm1Ykfm.s 			page 97


 4671 0ffc 50       		.byte	0x50
 4672 0ffd 05       		.uleb128 0x5
 4673 0ffe 0C       		.byte	0xc
 4674 0fff FFFFFF00 		.4byte	0xffffff
 4675 1003 00       		.byte	0
 4676 1004 26       		.uleb128 0x26
 4677 1005 9E000000 		.4byte	.LVL96
 4678 1009 181D0000 		.4byte	0x1d18
 4679 100d 28100000 		.4byte	0x1028
 4680 1011 27       		.uleb128 0x27
 4681 1012 01       		.uleb128 0x1
 4682 1013 53       		.byte	0x53
 4683 1014 01       		.uleb128 0x1
 4684 1015 31       		.byte	0x31
 4685 1016 27       		.uleb128 0x27
 4686 1017 01       		.uleb128 0x1
 4687 1018 52       		.byte	0x52
 4688 1019 01       		.uleb128 0x1
 4689 101a 3E       		.byte	0x3e
 4690 101b 27       		.uleb128 0x27
 4691 101c 01       		.uleb128 0x1
 4692 101d 51       		.byte	0x51
 4693 101e 02       		.uleb128 0x2
 4694 101f 74       		.byte	0x74
 4695 1020 00       		.sleb128 0
 4696 1021 27       		.uleb128 0x27
 4697 1022 01       		.uleb128 0x1
 4698 1023 50       		.byte	0x50
 4699 1024 02       		.uleb128 0x2
 4700 1025 78       		.byte	0x78
 4701 1026 00       		.sleb128 0
 4702 1027 00       		.byte	0
 4703 1028 29       		.uleb128 0x29
 4704 1029 B4000000 		.4byte	.LVL97
 4705 102d 181D0000 		.4byte	0x1d18
 4706 1031 27       		.uleb128 0x27
 4707 1032 01       		.uleb128 0x1
 4708 1033 53       		.byte	0x53
 4709 1034 01       		.uleb128 0x1
 4710 1035 31       		.byte	0x31
 4711 1036 27       		.uleb128 0x27
 4712 1037 01       		.uleb128 0x1
 4713 1038 52       		.byte	0x52
 4714 1039 01       		.uleb128 0x1
 4715 103a 3E       		.byte	0x3e
 4716 103b 27       		.uleb128 0x27
 4717 103c 01       		.uleb128 0x1
 4718 103d 51       		.byte	0x51
 4719 103e 02       		.uleb128 0x2
 4720 103f 74       		.byte	0x74
 4721 1040 00       		.sleb128 0
 4722 1041 00       		.byte	0
 4723 1042 00       		.byte	0
 4724 1043 2A       		.uleb128 0x2a
 4725 1044 4E060000 		.4byte	.LASF178
 4726 1048 01       		.byte	0x1
 4727 1049 5801     		.2byte	0x158
ARM GAS  C:\Users\mark6\AppData\Local\Temp\ccm1Ykfm.s 			page 98


 4728 104b 00000000 		.4byte	.LFB77
 4729 104f 04010000 		.4byte	.LFE77-.LFB77
 4730 1053 01       		.uleb128 0x1
 4731 1054 9C       		.byte	0x9c
 4732 1055 CE110000 		.4byte	0x11ce
 4733 1059 2E       		.uleb128 0x2e
 4734 105a 26000000 		.4byte	.LBB10
 4735 105e BE000000 		.4byte	.LBE10-.LBB10
 4736 1062 95110000 		.4byte	0x1195
 4737 1066 25       		.uleb128 0x25
 4738 1067 39080000 		.4byte	.LASF150
 4739 106b 01       		.byte	0x1
 4740 106c 6701     		.2byte	0x167
 4741 106e 98010000 		.4byte	0x198
 4742 1072 02       		.uleb128 0x2
 4743 1073 91       		.byte	0x91
 4744 1074 70       		.sleb128 -16
 4745 1075 26       		.uleb128 0x26
 4746 1076 2E000000 		.4byte	.LVL101
 4747 107a E51C0000 		.4byte	0x1ce5
 4748 107e 8C100000 		.4byte	0x108c
 4749 1082 27       		.uleb128 0x27
 4750 1083 01       		.uleb128 0x1
 4751 1084 50       		.byte	0x50
 4752 1085 05       		.uleb128 0x5
 4753 1086 0C       		.byte	0xc
 4754 1087 FFFFFF00 		.4byte	0xffffff
 4755 108b 00       		.byte	0
 4756 108c 26       		.uleb128 0x26
 4757 108d 38000000 		.4byte	.LVL102
 4758 1091 5D1D0000 		.4byte	0x1d5d
 4759 1095 AA100000 		.4byte	0x10aa
 4760 1099 27       		.uleb128 0x27
 4761 109a 01       		.uleb128 0x1
 4762 109b 52       		.byte	0x52
 4763 109c 01       		.uleb128 0x1
 4764 109d 3A       		.byte	0x3a
 4765 109e 27       		.uleb128 0x27
 4766 109f 01       		.uleb128 0x1
 4767 10a0 51       		.byte	0x51
 4768 10a1 02       		.uleb128 0x2
 4769 10a2 08       		.byte	0x8
 4770 10a3 78       		.byte	0x78
 4771 10a4 27       		.uleb128 0x27
 4772 10a5 01       		.uleb128 0x1
 4773 10a6 50       		.byte	0x50
 4774 10a7 01       		.uleb128 0x1
 4775 10a8 44       		.byte	0x44
 4776 10a9 00       		.byte	0
 4777 10aa 26       		.uleb128 0x26
 4778 10ab 40000000 		.4byte	.LVL103
 4779 10af E51C0000 		.4byte	0x1ce5
 4780 10b3 BF100000 		.4byte	0x10bf
 4781 10b7 27       		.uleb128 0x27
 4782 10b8 01       		.uleb128 0x1
 4783 10b9 50       		.byte	0x50
 4784 10ba 03       		.uleb128 0x3
ARM GAS  C:\Users\mark6\AppData\Local\Temp\ccm1Ykfm.s 			page 99


 4785 10bb 0A       		.byte	0xa
 4786 10bc 00FF     		.2byte	0xff00
 4787 10be 00       		.byte	0
 4788 10bf 26       		.uleb128 0x26
 4789 10c0 4A000000 		.4byte	.LVL104
 4790 10c4 5D1D0000 		.4byte	0x1d5d
 4791 10c8 DD100000 		.4byte	0x10dd
 4792 10cc 27       		.uleb128 0x27
 4793 10cd 01       		.uleb128 0x1
 4794 10ce 52       		.byte	0x52
 4795 10cf 01       		.uleb128 0x1
 4796 10d0 35       		.byte	0x35
 4797 10d1 27       		.uleb128 0x27
 4798 10d2 01       		.uleb128 0x1
 4799 10d3 51       		.byte	0x51
 4800 10d4 02       		.uleb128 0x2
 4801 10d5 08       		.byte	0x8
 4802 10d6 78       		.byte	0x78
 4803 10d7 27       		.uleb128 0x27
 4804 10d8 01       		.uleb128 0x1
 4805 10d9 50       		.byte	0x50
 4806 10da 01       		.uleb128 0x1
 4807 10db 44       		.byte	0x44
 4808 10dc 00       		.byte	0
 4809 10dd 26       		.uleb128 0x26
 4810 10de 52000000 		.4byte	.LVL105
 4811 10e2 E51C0000 		.4byte	0x1ce5
 4812 10e6 F4100000 		.4byte	0x10f4
 4813 10ea 27       		.uleb128 0x27
 4814 10eb 01       		.uleb128 0x1
 4815 10ec 50       		.byte	0x50
 4816 10ed 05       		.uleb128 0x5
 4817 10ee 0C       		.byte	0xc
 4818 10ef FFFFFF00 		.4byte	0xffffff
 4819 10f3 00       		.byte	0
 4820 10f4 26       		.uleb128 0x26
 4821 10f5 62000000 		.4byte	.LVL106
 4822 10f9 791D0000 		.4byte	0x1d79
 4823 10fd 1A110000 		.4byte	0x111a
 4824 1101 27       		.uleb128 0x27
 4825 1102 01       		.uleb128 0x1
 4826 1103 53       		.byte	0x53
 4827 1104 02       		.uleb128 0x2
 4828 1105 08       		.byte	0x8
 4829 1106 28       		.byte	0x28
 4830 1107 27       		.uleb128 0x27
 4831 1108 01       		.uleb128 0x1
 4832 1109 52       		.byte	0x52
 4833 110a 03       		.uleb128 0x3
 4834 110b 0A       		.byte	0xa
 4835 110c 1801     		.2byte	0x118
 4836 110e 27       		.uleb128 0x27
 4837 110f 01       		.uleb128 0x1
 4838 1110 51       		.byte	0x51
 4839 1111 01       		.uleb128 0x1
 4840 1112 33       		.byte	0x33
 4841 1113 27       		.uleb128 0x27
ARM GAS  C:\Users\mark6\AppData\Local\Temp\ccm1Ykfm.s 			page 100


 4842 1114 01       		.uleb128 0x1
 4843 1115 50       		.byte	0x50
 4844 1116 02       		.uleb128 0x2
 4845 1117 74       		.byte	0x74
 4846 1118 00       		.sleb128 0
 4847 1119 00       		.byte	0
 4848 111a 26       		.uleb128 0x26
 4849 111b 72000000 		.4byte	.LVL107
 4850 111f 791D0000 		.4byte	0x1d79
 4851 1123 40110000 		.4byte	0x1140
 4852 1127 27       		.uleb128 0x27
 4853 1128 01       		.uleb128 0x1
 4854 1129 53       		.byte	0x53
 4855 112a 02       		.uleb128 0x2
 4856 112b 08       		.byte	0x8
 4857 112c B4       		.byte	0xb4
 4858 112d 27       		.uleb128 0x27
 4859 112e 01       		.uleb128 0x1
 4860 112f 52       		.byte	0x52
 4861 1130 03       		.uleb128 0x3
 4862 1131 0A       		.byte	0xa
 4863 1132 1801     		.2byte	0x118
 4864 1134 27       		.uleb128 0x27
 4865 1135 01       		.uleb128 0x1
 4866 1136 51       		.byte	0x51
 4867 1137 01       		.uleb128 0x1
 4868 1138 33       		.byte	0x33
 4869 1139 27       		.uleb128 0x27
 4870 113a 01       		.uleb128 0x1
 4871 113b 50       		.byte	0x50
 4872 113c 02       		.uleb128 0x2
 4873 113d 74       		.byte	0x74
 4874 113e 0C       		.sleb128 12
 4875 113f 00       		.byte	0
 4876 1140 26       		.uleb128 0x26
 4877 1141 8C000000 		.4byte	.LVL108
 4878 1145 181D0000 		.4byte	0x1d18
 4879 1149 67110000 		.4byte	0x1167
 4880 114d 27       		.uleb128 0x27
 4881 114e 01       		.uleb128 0x1
 4882 114f 53       		.byte	0x53
 4883 1150 01       		.uleb128 0x1
 4884 1151 31       		.byte	0x31
 4885 1152 27       		.uleb128 0x27
 4886 1153 01       		.uleb128 0x1
 4887 1154 52       		.byte	0x52
 4888 1155 01       		.uleb128 0x1
 4889 1156 3E       		.byte	0x3e
 4890 1157 27       		.uleb128 0x27
 4891 1158 01       		.uleb128 0x1
 4892 1159 51       		.byte	0x51
 4893 115a 02       		.uleb128 0x2
 4894 115b 7D       		.byte	0x7d
 4895 115c 00       		.sleb128 0
 4896 115d 27       		.uleb128 0x27
 4897 115e 01       		.uleb128 0x1
 4898 115f 50       		.byte	0x50
ARM GAS  C:\Users\mark6\AppData\Local\Temp\ccm1Ykfm.s 			page 101


 4899 1160 05       		.uleb128 0x5
 4900 1161 03       		.byte	0x3
 4901 1162 80000000 		.4byte	.LC5
 4902 1166 00       		.byte	0
 4903 1167 28       		.uleb128 0x28
 4904 1168 AA000000 		.4byte	.LVL109
 4905 116c F71C0000 		.4byte	0x1cf7
 4906 1170 28       		.uleb128 0x28
 4907 1171 BC000000 		.4byte	.LVL110
 4908 1175 F71C0000 		.4byte	0x1cf7
 4909 1179 28       		.uleb128 0x28
 4910 117a CE000000 		.4byte	.LVL111
 4911 117e F71C0000 		.4byte	0x1cf7
 4912 1182 28       		.uleb128 0x28
 4913 1183 E0000000 		.4byte	.LVL112
 4914 1187 F71C0000 		.4byte	0x1cf7
 4915 118b 28       		.uleb128 0x28
 4916 118c E4000000 		.4byte	.LVL113
 4917 1190 2A0F0000 		.4byte	0xf2a
 4918 1194 00       		.byte	0
 4919 1195 28       		.uleb128 0x28
 4920 1196 0E000000 		.4byte	.LVL98
 4921 119a 060C0000 		.4byte	0xc06
 4922 119e 28       		.uleb128 0x28
 4923 119f 12000000 		.4byte	.LVL99
 4924 11a3 391D0000 		.4byte	0x1d39
 4925 11a7 29       		.uleb128 0x29
 4926 11a8 24000000 		.4byte	.LVL100
 4927 11ac 181D0000 		.4byte	0x1d18
 4928 11b0 27       		.uleb128 0x27
 4929 11b1 01       		.uleb128 0x1
 4930 11b2 53       		.byte	0x53
 4931 11b3 01       		.uleb128 0x1
 4932 11b4 31       		.byte	0x31
 4933 11b5 27       		.uleb128 0x27
 4934 11b6 01       		.uleb128 0x1
 4935 11b7 52       		.byte	0x52
 4936 11b8 01       		.uleb128 0x1
 4937 11b9 3E       		.byte	0x3e
 4938 11ba 27       		.uleb128 0x27
 4939 11bb 01       		.uleb128 0x1
 4940 11bc 51       		.byte	0x51
 4941 11bd 05       		.uleb128 0x5
 4942 11be 03       		.byte	0x3
 4943 11bf 08000000 		.4byte	dispenser_rects+8
 4944 11c3 27       		.uleb128 0x27
 4945 11c4 01       		.uleb128 0x1
 4946 11c5 50       		.byte	0x50
 4947 11c6 05       		.uleb128 0x5
 4948 11c7 03       		.byte	0x3
 4949 11c8 5C000000 		.4byte	.LC4
 4950 11cc 00       		.byte	0
 4951 11cd 00       		.byte	0
 4952 11ce 1E       		.uleb128 0x1e
 4953 11cf 45060000 		.4byte	.LASF179
 4954 11d3 01       		.byte	0x1
 4955 11d4 E3       		.byte	0xe3
ARM GAS  C:\Users\mark6\AppData\Local\Temp\ccm1Ykfm.s 			page 102


 4956 11d5 00000000 		.4byte	.LFB67
 4957 11d9 28000000 		.4byte	.LFE67-.LFB67
 4958 11dd 01       		.uleb128 0x1
 4959 11de 9C       		.byte	0x9c
 4960 11df 2D120000 		.4byte	0x122d
 4961 11e3 28       		.uleb128 0x28
 4962 11e4 06000000 		.4byte	.LVL114
 4963 11e8 9A1D0000 		.4byte	0x1d9a
 4964 11ec 26       		.uleb128 0x26
 4965 11ed 0C000000 		.4byte	.LVL115
 4966 11f1 A61D0000 		.4byte	0x1da6
 4967 11f5 FF110000 		.4byte	0x11ff
 4968 11f9 27       		.uleb128 0x27
 4969 11fa 01       		.uleb128 0x1
 4970 11fb 50       		.byte	0x50
 4971 11fc 01       		.uleb128 0x1
 4972 11fd 3E       		.byte	0x3e
 4973 11fe 00       		.byte	0
 4974 11ff 28       		.uleb128 0x28
 4975 1200 10000000 		.4byte	.LVL116
 4976 1204 320E0000 		.4byte	0xe32
 4977 1208 28       		.uleb128 0x28
 4978 1209 14000000 		.4byte	.LVL117
 4979 120d B00D0000 		.4byte	0xdb0
 4980 1211 28       		.uleb128 0x28
 4981 1212 18000000 		.4byte	.LVL118
 4982 1216 391D0000 		.4byte	0x1d39
 4983 121a 28       		.uleb128 0x28
 4984 121b 1E000000 		.4byte	.LVL119
 4985 121f BC1D0000 		.4byte	0x1dbc
 4986 1223 28       		.uleb128 0x28
 4987 1224 22000000 		.4byte	.LVL120
 4988 1228 43100000 		.4byte	0x1043
 4989 122c 00       		.byte	0
 4990 122d 33       		.uleb128 0x33
 4991 122e DF010000 		.4byte	.LASF180
 4992 1232 01       		.byte	0x1
 4993 1233 CB       		.byte	0xcb
 4994 1234 68000000 		.4byte	0x68
 4995 1238 00000000 		.4byte	.LFB66
 4996 123c 74000000 		.4byte	.LFE66-.LFB66
 4997 1240 01       		.uleb128 0x1
 4998 1241 9C       		.byte	0x9c
 4999 1242 C8120000 		.4byte	0x12c8
 5000 1246 34       		.uleb128 0x34
 5001 1247 1A080000 		.4byte	.LASF181
 5002 124b 01       		.byte	0x1
 5003 124c D0       		.byte	0xd0
 5004 124d 81000000 		.4byte	0x81
 5005 1251 E4030000 		.4byte	.LLST28
 5006 1255 28       		.uleb128 0x28
 5007 1256 08000000 		.4byte	.LVL121
 5008 125a D21D0000 		.4byte	0x1dd2
 5009 125e 28       		.uleb128 0x28
 5010 125f 0C000000 		.4byte	.LVL122
 5011 1263 D91D0000 		.4byte	0x1dd9
 5012 1267 28       		.uleb128 0x28
ARM GAS  C:\Users\mark6\AppData\Local\Temp\ccm1Ykfm.s 			page 103


 5013 1268 2E000000 		.4byte	.LVL127
 5014 126c E01D0000 		.4byte	0x1de0
 5015 1270 28       		.uleb128 0x28
 5016 1271 36000000 		.4byte	.LVL128
 5017 1275 F51D0000 		.4byte	0x1df5
 5018 1279 26       		.uleb128 0x26
 5019 127a 40000000 		.4byte	.LVL129
 5020 127e 061E0000 		.4byte	0x1e06
 5021 1282 90120000 		.4byte	0x1290
 5022 1286 27       		.uleb128 0x27
 5023 1287 01       		.uleb128 0x1
 5024 1288 50       		.byte	0x50
 5025 1289 05       		.uleb128 0x5
 5026 128a 03       		.byte	0x3
 5027 128b 00000000 		.4byte	Submit_Button_Handler
 5028 128f 00       		.byte	0
 5029 1290 26       		.uleb128 0x26
 5030 1291 46000000 		.4byte	.LVL130
 5031 1295 171E0000 		.4byte	0x1e17
 5032 1299 A7120000 		.4byte	0x12a7
 5033 129d 27       		.uleb128 0x27
 5034 129e 01       		.uleb128 0x1
 5035 129f 50       		.byte	0x50
 5036 12a0 05       		.uleb128 0x5
 5037 12a1 03       		.byte	0x3
 5038 12a2 00000000 		.4byte	Up_Button_Handler
 5039 12a6 00       		.byte	0
 5040 12a7 26       		.uleb128 0x26
 5041 12a8 4C000000 		.4byte	.LVL131
 5042 12ac 281E0000 		.4byte	0x1e28
 5043 12b0 BE120000 		.4byte	0x12be
 5044 12b4 27       		.uleb128 0x27
 5045 12b5 01       		.uleb128 0x1
 5046 12b6 50       		.byte	0x50
 5047 12b7 05       		.uleb128 0x5
 5048 12b8 03       		.byte	0x3
 5049 12b9 00000000 		.4byte	Down_Button_Handler
 5050 12bd 00       		.byte	0
 5051 12be 28       		.uleb128 0x28
 5052 12bf 50000000 		.4byte	.LVL132
 5053 12c3 CE110000 		.4byte	0x11ce
 5054 12c7 00       		.byte	0
 5055 12c8 1E       		.uleb128 0x1e
 5056 12c9 D1080000 		.4byte	.LASF182
 5057 12cd 01       		.byte	0x1
 5058 12ce 6D       		.byte	0x6d
 5059 12cf 00000000 		.4byte	.LFB63
 5060 12d3 D4000000 		.4byte	.LFE63-.LFB63
 5061 12d7 01       		.uleb128 0x1
 5062 12d8 9C       		.byte	0x9c
 5063 12d9 1E140000 		.4byte	0x141e
 5064 12dd 2E       		.uleb128 0x2e
 5065 12de 08000000 		.4byte	.LBB11
 5066 12e2 52000000 		.4byte	.LBE11-.LBB11
 5067 12e6 B0130000 		.4byte	0x13b0
 5068 12ea 34       		.uleb128 0x34
 5069 12eb 79020000 		.4byte	.LASF153
ARM GAS  C:\Users\mark6\AppData\Local\Temp\ccm1Ykfm.s 			page 104


 5070 12ef 01       		.byte	0x1
 5071 12f0 70       		.byte	0x70
 5072 12f1 68000000 		.4byte	0x68
 5073 12f5 0E040000 		.4byte	.LLST29
 5074 12f9 26       		.uleb128 0x26
 5075 12fa 14000000 		.4byte	.LVL134
 5076 12fe F10E0000 		.4byte	0xef1
 5077 1302 12130000 		.4byte	0x1312
 5078 1306 27       		.uleb128 0x27
 5079 1307 01       		.uleb128 0x1
 5080 1308 51       		.byte	0x51
 5081 1309 01       		.uleb128 0x1
 5082 130a 37       		.byte	0x37
 5083 130b 27       		.uleb128 0x27
 5084 130c 01       		.uleb128 0x1
 5085 130d 50       		.byte	0x50
 5086 130e 02       		.uleb128 0x2
 5087 130f 74       		.byte	0x74
 5088 1310 7F       		.sleb128 -1
 5089 1311 00       		.byte	0
 5090 1312 26       		.uleb128 0x26
 5091 1313 24000000 		.4byte	.LVL135
 5092 1317 7E0A0000 		.4byte	0xa7e
 5093 131b 37130000 		.4byte	0x1337
 5094 131f 27       		.uleb128 0x27
 5095 1320 01       		.uleb128 0x1
 5096 1321 52       		.byte	0x52
 5097 1322 05       		.uleb128 0x5
 5098 1323 0C       		.byte	0xc
 5099 1324 F8FC0300 		.4byte	0x3fcf8
 5100 1328 27       		.uleb128 0x27
 5101 1329 01       		.uleb128 0x1
 5102 132a 51       		.byte	0x51
 5103 132b 01       		.uleb128 0x1
 5104 132c 37       		.byte	0x37
 5105 132d 27       		.uleb128 0x27
 5106 132e 01       		.uleb128 0x1
 5107 132f 50       		.byte	0x50
 5108 1330 05       		.uleb128 0x5
 5109 1331 03       		.byte	0x3
 5110 1332 38000000 		.4byte	.LC2
 5111 1336 00       		.byte	0
 5112 1337 26       		.uleb128 0x26
 5113 1338 30000000 		.4byte	.LVL136
 5114 133c 030A0000 		.4byte	0xa03
 5115 1340 5A130000 		.4byte	0x135a
 5116 1344 27       		.uleb128 0x27
 5117 1345 01       		.uleb128 0x1
 5118 1346 52       		.byte	0x52
 5119 1347 05       		.uleb128 0x5
 5120 1348 0C       		.byte	0xc
 5121 1349 FFFFFF00 		.4byte	0xffffff
 5122 134d 27       		.uleb128 0x27
 5123 134e 01       		.uleb128 0x1
 5124 134f 51       		.byte	0x51
 5125 1350 02       		.uleb128 0x2
 5126 1351 74       		.byte	0x74
ARM GAS  C:\Users\mark6\AppData\Local\Temp\ccm1Ykfm.s 			page 105


 5127 1352 00       		.sleb128 0
 5128 1353 27       		.uleb128 0x27
 5129 1354 01       		.uleb128 0x1
 5130 1355 50       		.byte	0x50
 5131 1356 02       		.uleb128 0x2
 5132 1357 74       		.byte	0x74
 5133 1358 00       		.sleb128 0
 5134 1359 00       		.byte	0
 5135 135a 26       		.uleb128 0x26
 5136 135b 42000000 		.4byte	.LVL137
 5137 135f 7E0A0000 		.4byte	0xa7e
 5138 1363 7F130000 		.4byte	0x137f
 5139 1367 27       		.uleb128 0x27
 5140 1368 01       		.uleb128 0x1
 5141 1369 52       		.byte	0x52
 5142 136a 05       		.uleb128 0x5
 5143 136b 0C       		.byte	0xc
 5144 136c FFFFFF00 		.4byte	0xffffff
 5145 1370 27       		.uleb128 0x27
 5146 1371 01       		.uleb128 0x1
 5147 1372 51       		.byte	0x51
 5148 1373 01       		.uleb128 0x1
 5149 1374 37       		.byte	0x37
 5150 1375 27       		.uleb128 0x27
 5151 1376 01       		.uleb128 0x1
 5152 1377 50       		.byte	0x50
 5153 1378 05       		.uleb128 0x5
 5154 1379 03       		.byte	0x3
 5155 137a 38000000 		.4byte	.LC2
 5156 137e 00       		.byte	0
 5157 137f 26       		.uleb128 0x26
 5158 1380 4E000000 		.4byte	.LVL138
 5159 1384 030A0000 		.4byte	0xa03
 5160 1388 96130000 		.4byte	0x1396
 5161 138c 27       		.uleb128 0x27
 5162 138d 01       		.uleb128 0x1
 5163 138e 52       		.byte	0x52
 5164 138f 05       		.uleb128 0x5
 5165 1390 0C       		.byte	0xc
 5166 1391 E370F600 		.4byte	0xf670e3
 5167 1395 00       		.byte	0
 5168 1396 29       		.uleb128 0x29
 5169 1397 58000000 		.4byte	.LVL139
 5170 139b 030A0000 		.4byte	0xa03
 5171 139f 27       		.uleb128 0x27
 5172 13a0 01       		.uleb128 0x1
 5173 13a1 52       		.byte	0x52
 5174 13a2 05       		.uleb128 0x5
 5175 13a3 0C       		.byte	0xc
 5176 13a4 E370F600 		.4byte	0xf670e3
 5177 13a8 27       		.uleb128 0x27
 5178 13a9 01       		.uleb128 0x1
 5179 13aa 51       		.byte	0x51
 5180 13ab 02       		.uleb128 0x2
 5181 13ac 74       		.byte	0x74
 5182 13ad 00       		.sleb128 0
 5183 13ae 00       		.byte	0
ARM GAS  C:\Users\mark6\AppData\Local\Temp\ccm1Ykfm.s 			page 106


 5184 13af 00       		.byte	0
 5185 13b0 26       		.uleb128 0x26
 5186 13b1 72000000 		.4byte	.LVL141
 5187 13b5 7E0A0000 		.4byte	0xa7e
 5188 13b9 C3130000 		.4byte	0x13c3
 5189 13bd 27       		.uleb128 0x27
 5190 13be 01       		.uleb128 0x1
 5191 13bf 52       		.byte	0x52
 5192 13c0 01       		.uleb128 0x1
 5193 13c1 30       		.byte	0x30
 5194 13c2 00       		.byte	0
 5195 13c3 26       		.uleb128 0x26
 5196 13c4 7C000000 		.4byte	.LVL142
 5197 13c8 F10E0000 		.4byte	0xef1
 5198 13cc D7130000 		.4byte	0x13d7
 5199 13d0 27       		.uleb128 0x27
 5200 13d1 01       		.uleb128 0x1
 5201 13d2 51       		.byte	0x51
 5202 13d3 02       		.uleb128 0x2
 5203 13d4 08       		.byte	0x8
 5204 13d5 27       		.byte	0x27
 5205 13d6 00       		.byte	0
 5206 13d7 26       		.uleb128 0x26
 5207 13d8 8A000000 		.4byte	.LVL143
 5208 13dc 7E0A0000 		.4byte	0xa7e
 5209 13e0 EE130000 		.4byte	0x13ee
 5210 13e4 27       		.uleb128 0x27
 5211 13e5 01       		.uleb128 0x1
 5212 13e6 52       		.byte	0x52
 5213 13e7 05       		.uleb128 0x5
 5214 13e8 0C       		.byte	0xc
 5215 13e9 3399FF00 		.4byte	0xff9933
 5216 13ed 00       		.byte	0
 5217 13ee 28       		.uleb128 0x28
 5218 13ef 9E000000 		.4byte	.LVL144
 5219 13f3 F10E0000 		.4byte	0xef1
 5220 13f7 28       		.uleb128 0x28
 5221 13f8 A4000000 		.4byte	.LVL145
 5222 13fc 2A0F0000 		.4byte	0xf2a
 5223 1400 29       		.uleb128 0x29
 5224 1401 AE000000 		.4byte	.LVL146
 5225 1405 CE080000 		.4byte	0x8ce
 5226 1409 27       		.uleb128 0x27
 5227 140a 01       		.uleb128 0x1
 5228 140b 52       		.byte	0x52
 5229 140c 01       		.uleb128 0x1
 5230 140d 38       		.byte	0x38
 5231 140e 27       		.uleb128 0x27
 5232 140f 01       		.uleb128 0x1
 5233 1410 51       		.byte	0x51
 5234 1411 01       		.uleb128 0x1
 5235 1412 31       		.byte	0x31
 5236 1413 27       		.uleb128 0x27
 5237 1414 01       		.uleb128 0x1
 5238 1415 50       		.byte	0x50
 5239 1416 05       		.uleb128 0x5
 5240 1417 03       		.byte	0x3
ARM GAS  C:\Users\mark6\AppData\Local\Temp\ccm1Ykfm.s 			page 107


 5241 1418 14000000 		.4byte	.LANCHOR0+20
 5242 141c 00       		.byte	0
 5243 141d 00       		.byte	0
 5244 141e 1E       		.uleb128 0x1e
 5245 141f F40B0000 		.4byte	.LASF183
 5246 1423 01       		.byte	0x1
 5247 1424 8A       		.byte	0x8a
 5248 1425 00000000 		.4byte	.LFB64
 5249 1429 D4000000 		.4byte	.LFE64-.LFB64
 5250 142d 01       		.uleb128 0x1
 5251 142e 9C       		.byte	0x9c
 5252 142f 74150000 		.4byte	0x1574
 5253 1433 2E       		.uleb128 0x2e
 5254 1434 08000000 		.4byte	.LBB12
 5255 1438 52000000 		.4byte	.LBE12-.LBB12
 5256 143c 06150000 		.4byte	0x1506
 5257 1440 34       		.uleb128 0x34
 5258 1441 79020000 		.4byte	.LASF153
 5259 1445 01       		.byte	0x1
 5260 1446 8C       		.byte	0x8c
 5261 1447 68000000 		.4byte	0x68
 5262 144b 21040000 		.4byte	.LLST30
 5263 144f 26       		.uleb128 0x26
 5264 1450 14000000 		.4byte	.LVL148
 5265 1454 F10E0000 		.4byte	0xef1
 5266 1458 68140000 		.4byte	0x1468
 5267 145c 27       		.uleb128 0x27
 5268 145d 01       		.uleb128 0x1
 5269 145e 51       		.byte	0x51
 5270 145f 01       		.uleb128 0x1
 5271 1460 37       		.byte	0x37
 5272 1461 27       		.uleb128 0x27
 5273 1462 01       		.uleb128 0x1
 5274 1463 50       		.byte	0x50
 5275 1464 02       		.uleb128 0x2
 5276 1465 74       		.byte	0x74
 5277 1466 01       		.sleb128 1
 5278 1467 00       		.byte	0
 5279 1468 26       		.uleb128 0x26
 5280 1469 24000000 		.4byte	.LVL149
 5281 146d 7E0A0000 		.4byte	0xa7e
 5282 1471 8D140000 		.4byte	0x148d
 5283 1475 27       		.uleb128 0x27
 5284 1476 01       		.uleb128 0x1
 5285 1477 52       		.byte	0x52
 5286 1478 05       		.uleb128 0x5
 5287 1479 0C       		.byte	0xc
 5288 147a F8FC0300 		.4byte	0x3fcf8
 5289 147e 27       		.uleb128 0x27
 5290 147f 01       		.uleb128 0x1
 5291 1480 51       		.byte	0x51
 5292 1481 01       		.uleb128 0x1
 5293 1482 37       		.byte	0x37
 5294 1483 27       		.uleb128 0x27
 5295 1484 01       		.uleb128 0x1
 5296 1485 50       		.byte	0x50
 5297 1486 05       		.uleb128 0x5
ARM GAS  C:\Users\mark6\AppData\Local\Temp\ccm1Ykfm.s 			page 108


 5298 1487 03       		.byte	0x3
 5299 1488 38000000 		.4byte	.LC2
 5300 148c 00       		.byte	0
 5301 148d 26       		.uleb128 0x26
 5302 148e 30000000 		.4byte	.LVL150
 5303 1492 030A0000 		.4byte	0xa03
 5304 1496 B0140000 		.4byte	0x14b0
 5305 149a 27       		.uleb128 0x27
 5306 149b 01       		.uleb128 0x1
 5307 149c 52       		.byte	0x52
 5308 149d 05       		.uleb128 0x5
 5309 149e 0C       		.byte	0xc
 5310 149f FFFFFF00 		.4byte	0xffffff
 5311 14a3 27       		.uleb128 0x27
 5312 14a4 01       		.uleb128 0x1
 5313 14a5 51       		.byte	0x51
 5314 14a6 02       		.uleb128 0x2
 5315 14a7 74       		.byte	0x74
 5316 14a8 00       		.sleb128 0
 5317 14a9 27       		.uleb128 0x27
 5318 14aa 01       		.uleb128 0x1
 5319 14ab 50       		.byte	0x50
 5320 14ac 02       		.uleb128 0x2
 5321 14ad 74       		.byte	0x74
 5322 14ae 00       		.sleb128 0
 5323 14af 00       		.byte	0
 5324 14b0 26       		.uleb128 0x26
 5325 14b1 42000000 		.4byte	.LVL151
 5326 14b5 7E0A0000 		.4byte	0xa7e
 5327 14b9 D5140000 		.4byte	0x14d5
 5328 14bd 27       		.uleb128 0x27
 5329 14be 01       		.uleb128 0x1
 5330 14bf 52       		.byte	0x52
 5331 14c0 05       		.uleb128 0x5
 5332 14c1 0C       		.byte	0xc
 5333 14c2 FFFFFF00 		.4byte	0xffffff
 5334 14c6 27       		.uleb128 0x27
 5335 14c7 01       		.uleb128 0x1
 5336 14c8 51       		.byte	0x51
 5337 14c9 01       		.uleb128 0x1
 5338 14ca 37       		.byte	0x37
 5339 14cb 27       		.uleb128 0x27
 5340 14cc 01       		.uleb128 0x1
 5341 14cd 50       		.byte	0x50
 5342 14ce 05       		.uleb128 0x5
 5343 14cf 03       		.byte	0x3
 5344 14d0 38000000 		.4byte	.LC2
 5345 14d4 00       		.byte	0
 5346 14d5 26       		.uleb128 0x26
 5347 14d6 4E000000 		.4byte	.LVL152
 5348 14da 030A0000 		.4byte	0xa03
 5349 14de EC140000 		.4byte	0x14ec
 5350 14e2 27       		.uleb128 0x27
 5351 14e3 01       		.uleb128 0x1
 5352 14e4 52       		.byte	0x52
 5353 14e5 05       		.uleb128 0x5
 5354 14e6 0C       		.byte	0xc
ARM GAS  C:\Users\mark6\AppData\Local\Temp\ccm1Ykfm.s 			page 109


 5355 14e7 E370F600 		.4byte	0xf670e3
 5356 14eb 00       		.byte	0
 5357 14ec 29       		.uleb128 0x29
 5358 14ed 58000000 		.4byte	.LVL153
 5359 14f1 030A0000 		.4byte	0xa03
 5360 14f5 27       		.uleb128 0x27
 5361 14f6 01       		.uleb128 0x1
 5362 14f7 52       		.byte	0x52
 5363 14f8 05       		.uleb128 0x5
 5364 14f9 0C       		.byte	0xc
 5365 14fa E370F600 		.4byte	0xf670e3
 5366 14fe 27       		.uleb128 0x27
 5367 14ff 01       		.uleb128 0x1
 5368 1500 51       		.byte	0x51
 5369 1501 02       		.uleb128 0x2
 5370 1502 74       		.byte	0x74
 5371 1503 00       		.sleb128 0
 5372 1504 00       		.byte	0
 5373 1505 00       		.byte	0
 5374 1506 26       		.uleb128 0x26
 5375 1507 72000000 		.4byte	.LVL155
 5376 150b 7E0A0000 		.4byte	0xa7e
 5377 150f 19150000 		.4byte	0x1519
 5378 1513 27       		.uleb128 0x27
 5379 1514 01       		.uleb128 0x1
 5380 1515 52       		.byte	0x52
 5381 1516 01       		.uleb128 0x1
 5382 1517 30       		.byte	0x30
 5383 1518 00       		.byte	0
 5384 1519 26       		.uleb128 0x26
 5385 151a 7C000000 		.4byte	.LVL156
 5386 151e F10E0000 		.4byte	0xef1
 5387 1522 2D150000 		.4byte	0x152d
 5388 1526 27       		.uleb128 0x27
 5389 1527 01       		.uleb128 0x1
 5390 1528 51       		.byte	0x51
 5391 1529 02       		.uleb128 0x2
 5392 152a 08       		.byte	0x8
 5393 152b 27       		.byte	0x27
 5394 152c 00       		.byte	0
 5395 152d 26       		.uleb128 0x26
 5396 152e 8A000000 		.4byte	.LVL157
 5397 1532 7E0A0000 		.4byte	0xa7e
 5398 1536 44150000 		.4byte	0x1544
 5399 153a 27       		.uleb128 0x27
 5400 153b 01       		.uleb128 0x1
 5401 153c 52       		.byte	0x52
 5402 153d 05       		.uleb128 0x5
 5403 153e 0C       		.byte	0xc
 5404 153f 3399FF00 		.4byte	0xff9933
 5405 1543 00       		.byte	0
 5406 1544 28       		.uleb128 0x28
 5407 1545 9E000000 		.4byte	.LVL158
 5408 1549 F10E0000 		.4byte	0xef1
 5409 154d 28       		.uleb128 0x28
 5410 154e A4000000 		.4byte	.LVL159
 5411 1552 2A0F0000 		.4byte	0xf2a
ARM GAS  C:\Users\mark6\AppData\Local\Temp\ccm1Ykfm.s 			page 110


 5412 1556 29       		.uleb128 0x29
 5413 1557 AE000000 		.4byte	.LVL160
 5414 155b CE080000 		.4byte	0x8ce
 5415 155f 27       		.uleb128 0x27
 5416 1560 01       		.uleb128 0x1
 5417 1561 52       		.byte	0x52
 5418 1562 01       		.uleb128 0x1
 5419 1563 38       		.byte	0x38
 5420 1564 27       		.uleb128 0x27
 5421 1565 01       		.uleb128 0x1
 5422 1566 51       		.byte	0x51
 5423 1567 01       		.uleb128 0x1
 5424 1568 30       		.byte	0x30
 5425 1569 27       		.uleb128 0x27
 5426 156a 01       		.uleb128 0x1
 5427 156b 50       		.byte	0x50
 5428 156c 05       		.uleb128 0x5
 5429 156d 03       		.byte	0x3
 5430 156e 14000000 		.4byte	.LANCHOR0+20
 5431 1572 00       		.byte	0
 5432 1573 00       		.byte	0
 5433 1574 35       		.uleb128 0x35
 5434 1575 09090000 		.4byte	.LASF184
 5435 1579 01       		.byte	0x1
 5436 157a DB01     		.2byte	0x1db
 5437 157c 68000000 		.4byte	0x68
 5438 1580 00000000 		.4byte	.LFB82
 5439 1584 30000000 		.4byte	.LFE82-.LFB82
 5440 1588 01       		.uleb128 0x1
 5441 1589 9C       		.byte	0x9c
 5442 158a 9F150000 		.4byte	0x159f
 5443 158e 24       		.uleb128 0x24
 5444 158f 19070000 		.4byte	.LASF125
 5445 1593 01       		.byte	0x1
 5446 1594 DB01     		.2byte	0x1db
 5447 1596 68000000 		.4byte	0x68
 5448 159a 34040000 		.4byte	.LLST31
 5449 159e 00       		.byte	0
 5450 159f 2B       		.uleb128 0x2b
 5451 15a0 6F030000 		.4byte	.LASF185
 5452 15a4 01       		.byte	0x1
 5453 15a5 DF01     		.2byte	0x1df
 5454 15a7 68000000 		.4byte	0x68
 5455 15ab 00000000 		.4byte	.LFB83
 5456 15af 18000000 		.4byte	.LFE83-.LFB83
 5457 15b3 01       		.uleb128 0x1
 5458 15b4 9C       		.byte	0x9c
 5459 15b5 F0150000 		.4byte	0x15f0
 5460 15b9 24       		.uleb128 0x24
 5461 15ba 39060000 		.4byte	.LASF186
 5462 15be 01       		.byte	0x1
 5463 15bf DF01     		.2byte	0x1df
 5464 15c1 86010000 		.4byte	0x186
 5465 15c5 55040000 		.4byte	.LLST32
 5466 15c9 32       		.uleb128 0x32
 5467 15ca 3F060000 		.4byte	.LASF187
 5468 15ce 01       		.byte	0x1
ARM GAS  C:\Users\mark6\AppData\Local\Temp\ccm1Ykfm.s 			page 111


 5469 15cf DF01     		.2byte	0x1df
 5470 15d1 86010000 		.4byte	0x186
 5471 15d5 01       		.uleb128 0x1
 5472 15d6 51       		.byte	0x51
 5473 15d7 36       		.uleb128 0x36
 5474 15d8 6600     		.ascii	"f\000"
 5475 15da 01       		.byte	0x1
 5476 15db E101     		.2byte	0x1e1
 5477 15dd 68000000 		.4byte	0x68
 5478 15e1 01       		.uleb128 0x1
 5479 15e2 52       		.byte	0x52
 5480 15e3 36       		.uleb128 0x36
 5481 15e4 7300     		.ascii	"s\000"
 5482 15e6 01       		.byte	0x1
 5483 15e7 E201     		.2byte	0x1e2
 5484 15e9 68000000 		.4byte	0x68
 5485 15ed 01       		.uleb128 0x1
 5486 15ee 53       		.byte	0x53
 5487 15ef 00       		.byte	0
 5488 15f0 23       		.uleb128 0x23
 5489 15f1 C0090000 		.4byte	.LASF188
 5490 15f5 01       		.byte	0x1
 5491 15f6 E901     		.2byte	0x1e9
 5492 15f8 00000000 		.4byte	.LFB84
 5493 15fc 5C000000 		.4byte	.LFE84-.LFB84
 5494 1600 01       		.uleb128 0x1
 5495 1601 9C       		.byte	0x9c
 5496 1602 3C160000 		.4byte	0x163c
 5497 1606 24       		.uleb128 0x24
 5498 1607 AA060000 		.4byte	.LASF158
 5499 160b 01       		.byte	0x1
 5500 160c E901     		.2byte	0x1e9
 5501 160e 000C0000 		.4byte	0xc00
 5502 1612 A8040000 		.4byte	.LLST33
 5503 1616 2D       		.uleb128 0x2d
 5504 1617 6900     		.ascii	"i\000"
 5505 1619 01       		.byte	0x1
 5506 161a EA01     		.2byte	0x1ea
 5507 161c 68000000 		.4byte	0x68
 5508 1620 D4040000 		.4byte	.LLST34
 5509 1624 2D       		.uleb128 0x2d
 5510 1625 6A00     		.ascii	"j\000"
 5511 1627 01       		.byte	0x1
 5512 1628 EA01     		.2byte	0x1ea
 5513 162a 68000000 		.4byte	0x68
 5514 162e FE040000 		.4byte	.LLST35
 5515 1632 28       		.uleb128 0x28
 5516 1633 42000000 		.4byte	.LVL180
 5517 1637 74150000 		.4byte	0x1574
 5518 163b 00       		.byte	0
 5519 163c 23       		.uleb128 0x23
 5520 163d F0000000 		.4byte	.LASF189
 5521 1641 01       		.byte	0x1
 5522 1642 0902     		.2byte	0x209
 5523 1644 00000000 		.4byte	.LFB86
 5524 1648 6C000000 		.4byte	.LFE86-.LFB86
 5525 164c 01       		.uleb128 0x1
ARM GAS  C:\Users\mark6\AppData\Local\Temp\ccm1Ykfm.s 			page 112


 5526 164d 9C       		.byte	0x9c
 5527 164e CF160000 		.4byte	0x16cf
 5528 1652 24       		.uleb128 0x24
 5529 1653 5E080000 		.4byte	.LASF190
 5530 1657 01       		.byte	0x1
 5531 1658 0902     		.2byte	0x209
 5532 165a 68000000 		.4byte	0x68
 5533 165e 1C050000 		.4byte	.LLST36
 5534 1662 28       		.uleb128 0x28
 5535 1663 08000000 		.4byte	.LVL187
 5536 1667 391E0000 		.4byte	0x1e39
 5537 166b 28       		.uleb128 0x28
 5538 166c 10000000 		.4byte	.LVL188
 5539 1670 441E0000 		.4byte	0x1e44
 5540 1674 28       		.uleb128 0x28
 5541 1675 1A000000 		.4byte	.LVL190
 5542 1679 551E0000 		.4byte	0x1e55
 5543 167d 28       		.uleb128 0x28
 5544 167e 22000000 		.4byte	.LVL191
 5545 1682 601E0000 		.4byte	0x1e60
 5546 1686 28       		.uleb128 0x28
 5547 1687 2C000000 		.4byte	.LVL193
 5548 168b 711E0000 		.4byte	0x1e71
 5549 168f 28       		.uleb128 0x28
 5550 1690 34000000 		.4byte	.LVL194
 5551 1694 7C1E0000 		.4byte	0x1e7c
 5552 1698 28       		.uleb128 0x28
 5553 1699 3E000000 		.4byte	.LVL196
 5554 169d 8D1E0000 		.4byte	0x1e8d
 5555 16a1 28       		.uleb128 0x28
 5556 16a2 46000000 		.4byte	.LVL197
 5557 16a6 981E0000 		.4byte	0x1e98
 5558 16aa 28       		.uleb128 0x28
 5559 16ab 50000000 		.4byte	.LVL199
 5560 16af A91E0000 		.4byte	0x1ea9
 5561 16b3 28       		.uleb128 0x28
 5562 16b4 58000000 		.4byte	.LVL200
 5563 16b8 B41E0000 		.4byte	0x1eb4
 5564 16bc 28       		.uleb128 0x28
 5565 16bd 62000000 		.4byte	.LVL202
 5566 16c1 C51E0000 		.4byte	0x1ec5
 5567 16c5 28       		.uleb128 0x28
 5568 16c6 6A000000 		.4byte	.LVL203
 5569 16ca D01E0000 		.4byte	0x1ed0
 5570 16ce 00       		.byte	0
 5571 16cf 23       		.uleb128 0x23
 5572 16d0 7C0A0000 		.4byte	.LASF191
 5573 16d4 01       		.byte	0x1
 5574 16d5 1802     		.2byte	0x218
 5575 16d7 00000000 		.4byte	.LFB87
 5576 16db 46000000 		.4byte	.LFE87-.LFB87
 5577 16df 01       		.uleb128 0x1
 5578 16e0 9C       		.byte	0x9c
 5579 16e1 66170000 		.4byte	0x1766
 5580 16e5 24       		.uleb128 0x24
 5581 16e6 A90A0000 		.4byte	.LASF148
 5582 16ea 01       		.byte	0x1
ARM GAS  C:\Users\mark6\AppData\Local\Temp\ccm1Ykfm.s 			page 113


 5583 16eb 1802     		.2byte	0x218
 5584 16ed 68000000 		.4byte	0x68
 5585 16f1 BA050000 		.4byte	.LLST37
 5586 16f5 26       		.uleb128 0x26
 5587 16f6 08000000 		.4byte	.LVL205
 5588 16fa 441E0000 		.4byte	0x1e44
 5589 16fe 0A170000 		.4byte	0x170a
 5590 1702 27       		.uleb128 0x27
 5591 1703 01       		.uleb128 0x1
 5592 1704 50       		.byte	0x50
 5593 1705 03       		.uleb128 0x3
 5594 1706 F3       		.byte	0xf3
 5595 1707 01       		.uleb128 0x1
 5596 1708 50       		.byte	0x50
 5597 1709 00       		.byte	0
 5598 170a 26       		.uleb128 0x26
 5599 170b 14000000 		.4byte	.LVL208
 5600 170f 601E0000 		.4byte	0x1e60
 5601 1713 1D170000 		.4byte	0x171d
 5602 1717 27       		.uleb128 0x27
 5603 1718 01       		.uleb128 0x1
 5604 1719 50       		.byte	0x50
 5605 171a 01       		.uleb128 0x1
 5606 171b 30       		.byte	0x30
 5607 171c 00       		.byte	0
 5608 171d 26       		.uleb128 0x26
 5609 171e 20000000 		.4byte	.LVL211
 5610 1722 7C1E0000 		.4byte	0x1e7c
 5611 1726 30170000 		.4byte	0x1730
 5612 172a 27       		.uleb128 0x27
 5613 172b 01       		.uleb128 0x1
 5614 172c 50       		.byte	0x50
 5615 172d 01       		.uleb128 0x1
 5616 172e 30       		.byte	0x30
 5617 172f 00       		.byte	0
 5618 1730 26       		.uleb128 0x26
 5619 1731 2C000000 		.4byte	.LVL214
 5620 1735 981E0000 		.4byte	0x1e98
 5621 1739 43170000 		.4byte	0x1743
 5622 173d 27       		.uleb128 0x27
 5623 173e 01       		.uleb128 0x1
 5624 173f 50       		.byte	0x50
 5625 1740 01       		.uleb128 0x1
 5626 1741 30       		.byte	0x30
 5627 1742 00       		.byte	0
 5628 1743 26       		.uleb128 0x26
 5629 1744 38000000 		.4byte	.LVL217
 5630 1748 B41E0000 		.4byte	0x1eb4
 5631 174c 56170000 		.4byte	0x1756
 5632 1750 27       		.uleb128 0x27
 5633 1751 01       		.uleb128 0x1
 5634 1752 50       		.byte	0x50
 5635 1753 01       		.uleb128 0x1
 5636 1754 30       		.byte	0x30
 5637 1755 00       		.byte	0
 5638 1756 29       		.uleb128 0x29
 5639 1757 44000000 		.4byte	.LVL220
ARM GAS  C:\Users\mark6\AppData\Local\Temp\ccm1Ykfm.s 			page 114


 5640 175b D01E0000 		.4byte	0x1ed0
 5641 175f 27       		.uleb128 0x27
 5642 1760 01       		.uleb128 0x1
 5643 1761 50       		.byte	0x50
 5644 1762 01       		.uleb128 0x1
 5645 1763 30       		.byte	0x30
 5646 1764 00       		.byte	0
 5647 1765 00       		.byte	0
 5648 1766 23       		.uleb128 0x23
 5649 1767 45010000 		.4byte	.LASF192
 5650 176b 01       		.byte	0x1
 5651 176c 2802     		.2byte	0x228
 5652 176e 00000000 		.4byte	.LFB88
 5653 1772 48000000 		.4byte	.LFE88-.LFB88
 5654 1776 01       		.uleb128 0x1
 5655 1777 9C       		.byte	0x9c
 5656 1778 FB170000 		.4byte	0x17fb
 5657 177c 24       		.uleb128 0x24
 5658 177d A90A0000 		.4byte	.LASF148
 5659 1781 01       		.byte	0x1
 5660 1782 2802     		.2byte	0x228
 5661 1784 68000000 		.4byte	0x68
 5662 1788 58060000 		.4byte	.LLST38
 5663 178c 26       		.uleb128 0x26
 5664 178d 0A000000 		.4byte	.LVL223
 5665 1791 441E0000 		.4byte	0x1e44
 5666 1795 9F170000 		.4byte	0x179f
 5667 1799 27       		.uleb128 0x27
 5668 179a 01       		.uleb128 0x1
 5669 179b 50       		.byte	0x50
 5670 179c 01       		.uleb128 0x1
 5671 179d 31       		.byte	0x31
 5672 179e 00       		.byte	0
 5673 179f 26       		.uleb128 0x26
 5674 17a0 16000000 		.4byte	.LVL226
 5675 17a4 601E0000 		.4byte	0x1e60
 5676 17a8 B2170000 		.4byte	0x17b2
 5677 17ac 27       		.uleb128 0x27
 5678 17ad 01       		.uleb128 0x1
 5679 17ae 50       		.byte	0x50
 5680 17af 01       		.uleb128 0x1
 5681 17b0 31       		.byte	0x31
 5682 17b1 00       		.byte	0
 5683 17b2 26       		.uleb128 0x26
 5684 17b3 22000000 		.4byte	.LVL229
 5685 17b7 7C1E0000 		.4byte	0x1e7c
 5686 17bb C5170000 		.4byte	0x17c5
 5687 17bf 27       		.uleb128 0x27
 5688 17c0 01       		.uleb128 0x1
 5689 17c1 50       		.byte	0x50
 5690 17c2 01       		.uleb128 0x1
 5691 17c3 31       		.byte	0x31
 5692 17c4 00       		.byte	0
 5693 17c5 26       		.uleb128 0x26
 5694 17c6 2E000000 		.4byte	.LVL232
 5695 17ca 981E0000 		.4byte	0x1e98
 5696 17ce D8170000 		.4byte	0x17d8
ARM GAS  C:\Users\mark6\AppData\Local\Temp\ccm1Ykfm.s 			page 115


 5697 17d2 27       		.uleb128 0x27
 5698 17d3 01       		.uleb128 0x1
 5699 17d4 50       		.byte	0x50
 5700 17d5 01       		.uleb128 0x1
 5701 17d6 31       		.byte	0x31
 5702 17d7 00       		.byte	0
 5703 17d8 26       		.uleb128 0x26
 5704 17d9 3A000000 		.4byte	.LVL235
 5705 17dd B41E0000 		.4byte	0x1eb4
 5706 17e1 EB170000 		.4byte	0x17eb
 5707 17e5 27       		.uleb128 0x27
 5708 17e6 01       		.uleb128 0x1
 5709 17e7 50       		.byte	0x50
 5710 17e8 01       		.uleb128 0x1
 5711 17e9 31       		.byte	0x31
 5712 17ea 00       		.byte	0
 5713 17eb 29       		.uleb128 0x29
 5714 17ec 46000000 		.4byte	.LVL238
 5715 17f0 D01E0000 		.4byte	0x1ed0
 5716 17f4 27       		.uleb128 0x27
 5717 17f5 01       		.uleb128 0x1
 5718 17f6 50       		.byte	0x50
 5719 17f7 01       		.uleb128 0x1
 5720 17f8 31       		.byte	0x31
 5721 17f9 00       		.byte	0
 5722 17fa 00       		.byte	0
 5723 17fb 23       		.uleb128 0x23
 5724 17fc 8F010000 		.4byte	.LASF193
 5725 1800 01       		.byte	0x1
 5726 1801 F901     		.2byte	0x1f9
 5727 1803 00000000 		.4byte	.LFB85
 5728 1807 48000000 		.4byte	.LFE85-.LFB85
 5729 180b 01       		.uleb128 0x1
 5730 180c 9C       		.byte	0x9c
 5731 180d 83180000 		.4byte	0x1883
 5732 1811 24       		.uleb128 0x24
 5733 1812 FF060000 		.4byte	.LASF194
 5734 1816 01       		.byte	0x1
 5735 1817 F901     		.2byte	0x1f9
 5736 1819 68000000 		.4byte	0x68
 5737 181d F6060000 		.4byte	.LLST39
 5738 1821 2C       		.uleb128 0x2c
 5739 1822 AA060000 		.4byte	.LASF158
 5740 1826 01       		.byte	0x1
 5741 1827 FA01     		.2byte	0x1fa
 5742 1829 000C0000 		.4byte	0xc00
 5743 182d 17070000 		.4byte	.LLST40
 5744 1831 2D       		.uleb128 0x2d
 5745 1832 6900     		.ascii	"i\000"
 5746 1834 01       		.byte	0x1
 5747 1835 FC01     		.2byte	0x1fc
 5748 1837 68000000 		.4byte	0x68
 5749 183b 3B070000 		.4byte	.LLST41
 5750 183f 28       		.uleb128 0x28
 5751 1840 0E000000 		.4byte	.LVL242
 5752 1844 F0150000 		.4byte	0x15f0
 5753 1848 26       		.uleb128 0x26
ARM GAS  C:\Users\mark6\AppData\Local\Temp\ccm1Ykfm.s 			page 116


 5754 1849 22000000 		.4byte	.LVL244
 5755 184d CF160000 		.4byte	0x16cf
 5756 1851 5C180000 		.4byte	0x185c
 5757 1855 27       		.uleb128 0x27
 5758 1856 01       		.uleb128 0x1
 5759 1857 50       		.byte	0x50
 5760 1858 02       		.uleb128 0x2
 5761 1859 74       		.byte	0x74
 5762 185a 00       		.sleb128 0
 5763 185b 00       		.byte	0
 5764 185c 28       		.uleb128 0x28
 5765 185d 2E000000 		.4byte	.LVL245
 5766 1861 E11E0000 		.4byte	0x1ee1
 5767 1865 26       		.uleb128 0x26
 5768 1866 34000000 		.4byte	.LVL246
 5769 186a 66170000 		.4byte	0x1766
 5770 186e 79180000 		.4byte	0x1879
 5771 1872 27       		.uleb128 0x27
 5772 1873 01       		.uleb128 0x1
 5773 1874 50       		.byte	0x50
 5774 1875 02       		.uleb128 0x2
 5775 1876 74       		.byte	0x74
 5776 1877 00       		.sleb128 0
 5777 1878 00       		.byte	0
 5778 1879 28       		.uleb128 0x28
 5779 187a 3E000000 		.4byte	.LVL248
 5780 187e 43100000 		.4byte	0x1043
 5781 1882 00       		.byte	0
 5782 1883 23       		.uleb128 0x23
 5783 1884 C8000000 		.4byte	.LASF195
 5784 1888 01       		.byte	0x1
 5785 1889 3702     		.2byte	0x237
 5786 188b 00000000 		.4byte	.LFB89
 5787 188f 18000000 		.4byte	.LFE89-.LFB89
 5788 1893 01       		.uleb128 0x1
 5789 1894 9C       		.byte	0x9c
 5790 1895 E3180000 		.4byte	0x18e3
 5791 1899 24       		.uleb128 0x24
 5792 189a A90A0000 		.4byte	.LASF148
 5793 189e 01       		.byte	0x1
 5794 189f 3702     		.2byte	0x237
 5795 18a1 68000000 		.4byte	0x68
 5796 18a5 5A070000 		.4byte	.LLST42
 5797 18a9 26       		.uleb128 0x26
 5798 18aa 08000000 		.4byte	.LVL251
 5799 18ae CF160000 		.4byte	0x16cf
 5800 18b2 BD180000 		.4byte	0x18bd
 5801 18b6 27       		.uleb128 0x27
 5802 18b7 01       		.uleb128 0x1
 5803 18b8 50       		.byte	0x50
 5804 18b9 02       		.uleb128 0x2
 5805 18ba 74       		.byte	0x74
 5806 18bb 00       		.sleb128 0
 5807 18bc 00       		.byte	0
 5808 18bd 26       		.uleb128 0x26
 5809 18be 10000000 		.4byte	.LVL252
 5810 18c2 E11E0000 		.4byte	0x1ee1
ARM GAS  C:\Users\mark6\AppData\Local\Temp\ccm1Ykfm.s 			page 117


 5811 18c6 D2180000 		.4byte	0x18d2
 5812 18ca 27       		.uleb128 0x27
 5813 18cb 01       		.uleb128 0x1
 5814 18cc 50       		.byte	0x50
 5815 18cd 03       		.uleb128 0x3
 5816 18ce 0A       		.byte	0xa
 5817 18cf 7017     		.2byte	0x1770
 5818 18d1 00       		.byte	0
 5819 18d2 29       		.uleb128 0x29
 5820 18d3 16000000 		.4byte	.LVL253
 5821 18d7 66170000 		.4byte	0x1766
 5822 18db 27       		.uleb128 0x27
 5823 18dc 01       		.uleb128 0x1
 5824 18dd 50       		.byte	0x50
 5825 18de 02       		.uleb128 0x2
 5826 18df 74       		.byte	0x74
 5827 18e0 00       		.sleb128 0
 5828 18e1 00       		.byte	0
 5829 18e2 00       		.byte	0
 5830 18e3 2A       		.uleb128 0x2a
 5831 18e4 CD010000 		.4byte	.LASF196
 5832 18e8 01       		.byte	0x1
 5833 18e9 3D02     		.2byte	0x23d
 5834 18eb 00000000 		.4byte	.LFB90
 5835 18ef 18000000 		.4byte	.LFE90-.LFB90
 5836 18f3 01       		.uleb128 0x1
 5837 18f4 9C       		.byte	0x9c
 5838 18f5 08190000 		.4byte	0x1908
 5839 18f9 2D       		.uleb128 0x2d
 5840 18fa 6900     		.ascii	"i\000"
 5841 18fc 01       		.byte	0x1
 5842 18fd 3F02     		.2byte	0x23f
 5843 18ff 68000000 		.4byte	0x68
 5844 1903 78070000 		.4byte	.LLST43
 5845 1907 00       		.byte	0
 5846 1908 2A       		.uleb128 0x2a
 5847 1909 72010000 		.4byte	.LASF197
 5848 190d 01       		.byte	0x1
 5849 190e 4502     		.2byte	0x245
 5850 1910 00000000 		.4byte	.LFB91
 5851 1914 3C000000 		.4byte	.LFE91-.LFB91
 5852 1918 01       		.uleb128 0x1
 5853 1919 9C       		.byte	0x9c
 5854 191a 87190000 		.4byte	0x1987
 5855 191e 2D       		.uleb128 0x2d
 5856 191f 6900     		.ascii	"i\000"
 5857 1921 01       		.byte	0x1
 5858 1922 4902     		.2byte	0x249
 5859 1924 68000000 		.4byte	0x68
 5860 1928 97070000 		.4byte	.LLST44
 5861 192c 28       		.uleb128 0x28
 5862 192d 06000000 		.4byte	.LVL257
 5863 1931 E3180000 		.4byte	0x18e3
 5864 1935 28       		.uleb128 0x28
 5865 1936 0A000000 		.4byte	.LVL258
 5866 193a 020B0000 		.4byte	0xb02
 5867 193e 26       		.uleb128 0x26
ARM GAS  C:\Users\mark6\AppData\Local\Temp\ccm1Ykfm.s 			page 118


 5868 193f 14000000 		.4byte	.LVL260
 5869 1943 CF160000 		.4byte	0x16cf
 5870 1947 52190000 		.4byte	0x1952
 5871 194b 27       		.uleb128 0x27
 5872 194c 01       		.uleb128 0x1
 5873 194d 50       		.byte	0x50
 5874 194e 02       		.uleb128 0x2
 5875 194f 74       		.byte	0x74
 5876 1950 00       		.sleb128 0
 5877 1951 00       		.byte	0
 5878 1952 26       		.uleb128 0x26
 5879 1953 20000000 		.4byte	.LVL262
 5880 1957 E11E0000 		.4byte	0x1ee1
 5881 195b 69190000 		.4byte	0x1969
 5882 195f 27       		.uleb128 0x27
 5883 1960 01       		.uleb128 0x1
 5884 1961 50       		.byte	0x50
 5885 1962 05       		.uleb128 0x5
 5886 1963 0C       		.byte	0xc
 5887 1964 C0D40100 		.4byte	0x1d4c0
 5888 1968 00       		.byte	0
 5889 1969 26       		.uleb128 0x26
 5890 196a 2A000000 		.4byte	.LVL264
 5891 196e 66170000 		.4byte	0x1766
 5892 1972 7D190000 		.4byte	0x197d
 5893 1976 27       		.uleb128 0x27
 5894 1977 01       		.uleb128 0x1
 5895 1978 50       		.byte	0x50
 5896 1979 02       		.uleb128 0x2
 5897 197a 74       		.byte	0x74
 5898 197b 00       		.sleb128 0
 5899 197c 00       		.byte	0
 5900 197d 28       		.uleb128 0x28
 5901 197e 34000000 		.4byte	.LVL266
 5902 1982 4E0C0000 		.4byte	0xc4e
 5903 1986 00       		.byte	0
 5904 1987 1E       		.uleb128 0x1e
 5905 1988 02060000 		.4byte	.LASF198
 5906 198c 01       		.byte	0x1
 5907 198d A6       		.byte	0xa6
 5908 198e 00000000 		.4byte	.LFB65
 5909 1992 DC000000 		.4byte	.LFE65-.LFB65
 5910 1996 01       		.uleb128 0x1
 5911 1997 9C       		.byte	0x9c
 5912 1998 C81A0000 		.4byte	0x1ac8
 5913 199c 26       		.uleb128 0x26
 5914 199d 0C000000 		.4byte	.LVL268
 5915 19a1 1A090000 		.4byte	0x91a
 5916 19a5 C1190000 		.4byte	0x19c1
 5917 19a9 27       		.uleb128 0x27
 5918 19aa 01       		.uleb128 0x1
 5919 19ab 52       		.byte	0x52
 5920 19ac 01       		.uleb128 0x1
 5921 19ad 38       		.byte	0x38
 5922 19ae 27       		.uleb128 0x27
 5923 19af 01       		.uleb128 0x1
 5924 19b0 51       		.byte	0x51
ARM GAS  C:\Users\mark6\AppData\Local\Temp\ccm1Ykfm.s 			page 119


 5925 19b1 05       		.uleb128 0x5
 5926 19b2 03       		.byte	0x3
 5927 19b3 04000000 		.4byte	.LANCHOR1+4
 5928 19b7 27       		.uleb128 0x27
 5929 19b8 01       		.uleb128 0x1
 5930 19b9 50       		.byte	0x50
 5931 19ba 05       		.uleb128 0x5
 5932 19bb 03       		.byte	0x3
 5933 19bc 14000000 		.4byte	.LANCHOR0+20
 5934 19c0 00       		.byte	0
 5935 19c1 28       		.uleb128 0x28
 5936 19c2 18000000 		.4byte	.LVL269
 5937 19c6 43100000 		.4byte	0x1043
 5938 19ca 26       		.uleb128 0x26
 5939 19cb 22000000 		.4byte	.LVL270
 5940 19cf CE080000 		.4byte	0x8ce
 5941 19d3 EB190000 		.4byte	0x19eb
 5942 19d7 27       		.uleb128 0x27
 5943 19d8 01       		.uleb128 0x1
 5944 19d9 52       		.byte	0x52
 5945 19da 01       		.uleb128 0x1
 5946 19db 38       		.byte	0x38
 5947 19dc 27       		.uleb128 0x27
 5948 19dd 01       		.uleb128 0x1
 5949 19de 51       		.byte	0x51
 5950 19df 01       		.uleb128 0x1
 5951 19e0 32       		.byte	0x32
 5952 19e1 27       		.uleb128 0x27
 5953 19e2 01       		.uleb128 0x1
 5954 19e3 50       		.byte	0x50
 5955 19e4 05       		.uleb128 0x5
 5956 19e5 03       		.byte	0x3
 5957 19e6 14000000 		.4byte	.LANCHOR0+20
 5958 19ea 00       		.byte	0
 5959 19eb 28       		.uleb128 0x28
 5960 19ec 2C000000 		.4byte	.LVL271
 5961 19f0 4E0C0000 		.4byte	0xc4e
 5962 19f4 26       		.uleb128 0x26
 5963 19f5 36000000 		.4byte	.LVL272
 5964 19f9 CE080000 		.4byte	0x8ce
 5965 19fd 151A0000 		.4byte	0x1a15
 5966 1a01 27       		.uleb128 0x27
 5967 1a02 01       		.uleb128 0x1
 5968 1a03 52       		.byte	0x52
 5969 1a04 01       		.uleb128 0x1
 5970 1a05 38       		.byte	0x38
 5971 1a06 27       		.uleb128 0x27
 5972 1a07 01       		.uleb128 0x1
 5973 1a08 51       		.byte	0x51
 5974 1a09 01       		.uleb128 0x1
 5975 1a0a 32       		.byte	0x32
 5976 1a0b 27       		.uleb128 0x27
 5977 1a0c 01       		.uleb128 0x1
 5978 1a0d 50       		.byte	0x50
 5979 1a0e 05       		.uleb128 0x5
 5980 1a0f 03       		.byte	0x3
 5981 1a10 14000000 		.4byte	.LANCHOR0+20
ARM GAS  C:\Users\mark6\AppData\Local\Temp\ccm1Ykfm.s 			page 120


 5982 1a14 00       		.byte	0
 5983 1a15 26       		.uleb128 0x26
 5984 1a16 52000000 		.4byte	.LVL273
 5985 1a1a 7E0A0000 		.4byte	0xa7e
 5986 1a1e 381A0000 		.4byte	0x1a38
 5987 1a22 27       		.uleb128 0x27
 5988 1a23 01       		.uleb128 0x1
 5989 1a24 52       		.byte	0x52
 5990 1a25 03       		.uleb128 0x3
 5991 1a26 0A       		.byte	0xa
 5992 1a27 00FF     		.2byte	0xff00
 5993 1a29 27       		.uleb128 0x27
 5994 1a2a 01       		.uleb128 0x1
 5995 1a2b 51       		.byte	0x51
 5996 1a2c 01       		.uleb128 0x1
 5997 1a2d 37       		.byte	0x37
 5998 1a2e 27       		.uleb128 0x27
 5999 1a2f 01       		.uleb128 0x1
 6000 1a30 50       		.byte	0x50
 6001 1a31 05       		.uleb128 0x5
 6002 1a32 03       		.byte	0x3
 6003 1a33 38000000 		.4byte	.LC2
 6004 1a37 00       		.byte	0
 6005 1a38 28       		.uleb128 0x28
 6006 1a39 56000000 		.4byte	.LVL274
 6007 1a3d 08190000 		.4byte	0x1908
 6008 1a41 26       		.uleb128 0x26
 6009 1a42 5E000000 		.4byte	.LVL275
 6010 1a46 6A090000 		.4byte	0x96a
 6011 1a4a 581A0000 		.4byte	0x1a58
 6012 1a4e 27       		.uleb128 0x27
 6013 1a4f 01       		.uleb128 0x1
 6014 1a50 51       		.byte	0x51
 6015 1a51 05       		.uleb128 0x5
 6016 1a52 0C       		.byte	0xc
 6017 1a53 3399FF00 		.4byte	0xff9933
 6018 1a57 00       		.byte	0
 6019 1a58 26       		.uleb128 0x26
 6020 1a59 88000000 		.4byte	.LVL276
 6021 1a5d 6A090000 		.4byte	0x96a
 6022 1a61 6D1A0000 		.4byte	0x1a6d
 6023 1a65 27       		.uleb128 0x27
 6024 1a66 01       		.uleb128 0x1
 6025 1a67 51       		.byte	0x51
 6026 1a68 03       		.uleb128 0x3
 6027 1a69 0A       		.byte	0xa
 6028 1a6a 00FF     		.2byte	0xff00
 6029 1a6c 00       		.byte	0
 6030 1a6d 26       		.uleb128 0x26
 6031 1a6e 92000000 		.4byte	.LVL277
 6032 1a72 F21E0000 		.4byte	0x1ef2
 6033 1a76 8F1A0000 		.4byte	0x1a8f
 6034 1a7a 27       		.uleb128 0x27
 6035 1a7b 01       		.uleb128 0x1
 6036 1a7c 52       		.byte	0x52
 6037 1a7d 01       		.uleb128 0x1
 6038 1a7e 36       		.byte	0x36
ARM GAS  C:\Users\mark6\AppData\Local\Temp\ccm1Ykfm.s 			page 121


 6039 1a7f 27       		.uleb128 0x27
 6040 1a80 01       		.uleb128 0x1
 6041 1a81 51       		.byte	0x51
 6042 1a82 05       		.uleb128 0x5
 6043 1a83 03       		.byte	0x3
 6044 1a84 18000000 		.4byte	.LANCHOR2+24
 6045 1a88 27       		.uleb128 0x27
 6046 1a89 01       		.uleb128 0x1
 6047 1a8a 50       		.byte	0x50
 6048 1a8b 02       		.uleb128 0x2
 6049 1a8c 74       		.byte	0x74
 6050 1a8d 00       		.sleb128 0
 6051 1a8e 00       		.byte	0
 6052 1a8f 28       		.uleb128 0x28
 6053 1a90 98000000 		.4byte	.LVL278
 6054 1a94 83180000 		.4byte	0x1883
 6055 1a98 28       		.uleb128 0x28
 6056 1a99 9C000000 		.4byte	.LVL279
 6057 1a9d 4E0C0000 		.4byte	0xc4e
 6058 1aa1 28       		.uleb128 0x28
 6059 1aa2 B0000000 		.4byte	.LVL280
 6060 1aa6 FB170000 		.4byte	0x17fb
 6061 1aaa 29       		.uleb128 0x29
 6062 1aab BA000000 		.4byte	.LVL281
 6063 1aaf CE080000 		.4byte	0x8ce
 6064 1ab3 27       		.uleb128 0x27
 6065 1ab4 01       		.uleb128 0x1
 6066 1ab5 52       		.byte	0x52
 6067 1ab6 01       		.uleb128 0x1
 6068 1ab7 38       		.byte	0x38
 6069 1ab8 27       		.uleb128 0x27
 6070 1ab9 01       		.uleb128 0x1
 6071 1aba 51       		.byte	0x51
 6072 1abb 01       		.uleb128 0x1
 6073 1abc 32       		.byte	0x32
 6074 1abd 27       		.uleb128 0x27
 6075 1abe 01       		.uleb128 0x1
 6076 1abf 50       		.byte	0x50
 6077 1ac0 05       		.uleb128 0x5
 6078 1ac1 03       		.byte	0x3
 6079 1ac2 14000000 		.4byte	.LANCHOR0+20
 6080 1ac6 00       		.byte	0
 6081 1ac7 00       		.byte	0
 6082 1ac8 1C       		.uleb128 0x1c
 6083 1ac9 81000000 		.4byte	0x81
 6084 1acd D81A0000 		.4byte	0x1ad8
 6085 1ad1 1D       		.uleb128 0x1d
 6086 1ad2 D8000000 		.4byte	0xd8
 6087 1ad6 05       		.byte	0x5
 6088 1ad7 00       		.byte	0
 6089 1ad8 37       		.uleb128 0x37
 6090 1ad9 18090000 		.4byte	.LASF199
 6091 1add 01       		.byte	0x1
 6092 1ade 4D       		.byte	0x4d
 6093 1adf E91A0000 		.4byte	0x1ae9
 6094 1ae3 05       		.uleb128 0x5
 6095 1ae4 03       		.byte	0x3
ARM GAS  C:\Users\mark6\AppData\Local\Temp\ccm1Ykfm.s 			page 122


 6096 1ae5 18000000 		.4byte	eeprom_config_data
 6097 1ae9 09       		.uleb128 0x9
 6098 1aea C81A0000 		.4byte	0x1ac8
 6099 1aee 38       		.uleb128 0x38
 6100 1aef 28070000 		.4byte	.LASF200
 6101 1af3 0B       		.byte	0xb
 6102 1af4 9606     		.2byte	0x696
 6103 1af6 FA1A0000 		.4byte	0x1afa
 6104 1afa 39       		.uleb128 0x39
 6105 1afb 76000000 		.4byte	0x76
 6106 1aff 38       		.uleb128 0x38
 6107 1b00 98050000 		.4byte	.LASF201
 6108 1b04 09       		.byte	0x9
 6109 1b05 2108     		.2byte	0x821
 6110 1b07 F3050000 		.4byte	0x5f3
 6111 1b0b 1C       		.uleb128 0x1c
 6112 1b0c A7000000 		.4byte	0xa7
 6113 1b10 211B0000 		.4byte	0x1b21
 6114 1b14 1D       		.uleb128 0x1d
 6115 1b15 D8000000 		.4byte	0xd8
 6116 1b19 26       		.byte	0x26
 6117 1b1a 1D       		.uleb128 0x1d
 6118 1b1b D8000000 		.4byte	0xd8
 6119 1b1f 31       		.byte	0x31
 6120 1b20 00       		.byte	0
 6121 1b21 3A       		.uleb128 0x3a
 6122 1b22 CB070000 		.4byte	.LASF202
 6123 1b26 01       		.byte	0x1
 6124 1b27 51       		.byte	0x51
 6125 1b28 0B1B0000 		.4byte	0x1b0b
 6126 1b2c 3A       		.uleb128 0x3a
 6127 1b2d 48000000 		.4byte	.LASF203
 6128 1b31 01       		.byte	0x1
 6129 1b32 50       		.byte	0x50
 6130 1b33 371B0000 		.4byte	0x1b37
 6131 1b37 09       		.uleb128 0x9
 6132 1b38 68000000 		.4byte	0x68
 6133 1b3c 1C       		.uleb128 0x1c
 6134 1b3d 98010000 		.4byte	0x198
 6135 1b41 4C1B0000 		.4byte	0x1b4c
 6136 1b45 1D       		.uleb128 0x1d
 6137 1b46 D8000000 		.4byte	0xd8
 6138 1b4a 07       		.byte	0x7
 6139 1b4b 00       		.byte	0
 6140 1b4c 3B       		.uleb128 0x3b
 6141 1b4d C2000000 		.4byte	.LASF204
 6142 1b51 01       		.byte	0x1
 6143 1b52 4A       		.byte	0x4a
 6144 1b53 3C1B0000 		.4byte	0x1b3c
 6145 1b57 05       		.uleb128 0x5
 6146 1b58 03       		.byte	0x3
 6147 1b59 00000000 		.4byte	rects
 6148 1b5d 1C       		.uleb128 0x1c
 6149 1b5e 98010000 		.4byte	0x198
 6150 1b62 6D1B0000 		.4byte	0x1b6d
 6151 1b66 1D       		.uleb128 0x1d
 6152 1b67 D8000000 		.4byte	0xd8
ARM GAS  C:\Users\mark6\AppData\Local\Temp\ccm1Ykfm.s 			page 123


 6153 1b6b 03       		.byte	0x3
 6154 1b6c 00       		.byte	0
 6155 1b6d 3B       		.uleb128 0x3b
 6156 1b6e D50A0000 		.4byte	.LASF205
 6157 1b72 01       		.byte	0x1
 6158 1b73 4B       		.byte	0x4b
 6159 1b74 5D1B0000 		.4byte	0x1b5d
 6160 1b78 05       		.uleb128 0x5
 6161 1b79 03       		.byte	0x3
 6162 1b7a 00000000 		.4byte	dispenser_rects
 6163 1b7e 3B       		.uleb128 0x3b
 6164 1b7f BC030000 		.4byte	.LASF206
 6165 1b83 01       		.byte	0x1
 6166 1b84 4E       		.byte	0x4e
 6167 1b85 C81A0000 		.4byte	0x1ac8
 6168 1b89 05       		.uleb128 0x5
 6169 1b8a 03       		.byte	0x3
 6170 1b8b 00000000 		.4byte	config_data
 6171 1b8f 3B       		.uleb128 0x3b
 6172 1b90 6D050000 		.4byte	.LASF207
 6173 1b94 01       		.byte	0x1
 6174 1b95 53       		.byte	0x53
 6175 1b96 A01B0000 		.4byte	0x1ba0
 6176 1b9a 05       		.uleb128 0x5
 6177 1b9b 03       		.byte	0x3
 6178 1b9c 00000000 		.4byte	drinks
 6179 1ba0 06       		.uleb128 0x6
 6180 1ba1 04       		.byte	0x4
 6181 1ba2 000C0000 		.4byte	0xc00
 6182 1ba6 3B       		.uleb128 0x3b
 6183 1ba7 AB010000 		.4byte	.LASF208
 6184 1bab 01       		.byte	0x1
 6185 1bac 54       		.byte	0x54
 6186 1bad A01B0000 		.4byte	0x1ba0
 6187 1bb1 05       		.uleb128 0x5
 6188 1bb2 03       		.byte	0x3
 6189 1bb3 00000000 		.4byte	menu
 6190 1bb7 1C       		.uleb128 0x1c
 6191 1bb8 68000000 		.4byte	0x68
 6192 1bbc C71B0000 		.4byte	0x1bc7
 6193 1bc0 1D       		.uleb128 0x1d
 6194 1bc1 D8000000 		.4byte	0xd8
 6195 1bc5 07       		.byte	0x7
 6196 1bc6 00       		.byte	0
 6197 1bc7 3B       		.uleb128 0x3b
 6198 1bc8 4A070000 		.4byte	.LASF209
 6199 1bcc 01       		.byte	0x1
 6200 1bcd 55       		.byte	0x55
 6201 1bce B71B0000 		.4byte	0x1bb7
 6202 1bd2 05       		.uleb128 0x5
 6203 1bd3 03       		.byte	0x3
 6204 1bd4 00000000 		.4byte	previous_presses
 6205 1bd8 3B       		.uleb128 0x3b
 6206 1bd9 6B040000 		.4byte	.LASF210
 6207 1bdd 01       		.byte	0x1
 6208 1bde 56       		.byte	0x56
 6209 1bdf B71B0000 		.4byte	0x1bb7
ARM GAS  C:\Users\mark6\AppData\Local\Temp\ccm1Ykfm.s 			page 124


 6210 1be3 05       		.uleb128 0x5
 6211 1be4 03       		.byte	0x3
 6212 1be5 00000000 		.4byte	special_sequence
 6213 1be9 1C       		.uleb128 0x1c
 6214 1bea 68000000 		.4byte	0x68
 6215 1bee F91B0000 		.4byte	0x1bf9
 6216 1bf2 1D       		.uleb128 0x1d
 6217 1bf3 D8000000 		.4byte	0xd8
 6218 1bf7 05       		.byte	0x5
 6219 1bf8 00       		.byte	0
 6220 1bf9 3B       		.uleb128 0x3b
 6221 1bfa 21020000 		.4byte	.LASF211
 6222 1bfe 01       		.byte	0x1
 6223 1bff 57       		.byte	0x57
 6224 1c00 E91B0000 		.4byte	0x1be9
 6225 1c04 05       		.uleb128 0x5
 6226 1c05 03       		.byte	0x3
 6227 1c06 00000000 		.4byte	required_motors
 6228 1c0a 3B       		.uleb128 0x3b
 6229 1c0b 5D0A0000 		.4byte	.LASF212
 6230 1c0f 01       		.byte	0x1
 6231 1c10 58       		.byte	0x58
 6232 1c11 E91B0000 		.4byte	0x1be9
 6233 1c15 05       		.uleb128 0x5
 6234 1c16 03       		.byte	0x3
 6235 1c17 00000000 		.4byte	dispense_amount
 6236 1c1b 3B       		.uleb128 0x3b
 6237 1c1c 37010000 		.4byte	.LASF213
 6238 1c20 01       		.byte	0x1
 6239 1c21 59       		.byte	0x59
 6240 1c22 68000000 		.4byte	0x68
 6241 1c26 05       		.uleb128 0x5
 6242 1c27 03       		.byte	0x3
 6243 1c28 00000000 		.4byte	button_number
 6244 1c2c 3B       		.uleb128 0x3b
 6245 1c2d B4070000 		.4byte	.LASF214
 6246 1c31 01       		.byte	0x1
 6247 1c32 5A       		.byte	0x5a
 6248 1c33 68000000 		.4byte	0x68
 6249 1c37 05       		.uleb128 0x5
 6250 1c38 03       		.byte	0x3
 6251 1c39 00000000 		.4byte	mixie_scroll
 6252 1c3d 3B       		.uleb128 0x3b
 6253 1c3e E4010000 		.4byte	.LASF215
 6254 1c42 01       		.byte	0x1
 6255 1c43 5B       		.byte	0x5b
 6256 1c44 68000000 		.4byte	0x68
 6257 1c48 05       		.uleb128 0x5
 6258 1c49 03       		.byte	0x3
 6259 1c4a 00000000 		.4byte	motor_scroll
 6260 1c4e 3B       		.uleb128 0x3b
 6261 1c4f B5000000 		.4byte	.LASF216
 6262 1c53 01       		.byte	0x1
 6263 1c54 5C       		.byte	0x5c
 6264 1c55 68000000 		.4byte	0x68
 6265 1c59 05       		.uleb128 0x5
 6266 1c5a 03       		.byte	0x3
ARM GAS  C:\Users\mark6\AppData\Local\Temp\ccm1Ykfm.s 			page 125


 6267 1c5b 00000000 		.4byte	drink_scroll
 6268 1c5f 3B       		.uleb128 0x3b
 6269 1c60 A4090000 		.4byte	.LASF217
 6270 1c64 01       		.byte	0x1
 6271 1c65 5D       		.byte	0x5d
 6272 1c66 68000000 		.4byte	0x68
 6273 1c6a 05       		.uleb128 0x5
 6274 1c6b 03       		.byte	0x3
 6275 1c6c 00000000 		.4byte	timer_count
 6276 1c70 3B       		.uleb128 0x3b
 6277 1c71 E7070000 		.4byte	.LASF218
 6278 1c75 01       		.byte	0x1
 6279 1c76 5E       		.byte	0x5e
 6280 1c77 68000000 		.4byte	0x68
 6281 1c7b 05       		.uleb128 0x5
 6282 1c7c 03       		.byte	0x3
 6283 1c7d 00000000 		.4byte	menu_length
 6284 1c81 3B       		.uleb128 0x3b
 6285 1c82 77090000 		.4byte	.LASF219
 6286 1c86 01       		.byte	0x1
 6287 1c87 5F       		.byte	0x5f
 6288 1c88 921C0000 		.4byte	0x1c92
 6289 1c8c 05       		.uleb128 0x5
 6290 1c8d 03       		.byte	0x3
 6291 1c8e 00000000 		.4byte	menu_indices
 6292 1c92 06       		.uleb128 0x6
 6293 1c93 04       		.byte	0x4
 6294 1c94 81000000 		.4byte	0x81
 6295 1c98 3B       		.uleb128 0x3b
 6296 1c99 97030000 		.4byte	.LASF220
 6297 1c9d 01       		.byte	0x1
 6298 1c9e 60       		.byte	0x60
 6299 1c9f C3080000 		.4byte	0x8c3
 6300 1ca3 05       		.uleb128 0x5
 6301 1ca4 03       		.byte	0x3
 6302 1ca5 00000000 		.4byte	current_display
 6303 1ca9 1C       		.uleb128 0x1c
 6304 1caa 25010000 		.4byte	0x125
 6305 1cae B91C0000 		.4byte	0x1cb9
 6306 1cb2 1D       		.uleb128 0x1d
 6307 1cb3 D8000000 		.4byte	0xd8
 6308 1cb7 02       		.byte	0x2
 6309 1cb8 00       		.byte	0
 6310 1cb9 3B       		.uleb128 0x3b
 6311 1cba 87000000 		.4byte	.LASF221
 6312 1cbe 01       		.byte	0x1
 6313 1cbf 63       		.byte	0x63
 6314 1cc0 CA1C0000 		.4byte	0x1cca
 6315 1cc4 05       		.uleb128 0x5
 6316 1cc5 03       		.byte	0x3
 6317 1cc6 00000000 		.4byte	UpArrowPoints
 6318 1cca 09       		.uleb128 0x9
 6319 1ccb A91C0000 		.4byte	0x1ca9
 6320 1ccf 3B       		.uleb128 0x3b
 6321 1cd0 4E050000 		.4byte	.LASF222
 6322 1cd4 01       		.byte	0x1
 6323 1cd5 68       		.byte	0x68
ARM GAS  C:\Users\mark6\AppData\Local\Temp\ccm1Ykfm.s 			page 126


 6324 1cd6 E01C0000 		.4byte	0x1ce0
 6325 1cda 05       		.uleb128 0x5
 6326 1cdb 03       		.byte	0x3
 6327 1cdc 00000000 		.4byte	DownArrowPoints
 6328 1ce0 09       		.uleb128 0x9
 6329 1ce1 A91C0000 		.4byte	0x1ca9
 6330 1ce5 3C       		.uleb128 0x3c
 6331 1ce6 35070000 		.4byte	.LASF223
 6332 1cea 09       		.byte	0x9
 6333 1ceb C101     		.2byte	0x1c1
 6334 1ced F71C0000 		.4byte	0x1cf7
 6335 1cf1 10       		.uleb128 0x10
 6336 1cf2 8D010000 		.4byte	0x18d
 6337 1cf6 00       		.byte	0
 6338 1cf7 3C       		.uleb128 0x3c
 6339 1cf8 03040000 		.4byte	.LASF224
 6340 1cfc 09       		.byte	0x9
 6341 1cfd 0902     		.2byte	0x209
 6342 1cff 181D0000 		.4byte	0x1d18
 6343 1d03 10       		.uleb128 0x10
 6344 1d04 68000000 		.4byte	0x68
 6345 1d08 10       		.uleb128 0x10
 6346 1d09 68000000 		.4byte	0x68
 6347 1d0d 10       		.uleb128 0x10
 6348 1d0e 68000000 		.4byte	0x68
 6349 1d12 10       		.uleb128 0x10
 6350 1d13 68000000 		.4byte	0x68
 6351 1d17 00       		.byte	0
 6352 1d18 3C       		.uleb128 0x3c
 6353 1d19 D9030000 		.4byte	.LASF225
 6354 1d1d 09       		.byte	0x9
 6355 1d1e 0E03     		.2byte	0x30e
 6356 1d20 391D0000 		.4byte	0x1d39
 6357 1d24 10       		.uleb128 0x10
 6358 1d25 E7000000 		.4byte	0xe7
 6359 1d29 10       		.uleb128 0x10
 6360 1d2a C8060000 		.4byte	0x6c8
 6361 1d2e 10       		.uleb128 0x10
 6362 1d2f 68000000 		.4byte	0x68
 6363 1d33 10       		.uleb128 0x10
 6364 1d34 EA060000 		.4byte	0x6ea
 6365 1d38 00       		.byte	0
 6366 1d39 3D       		.uleb128 0x3d
 6367 1d3a C1070000 		.4byte	.LASF231
 6368 1d3e 09       		.byte	0x9
 6369 1d3f F601     		.2byte	0x1f6
 6370 1d41 3C       		.uleb128 0x3c
 6371 1d42 55010000 		.4byte	.LASF226
 6372 1d46 09       		.byte	0x9
 6373 1d47 0503     		.2byte	0x305
 6374 1d49 5D1D0000 		.4byte	0x1d5d
 6375 1d4d 10       		.uleb128 0x10
 6376 1d4e E7000000 		.4byte	0xe7
 6377 1d52 10       		.uleb128 0x10
 6378 1d53 68000000 		.4byte	0x68
 6379 1d57 10       		.uleb128 0x10
 6380 1d58 68000000 		.4byte	0x68
ARM GAS  C:\Users\mark6\AppData\Local\Temp\ccm1Ykfm.s 			page 127


 6381 1d5c 00       		.byte	0
 6382 1d5d 3C       		.uleb128 0x3c
 6383 1d5e 5E050000 		.4byte	.LASF227
 6384 1d62 09       		.byte	0x9
 6385 1d63 1702     		.2byte	0x217
 6386 1d65 791D0000 		.4byte	0x1d79
 6387 1d69 10       		.uleb128 0x10
 6388 1d6a 68000000 		.4byte	0x68
 6389 1d6e 10       		.uleb128 0x10
 6390 1d6f 68000000 		.4byte	0x68
 6391 1d73 10       		.uleb128 0x10
 6392 1d74 68000000 		.4byte	0x68
 6393 1d78 00       		.byte	0
 6394 1d79 3C       		.uleb128 0x3c
 6395 1d7a 69020000 		.4byte	.LASF228
 6396 1d7e 09       		.byte	0x9
 6397 1d7f 1902     		.2byte	0x219
 6398 1d81 9A1D0000 		.4byte	0x1d9a
 6399 1d85 10       		.uleb128 0x10
 6400 1d86 70010000 		.4byte	0x170
 6401 1d8a 10       		.uleb128 0x10
 6402 1d8b 68000000 		.4byte	0x68
 6403 1d8f 10       		.uleb128 0x10
 6404 1d90 68000000 		.4byte	0x68
 6405 1d94 10       		.uleb128 0x10
 6406 1d95 68000000 		.4byte	0x68
 6407 1d99 00       		.byte	0
 6408 1d9a 3E       		.uleb128 0x3e
 6409 1d9b D3060000 		.4byte	.LASF239
 6410 1d9f 09       		.byte	0x9
 6411 1da0 6D01     		.2byte	0x16d
 6412 1da2 68000000 		.4byte	0x68
 6413 1da6 3F       		.uleb128 0x3f
 6414 1da7 87050000 		.4byte	.LASF229
 6415 1dab 09       		.byte	0x9
 6416 1dac 2603     		.2byte	0x326
 6417 1dae 68000000 		.4byte	0x68
 6418 1db2 BC1D0000 		.4byte	0x1dbc
 6419 1db6 10       		.uleb128 0x10
 6420 1db7 68000000 		.4byte	0x68
 6421 1dbb 00       		.byte	0
 6422 1dbc 3F       		.uleb128 0x3f
 6423 1dbd BF0B0000 		.4byte	.LASF230
 6424 1dc1 09       		.byte	0x9
 6425 1dc2 2B03     		.2byte	0x32b
 6426 1dc4 ED050000 		.4byte	0x5ed
 6427 1dc8 D21D0000 		.4byte	0x1dd2
 6428 1dcc 10       		.uleb128 0x10
 6429 1dcd ED050000 		.4byte	0x5ed
 6430 1dd1 00       		.byte	0
 6431 1dd2 40       		.uleb128 0x40
 6432 1dd3 230C0000 		.4byte	.LASF232
 6433 1dd7 0C       		.byte	0xc
 6434 1dd8 53       		.byte	0x53
 6435 1dd9 40       		.uleb128 0x40
 6436 1dda 3F020000 		.4byte	.LASF233
 6437 1dde 0D       		.byte	0xd
ARM GAS  C:\Users\mark6\AppData\Local\Temp\ccm1Ykfm.s 			page 128


 6438 1ddf 29       		.byte	0x29
 6439 1de0 41       		.uleb128 0x41
 6440 1de1 DE040000 		.4byte	.LASF234
 6441 1de5 0E       		.byte	0xe
 6442 1de6 61       		.byte	0x61
 6443 1de7 DF000000 		.4byte	0xdf
 6444 1deb F51D0000 		.4byte	0x1df5
 6445 1def 10       		.uleb128 0x10
 6446 1df0 CD000000 		.4byte	0xcd
 6447 1df4 00       		.byte	0
 6448 1df5 42       		.uleb128 0x42
 6449 1df6 87060000 		.4byte	.LASF235
 6450 1dfa 0A       		.byte	0xa
 6451 1dfb 26       		.byte	0x26
 6452 1dfc A01B0000 		.4byte	0x1ba0
 6453 1e00 061E0000 		.4byte	0x1e06
 6454 1e04 43       		.uleb128 0x43
 6455 1e05 00       		.byte	0
 6456 1e06 44       		.uleb128 0x44
 6457 1e07 480B0000 		.4byte	.LASF236
 6458 1e0b 0F       		.byte	0xf
 6459 1e0c 18       		.byte	0x18
 6460 1e0d 171E0000 		.4byte	0x1e17
 6461 1e11 10       		.uleb128 0x10
 6462 1e12 BA000000 		.4byte	0xba
 6463 1e16 00       		.byte	0
 6464 1e17 44       		.uleb128 0x44
 6465 1e18 060C0000 		.4byte	.LASF237
 6466 1e1c 10       		.byte	0x10
 6467 1e1d 18       		.byte	0x18
 6468 1e1e 281E0000 		.4byte	0x1e28
 6469 1e22 10       		.uleb128 0x10
 6470 1e23 BA000000 		.4byte	0xba
 6471 1e27 00       		.byte	0
 6472 1e28 44       		.uleb128 0x44
 6473 1e29 99080000 		.4byte	.LASF238
 6474 1e2d 11       		.byte	0x11
 6475 1e2e 18       		.byte	0x18
 6476 1e2f 391E0000 		.4byte	0x1e39
 6477 1e33 10       		.uleb128 0x10
 6478 1e34 BA000000 		.4byte	0xba
 6479 1e38 00       		.byte	0
 6480 1e39 45       		.uleb128 0x45
 6481 1e3a 09050000 		.4byte	.LASF240
 6482 1e3e 12       		.byte	0x12
 6483 1e3f 29       		.byte	0x29
 6484 1e40 81000000 		.4byte	0x81
 6485 1e44 44       		.uleb128 0x44
 6486 1e45 22010000 		.4byte	.LASF241
 6487 1e49 12       		.byte	0x12
 6488 1e4a 26       		.byte	0x26
 6489 1e4b 551E0000 		.4byte	0x1e55
 6490 1e4f 10       		.uleb128 0x10
 6491 1e50 81000000 		.4byte	0x81
 6492 1e54 00       		.byte	0
 6493 1e55 45       		.uleb128 0x45
 6494 1e56 E70B0000 		.4byte	.LASF242
ARM GAS  C:\Users\mark6\AppData\Local\Temp\ccm1Ykfm.s 			page 129


 6495 1e5a 13       		.byte	0x13
 6496 1e5b 29       		.byte	0x29
 6497 1e5c 81000000 		.4byte	0x81
 6498 1e60 44       		.uleb128 0x44
 6499 1e61 BF010000 		.4byte	.LASF243
 6500 1e65 13       		.byte	0x13
 6501 1e66 26       		.byte	0x26
 6502 1e67 711E0000 		.4byte	0x1e71
 6503 1e6b 10       		.uleb128 0x10
 6504 1e6c 81000000 		.4byte	0x81
 6505 1e70 00       		.byte	0
 6506 1e71 45       		.uleb128 0x45
 6507 1e72 5B0B0000 		.4byte	.LASF244
 6508 1e76 14       		.byte	0x14
 6509 1e77 29       		.byte	0x29
 6510 1e78 81000000 		.4byte	0x81
 6511 1e7c 44       		.uleb128 0x44
 6512 1e7d 5B020000 		.4byte	.LASF245
 6513 1e81 14       		.byte	0x14
 6514 1e82 26       		.byte	0x26
 6515 1e83 8D1E0000 		.4byte	0x1e8d
 6516 1e87 10       		.uleb128 0x10
 6517 1e88 81000000 		.4byte	0x81
 6518 1e8c 00       		.byte	0
 6519 1e8d 45       		.uleb128 0x45
 6520 1e8e 0C070000 		.4byte	.LASF246
 6521 1e92 15       		.byte	0x15
 6522 1e93 29       		.byte	0x29
 6523 1e94 81000000 		.4byte	0x81
 6524 1e98 44       		.uleb128 0x44
 6525 1e99 54030000 		.4byte	.LASF247
 6526 1e9d 15       		.byte	0x15
 6527 1e9e 26       		.byte	0x26
 6528 1e9f A91E0000 		.4byte	0x1ea9
 6529 1ea3 10       		.uleb128 0x10
 6530 1ea4 81000000 		.4byte	0x81
 6531 1ea8 00       		.byte	0
 6532 1ea9 45       		.uleb128 0x45
 6533 1eaa 9E010000 		.4byte	.LASF248
 6534 1eae 16       		.byte	0x16
 6535 1eaf 29       		.byte	0x29
 6536 1eb0 81000000 		.4byte	0x81
 6537 1eb4 44       		.uleb128 0x44
 6538 1eb5 56040000 		.4byte	.LASF249
 6539 1eb9 16       		.byte	0x16
 6540 1eba 26       		.byte	0x26
 6541 1ebb C51E0000 		.4byte	0x1ec5
 6542 1ebf 10       		.uleb128 0x10
 6543 1ec0 81000000 		.4byte	0x81
 6544 1ec4 00       		.byte	0
 6545 1ec5 45       		.uleb128 0x45
 6546 1ec6 01010000 		.4byte	.LASF250
 6547 1eca 17       		.byte	0x17
 6548 1ecb 29       		.byte	0x29
 6549 1ecc 81000000 		.4byte	0x81
 6550 1ed0 44       		.uleb128 0x44
 6551 1ed1 16050000 		.4byte	.LASF251
ARM GAS  C:\Users\mark6\AppData\Local\Temp\ccm1Ykfm.s 			page 130


 6552 1ed5 17       		.byte	0x17
 6553 1ed6 26       		.byte	0x26
 6554 1ed7 E11E0000 		.4byte	0x1ee1
 6555 1edb 10       		.uleb128 0x10
 6556 1edc 81000000 		.4byte	0x81
 6557 1ee0 00       		.byte	0
 6558 1ee1 44       		.uleb128 0x44
 6559 1ee2 01090000 		.4byte	.LASF252
 6560 1ee6 18       		.byte	0x18
 6561 1ee7 76       		.byte	0x76
 6562 1ee8 F21E0000 		.4byte	0x1ef2
 6563 1eec 10       		.uleb128 0x10
 6564 1eed 8D000000 		.4byte	0x8d
 6565 1ef1 00       		.byte	0
 6566 1ef2 41       		.uleb128 0x41
 6567 1ef3 2D030000 		.4byte	.LASF253
 6568 1ef7 0D       		.byte	0xd
 6569 1ef8 2F       		.byte	0x2f
 6570 1ef9 AE000000 		.4byte	0xae
 6571 1efd 111F0000 		.4byte	0x1f11
 6572 1f01 10       		.uleb128 0x10
 6573 1f02 111F0000 		.4byte	0x1f11
 6574 1f06 10       		.uleb128 0x10
 6575 1f07 111F0000 		.4byte	0x1f11
 6576 1f0b 10       		.uleb128 0x10
 6577 1f0c 8D000000 		.4byte	0x8d
 6578 1f10 00       		.byte	0
 6579 1f11 06       		.uleb128 0x6
 6580 1f12 04       		.byte	0x4
 6581 1f13 171F0000 		.4byte	0x1f17
 6582 1f17 09       		.uleb128 0x9
 6583 1f18 81000000 		.4byte	0x81
 6584 1f1c 00       		.byte	0
 6585              		.section	.debug_abbrev,"",%progbits
 6586              	.Ldebug_abbrev0:
 6587 0000 01       		.uleb128 0x1
 6588 0001 11       		.uleb128 0x11
 6589 0002 01       		.byte	0x1
 6590 0003 25       		.uleb128 0x25
 6591 0004 0E       		.uleb128 0xe
 6592 0005 13       		.uleb128 0x13
 6593 0006 0B       		.uleb128 0xb
 6594 0007 03       		.uleb128 0x3
 6595 0008 0E       		.uleb128 0xe
 6596 0009 1B       		.uleb128 0x1b
 6597 000a 0E       		.uleb128 0xe
 6598 000b 55       		.uleb128 0x55
 6599 000c 17       		.uleb128 0x17
 6600 000d 11       		.uleb128 0x11
 6601 000e 01       		.uleb128 0x1
 6602 000f 10       		.uleb128 0x10
 6603 0010 17       		.uleb128 0x17
 6604 0011 00       		.byte	0
 6605 0012 00       		.byte	0
 6606 0013 02       		.uleb128 0x2
 6607 0014 24       		.uleb128 0x24
 6608 0015 00       		.byte	0
ARM GAS  C:\Users\mark6\AppData\Local\Temp\ccm1Ykfm.s 			page 131


 6609 0016 0B       		.uleb128 0xb
 6610 0017 0B       		.uleb128 0xb
 6611 0018 3E       		.uleb128 0x3e
 6612 0019 0B       		.uleb128 0xb
 6613 001a 03       		.uleb128 0x3
 6614 001b 0E       		.uleb128 0xe
 6615 001c 00       		.byte	0
 6616 001d 00       		.byte	0
 6617 001e 03       		.uleb128 0x3
 6618 001f 16       		.uleb128 0x16
 6619 0020 00       		.byte	0
 6620 0021 03       		.uleb128 0x3
 6621 0022 0E       		.uleb128 0xe
 6622 0023 3A       		.uleb128 0x3a
 6623 0024 0B       		.uleb128 0xb
 6624 0025 3B       		.uleb128 0x3b
 6625 0026 0B       		.uleb128 0xb
 6626 0027 49       		.uleb128 0x49
 6627 0028 13       		.uleb128 0x13
 6628 0029 00       		.byte	0
 6629 002a 00       		.byte	0
 6630 002b 04       		.uleb128 0x4
 6631 002c 24       		.uleb128 0x24
 6632 002d 00       		.byte	0
 6633 002e 0B       		.uleb128 0xb
 6634 002f 0B       		.uleb128 0xb
 6635 0030 3E       		.uleb128 0x3e
 6636 0031 0B       		.uleb128 0xb
 6637 0032 03       		.uleb128 0x3
 6638 0033 08       		.uleb128 0x8
 6639 0034 00       		.byte	0
 6640 0035 00       		.byte	0
 6641 0036 05       		.uleb128 0x5
 6642 0037 16       		.uleb128 0x16
 6643 0038 00       		.byte	0
 6644 0039 03       		.uleb128 0x3
 6645 003a 0E       		.uleb128 0xe
 6646 003b 3A       		.uleb128 0x3a
 6647 003c 0B       		.uleb128 0xb
 6648 003d 3B       		.uleb128 0x3b
 6649 003e 05       		.uleb128 0x5
 6650 003f 49       		.uleb128 0x49
 6651 0040 13       		.uleb128 0x13
 6652 0041 00       		.byte	0
 6653 0042 00       		.byte	0
 6654 0043 06       		.uleb128 0x6
 6655 0044 0F       		.uleb128 0xf
 6656 0045 00       		.byte	0
 6657 0046 0B       		.uleb128 0xb
 6658 0047 0B       		.uleb128 0xb
 6659 0048 49       		.uleb128 0x49
 6660 0049 13       		.uleb128 0x13
 6661 004a 00       		.byte	0
 6662 004b 00       		.byte	0
 6663 004c 07       		.uleb128 0x7
 6664 004d 15       		.uleb128 0x15
 6665 004e 00       		.byte	0
ARM GAS  C:\Users\mark6\AppData\Local\Temp\ccm1Ykfm.s 			page 132


 6666 004f 27       		.uleb128 0x27
 6667 0050 19       		.uleb128 0x19
 6668 0051 00       		.byte	0
 6669 0052 00       		.byte	0
 6670 0053 08       		.uleb128 0x8
 6671 0054 0F       		.uleb128 0xf
 6672 0055 00       		.byte	0
 6673 0056 0B       		.uleb128 0xb
 6674 0057 0B       		.uleb128 0xb
 6675 0058 00       		.byte	0
 6676 0059 00       		.byte	0
 6677 005a 09       		.uleb128 0x9
 6678 005b 26       		.uleb128 0x26
 6679 005c 00       		.byte	0
 6680 005d 49       		.uleb128 0x49
 6681 005e 13       		.uleb128 0x13
 6682 005f 00       		.byte	0
 6683 0060 00       		.byte	0
 6684 0061 0A       		.uleb128 0xa
 6685 0062 13       		.uleb128 0x13
 6686 0063 01       		.byte	0x1
 6687 0064 0B       		.uleb128 0xb
 6688 0065 0B       		.uleb128 0xb
 6689 0066 3A       		.uleb128 0x3a
 6690 0067 0B       		.uleb128 0xb
 6691 0068 3B       		.uleb128 0x3b
 6692 0069 0B       		.uleb128 0xb
 6693 006a 01       		.uleb128 0x1
 6694 006b 13       		.uleb128 0x13
 6695 006c 00       		.byte	0
 6696 006d 00       		.byte	0
 6697 006e 0B       		.uleb128 0xb
 6698 006f 0D       		.uleb128 0xd
 6699 0070 00       		.byte	0
 6700 0071 03       		.uleb128 0x3
 6701 0072 08       		.uleb128 0x8
 6702 0073 3A       		.uleb128 0x3a
 6703 0074 0B       		.uleb128 0xb
 6704 0075 3B       		.uleb128 0x3b
 6705 0076 0B       		.uleb128 0xb
 6706 0077 49       		.uleb128 0x49
 6707 0078 13       		.uleb128 0x13
 6708 0079 38       		.uleb128 0x38
 6709 007a 0B       		.uleb128 0xb
 6710 007b 00       		.byte	0
 6711 007c 00       		.byte	0
 6712 007d 0C       		.uleb128 0xc
 6713 007e 26       		.uleb128 0x26
 6714 007f 00       		.byte	0
 6715 0080 00       		.byte	0
 6716 0081 00       		.byte	0
 6717 0082 0D       		.uleb128 0xd
 6718 0083 0D       		.uleb128 0xd
 6719 0084 00       		.byte	0
 6720 0085 03       		.uleb128 0x3
 6721 0086 0E       		.uleb128 0xe
 6722 0087 3A       		.uleb128 0x3a
ARM GAS  C:\Users\mark6\AppData\Local\Temp\ccm1Ykfm.s 			page 133


 6723 0088 0B       		.uleb128 0xb
 6724 0089 3B       		.uleb128 0x3b
 6725 008a 0B       		.uleb128 0xb
 6726 008b 49       		.uleb128 0x49
 6727 008c 13       		.uleb128 0x13
 6728 008d 38       		.uleb128 0x38
 6729 008e 0B       		.uleb128 0xb
 6730 008f 00       		.byte	0
 6731 0090 00       		.byte	0
 6732 0091 0E       		.uleb128 0xe
 6733 0092 13       		.uleb128 0x13
 6734 0093 01       		.byte	0x1
 6735 0094 03       		.uleb128 0x3
 6736 0095 0E       		.uleb128 0xe
 6737 0096 0B       		.uleb128 0xb
 6738 0097 0B       		.uleb128 0xb
 6739 0098 3A       		.uleb128 0x3a
 6740 0099 0B       		.uleb128 0xb
 6741 009a 3B       		.uleb128 0x3b
 6742 009b 0B       		.uleb128 0xb
 6743 009c 01       		.uleb128 0x1
 6744 009d 13       		.uleb128 0x13
 6745 009e 00       		.byte	0
 6746 009f 00       		.byte	0
 6747 00a0 0F       		.uleb128 0xf
 6748 00a1 15       		.uleb128 0x15
 6749 00a2 01       		.byte	0x1
 6750 00a3 27       		.uleb128 0x27
 6751 00a4 19       		.uleb128 0x19
 6752 00a5 49       		.uleb128 0x49
 6753 00a6 13       		.uleb128 0x13
 6754 00a7 01       		.uleb128 0x1
 6755 00a8 13       		.uleb128 0x13
 6756 00a9 00       		.byte	0
 6757 00aa 00       		.byte	0
 6758 00ab 10       		.uleb128 0x10
 6759 00ac 05       		.uleb128 0x5
 6760 00ad 00       		.byte	0
 6761 00ae 49       		.uleb128 0x49
 6762 00af 13       		.uleb128 0x13
 6763 00b0 00       		.byte	0
 6764 00b1 00       		.byte	0
 6765 00b2 11       		.uleb128 0x11
 6766 00b3 15       		.uleb128 0x15
 6767 00b4 01       		.byte	0x1
 6768 00b5 27       		.uleb128 0x27
 6769 00b6 19       		.uleb128 0x19
 6770 00b7 01       		.uleb128 0x1
 6771 00b8 13       		.uleb128 0x13
 6772 00b9 00       		.byte	0
 6773 00ba 00       		.byte	0
 6774 00bb 12       		.uleb128 0x12
 6775 00bc 13       		.uleb128 0x13
 6776 00bd 01       		.byte	0x1
 6777 00be 0B       		.uleb128 0xb
 6778 00bf 0B       		.uleb128 0xb
 6779 00c0 3A       		.uleb128 0x3a
ARM GAS  C:\Users\mark6\AppData\Local\Temp\ccm1Ykfm.s 			page 134


 6780 00c1 0B       		.uleb128 0xb
 6781 00c2 3B       		.uleb128 0x3b
 6782 00c3 05       		.uleb128 0x5
 6783 00c4 01       		.uleb128 0x1
 6784 00c5 13       		.uleb128 0x13
 6785 00c6 00       		.byte	0
 6786 00c7 00       		.byte	0
 6787 00c8 13       		.uleb128 0x13
 6788 00c9 0D       		.uleb128 0xd
 6789 00ca 00       		.byte	0
 6790 00cb 03       		.uleb128 0x3
 6791 00cc 0E       		.uleb128 0xe
 6792 00cd 3A       		.uleb128 0x3a
 6793 00ce 0B       		.uleb128 0xb
 6794 00cf 3B       		.uleb128 0x3b
 6795 00d0 05       		.uleb128 0x5
 6796 00d1 49       		.uleb128 0x49
 6797 00d2 13       		.uleb128 0x13
 6798 00d3 38       		.uleb128 0x38
 6799 00d4 0B       		.uleb128 0xb
 6800 00d5 00       		.byte	0
 6801 00d6 00       		.byte	0
 6802 00d7 14       		.uleb128 0x14
 6803 00d8 13       		.uleb128 0x13
 6804 00d9 01       		.byte	0x1
 6805 00da 03       		.uleb128 0x3
 6806 00db 0E       		.uleb128 0xe
 6807 00dc 0B       		.uleb128 0xb
 6808 00dd 0B       		.uleb128 0xb
 6809 00de 3A       		.uleb128 0x3a
 6810 00df 0B       		.uleb128 0xb
 6811 00e0 3B       		.uleb128 0x3b
 6812 00e1 05       		.uleb128 0x5
 6813 00e2 01       		.uleb128 0x1
 6814 00e3 13       		.uleb128 0x13
 6815 00e4 00       		.byte	0
 6816 00e5 00       		.byte	0
 6817 00e6 15       		.uleb128 0x15
 6818 00e7 0D       		.uleb128 0xd
 6819 00e8 00       		.byte	0
 6820 00e9 03       		.uleb128 0x3
 6821 00ea 08       		.uleb128 0x8
 6822 00eb 3A       		.uleb128 0x3a
 6823 00ec 0B       		.uleb128 0xb
 6824 00ed 3B       		.uleb128 0x3b
 6825 00ee 05       		.uleb128 0x5
 6826 00ef 49       		.uleb128 0x49
 6827 00f0 13       		.uleb128 0x13
 6828 00f1 38       		.uleb128 0x38
 6829 00f2 0B       		.uleb128 0xb
 6830 00f3 00       		.byte	0
 6831 00f4 00       		.byte	0
 6832 00f5 16       		.uleb128 0x16
 6833 00f6 17       		.uleb128 0x17
 6834 00f7 01       		.byte	0x1
 6835 00f8 0B       		.uleb128 0xb
 6836 00f9 0B       		.uleb128 0xb
ARM GAS  C:\Users\mark6\AppData\Local\Temp\ccm1Ykfm.s 			page 135


 6837 00fa 3A       		.uleb128 0x3a
 6838 00fb 0B       		.uleb128 0xb
 6839 00fc 3B       		.uleb128 0x3b
 6840 00fd 05       		.uleb128 0x5
 6841 00fe 01       		.uleb128 0x1
 6842 00ff 13       		.uleb128 0x13
 6843 0100 00       		.byte	0
 6844 0101 00       		.byte	0
 6845 0102 17       		.uleb128 0x17
 6846 0103 0D       		.uleb128 0xd
 6847 0104 00       		.byte	0
 6848 0105 03       		.uleb128 0x3
 6849 0106 0E       		.uleb128 0xe
 6850 0107 3A       		.uleb128 0x3a
 6851 0108 0B       		.uleb128 0xb
 6852 0109 3B       		.uleb128 0x3b
 6853 010a 05       		.uleb128 0x5
 6854 010b 49       		.uleb128 0x49
 6855 010c 13       		.uleb128 0x13
 6856 010d 00       		.byte	0
 6857 010e 00       		.byte	0
 6858 010f 18       		.uleb128 0x18
 6859 0110 04       		.uleb128 0x4
 6860 0111 01       		.byte	0x1
 6861 0112 0B       		.uleb128 0xb
 6862 0113 0B       		.uleb128 0xb
 6863 0114 3A       		.uleb128 0x3a
 6864 0115 0B       		.uleb128 0xb
 6865 0116 3B       		.uleb128 0x3b
 6866 0117 05       		.uleb128 0x5
 6867 0118 01       		.uleb128 0x1
 6868 0119 13       		.uleb128 0x13
 6869 011a 00       		.byte	0
 6870 011b 00       		.byte	0
 6871 011c 19       		.uleb128 0x19
 6872 011d 28       		.uleb128 0x28
 6873 011e 00       		.byte	0
 6874 011f 03       		.uleb128 0x3
 6875 0120 0E       		.uleb128 0xe
 6876 0121 1C       		.uleb128 0x1c
 6877 0122 0D       		.uleb128 0xd
 6878 0123 00       		.byte	0
 6879 0124 00       		.byte	0
 6880 0125 1A       		.uleb128 0x1a
 6881 0126 04       		.uleb128 0x4
 6882 0127 01       		.byte	0x1
 6883 0128 03       		.uleb128 0x3
 6884 0129 0E       		.uleb128 0xe
 6885 012a 0B       		.uleb128 0xb
 6886 012b 0B       		.uleb128 0xb
 6887 012c 3A       		.uleb128 0x3a
 6888 012d 0B       		.uleb128 0xb
 6889 012e 3B       		.uleb128 0x3b
 6890 012f 0B       		.uleb128 0xb
 6891 0130 01       		.uleb128 0x1
 6892 0131 13       		.uleb128 0x13
 6893 0132 00       		.byte	0
ARM GAS  C:\Users\mark6\AppData\Local\Temp\ccm1Ykfm.s 			page 136


 6894 0133 00       		.byte	0
 6895 0134 1B       		.uleb128 0x1b
 6896 0135 28       		.uleb128 0x28
 6897 0136 00       		.byte	0
 6898 0137 03       		.uleb128 0x3
 6899 0138 08       		.uleb128 0x8
 6900 0139 1C       		.uleb128 0x1c
 6901 013a 0D       		.uleb128 0xd
 6902 013b 00       		.byte	0
 6903 013c 00       		.byte	0
 6904 013d 1C       		.uleb128 0x1c
 6905 013e 01       		.uleb128 0x1
 6906 013f 01       		.byte	0x1
 6907 0140 49       		.uleb128 0x49
 6908 0141 13       		.uleb128 0x13
 6909 0142 01       		.uleb128 0x1
 6910 0143 13       		.uleb128 0x13
 6911 0144 00       		.byte	0
 6912 0145 00       		.byte	0
 6913 0146 1D       		.uleb128 0x1d
 6914 0147 21       		.uleb128 0x21
 6915 0148 00       		.byte	0
 6916 0149 49       		.uleb128 0x49
 6917 014a 13       		.uleb128 0x13
 6918 014b 2F       		.uleb128 0x2f
 6919 014c 0B       		.uleb128 0xb
 6920 014d 00       		.byte	0
 6921 014e 00       		.byte	0
 6922 014f 1E       		.uleb128 0x1e
 6923 0150 2E       		.uleb128 0x2e
 6924 0151 01       		.byte	0x1
 6925 0152 3F       		.uleb128 0x3f
 6926 0153 19       		.uleb128 0x19
 6927 0154 03       		.uleb128 0x3
 6928 0155 0E       		.uleb128 0xe
 6929 0156 3A       		.uleb128 0x3a
 6930 0157 0B       		.uleb128 0xb
 6931 0158 3B       		.uleb128 0x3b
 6932 0159 0B       		.uleb128 0xb
 6933 015a 27       		.uleb128 0x27
 6934 015b 19       		.uleb128 0x19
 6935 015c 11       		.uleb128 0x11
 6936 015d 01       		.uleb128 0x1
 6937 015e 12       		.uleb128 0x12
 6938 015f 06       		.uleb128 0x6
 6939 0160 40       		.uleb128 0x40
 6940 0161 18       		.uleb128 0x18
 6941 0162 9742     		.uleb128 0x2117
 6942 0164 19       		.uleb128 0x19
 6943 0165 01       		.uleb128 0x1
 6944 0166 13       		.uleb128 0x13
 6945 0167 00       		.byte	0
 6946 0168 00       		.byte	0
 6947 0169 1F       		.uleb128 0x1f
 6948 016a 05       		.uleb128 0x5
 6949 016b 00       		.byte	0
 6950 016c 03       		.uleb128 0x3
ARM GAS  C:\Users\mark6\AppData\Local\Temp\ccm1Ykfm.s 			page 137


 6951 016d 0E       		.uleb128 0xe
 6952 016e 3A       		.uleb128 0x3a
 6953 016f 0B       		.uleb128 0xb
 6954 0170 3B       		.uleb128 0x3b
 6955 0171 0B       		.uleb128 0xb
 6956 0172 49       		.uleb128 0x49
 6957 0173 13       		.uleb128 0x13
 6958 0174 02       		.uleb128 0x2
 6959 0175 18       		.uleb128 0x18
 6960 0176 00       		.byte	0
 6961 0177 00       		.byte	0
 6962 0178 20       		.uleb128 0x20
 6963 0179 05       		.uleb128 0x5
 6964 017a 00       		.byte	0
 6965 017b 03       		.uleb128 0x3
 6966 017c 0E       		.uleb128 0xe
 6967 017d 3A       		.uleb128 0x3a
 6968 017e 0B       		.uleb128 0xb
 6969 017f 3B       		.uleb128 0x3b
 6970 0180 0B       		.uleb128 0xb
 6971 0181 49       		.uleb128 0x49
 6972 0182 13       		.uleb128 0x13
 6973 0183 02       		.uleb128 0x2
 6974 0184 17       		.uleb128 0x17
 6975 0185 00       		.byte	0
 6976 0186 00       		.byte	0
 6977 0187 21       		.uleb128 0x21
 6978 0188 34       		.uleb128 0x34
 6979 0189 00       		.byte	0
 6980 018a 03       		.uleb128 0x3
 6981 018b 08       		.uleb128 0x8
 6982 018c 3A       		.uleb128 0x3a
 6983 018d 0B       		.uleb128 0xb
 6984 018e 3B       		.uleb128 0x3b
 6985 018f 0B       		.uleb128 0xb
 6986 0190 49       		.uleb128 0x49
 6987 0191 13       		.uleb128 0x13
 6988 0192 02       		.uleb128 0x2
 6989 0193 17       		.uleb128 0x17
 6990 0194 00       		.byte	0
 6991 0195 00       		.byte	0
 6992 0196 22       		.uleb128 0x22
 6993 0197 2E       		.uleb128 0x2e
 6994 0198 01       		.byte	0x1
 6995 0199 3F       		.uleb128 0x3f
 6996 019a 19       		.uleb128 0x19
 6997 019b 03       		.uleb128 0x3
 6998 019c 0E       		.uleb128 0xe
 6999 019d 3A       		.uleb128 0x3a
 7000 019e 0B       		.uleb128 0xb
 7001 019f 3B       		.uleb128 0x3b
 7002 01a0 0B       		.uleb128 0xb
 7003 01a1 27       		.uleb128 0x27
 7004 01a2 19       		.uleb128 0x19
 7005 01a3 49       		.uleb128 0x49
 7006 01a4 13       		.uleb128 0x13
 7007 01a5 11       		.uleb128 0x11
ARM GAS  C:\Users\mark6\AppData\Local\Temp\ccm1Ykfm.s 			page 138


 7008 01a6 01       		.uleb128 0x1
 7009 01a7 12       		.uleb128 0x12
 7010 01a8 06       		.uleb128 0x6
 7011 01a9 40       		.uleb128 0x40
 7012 01aa 18       		.uleb128 0x18
 7013 01ab 9742     		.uleb128 0x2117
 7014 01ad 19       		.uleb128 0x19
 7015 01ae 01       		.uleb128 0x1
 7016 01af 13       		.uleb128 0x13
 7017 01b0 00       		.byte	0
 7018 01b1 00       		.byte	0
 7019 01b2 23       		.uleb128 0x23
 7020 01b3 2E       		.uleb128 0x2e
 7021 01b4 01       		.byte	0x1
 7022 01b5 3F       		.uleb128 0x3f
 7023 01b6 19       		.uleb128 0x19
 7024 01b7 03       		.uleb128 0x3
 7025 01b8 0E       		.uleb128 0xe
 7026 01b9 3A       		.uleb128 0x3a
 7027 01ba 0B       		.uleb128 0xb
 7028 01bb 3B       		.uleb128 0x3b
 7029 01bc 05       		.uleb128 0x5
 7030 01bd 27       		.uleb128 0x27
 7031 01be 19       		.uleb128 0x19
 7032 01bf 11       		.uleb128 0x11
 7033 01c0 01       		.uleb128 0x1
 7034 01c1 12       		.uleb128 0x12
 7035 01c2 06       		.uleb128 0x6
 7036 01c3 40       		.uleb128 0x40
 7037 01c4 18       		.uleb128 0x18
 7038 01c5 9742     		.uleb128 0x2117
 7039 01c7 19       		.uleb128 0x19
 7040 01c8 01       		.uleb128 0x1
 7041 01c9 13       		.uleb128 0x13
 7042 01ca 00       		.byte	0
 7043 01cb 00       		.byte	0
 7044 01cc 24       		.uleb128 0x24
 7045 01cd 05       		.uleb128 0x5
 7046 01ce 00       		.byte	0
 7047 01cf 03       		.uleb128 0x3
 7048 01d0 0E       		.uleb128 0xe
 7049 01d1 3A       		.uleb128 0x3a
 7050 01d2 0B       		.uleb128 0xb
 7051 01d3 3B       		.uleb128 0x3b
 7052 01d4 05       		.uleb128 0x5
 7053 01d5 49       		.uleb128 0x49
 7054 01d6 13       		.uleb128 0x13
 7055 01d7 02       		.uleb128 0x2
 7056 01d8 17       		.uleb128 0x17
 7057 01d9 00       		.byte	0
 7058 01da 00       		.byte	0
 7059 01db 25       		.uleb128 0x25
 7060 01dc 34       		.uleb128 0x34
 7061 01dd 00       		.byte	0
 7062 01de 03       		.uleb128 0x3
 7063 01df 0E       		.uleb128 0xe
 7064 01e0 3A       		.uleb128 0x3a
ARM GAS  C:\Users\mark6\AppData\Local\Temp\ccm1Ykfm.s 			page 139


 7065 01e1 0B       		.uleb128 0xb
 7066 01e2 3B       		.uleb128 0x3b
 7067 01e3 05       		.uleb128 0x5
 7068 01e4 49       		.uleb128 0x49
 7069 01e5 13       		.uleb128 0x13
 7070 01e6 02       		.uleb128 0x2
 7071 01e7 18       		.uleb128 0x18
 7072 01e8 00       		.byte	0
 7073 01e9 00       		.byte	0
 7074 01ea 26       		.uleb128 0x26
 7075 01eb 898201   		.uleb128 0x4109
 7076 01ee 01       		.byte	0x1
 7077 01ef 11       		.uleb128 0x11
 7078 01f0 01       		.uleb128 0x1
 7079 01f1 31       		.uleb128 0x31
 7080 01f2 13       		.uleb128 0x13
 7081 01f3 01       		.uleb128 0x1
 7082 01f4 13       		.uleb128 0x13
 7083 01f5 00       		.byte	0
 7084 01f6 00       		.byte	0
 7085 01f7 27       		.uleb128 0x27
 7086 01f8 8A8201   		.uleb128 0x410a
 7087 01fb 00       		.byte	0
 7088 01fc 02       		.uleb128 0x2
 7089 01fd 18       		.uleb128 0x18
 7090 01fe 9142     		.uleb128 0x2111
 7091 0200 18       		.uleb128 0x18
 7092 0201 00       		.byte	0
 7093 0202 00       		.byte	0
 7094 0203 28       		.uleb128 0x28
 7095 0204 898201   		.uleb128 0x4109
 7096 0207 00       		.byte	0
 7097 0208 11       		.uleb128 0x11
 7098 0209 01       		.uleb128 0x1
 7099 020a 31       		.uleb128 0x31
 7100 020b 13       		.uleb128 0x13
 7101 020c 00       		.byte	0
 7102 020d 00       		.byte	0
 7103 020e 29       		.uleb128 0x29
 7104 020f 898201   		.uleb128 0x4109
 7105 0212 01       		.byte	0x1
 7106 0213 11       		.uleb128 0x11
 7107 0214 01       		.uleb128 0x1
 7108 0215 31       		.uleb128 0x31
 7109 0216 13       		.uleb128 0x13
 7110 0217 00       		.byte	0
 7111 0218 00       		.byte	0
 7112 0219 2A       		.uleb128 0x2a
 7113 021a 2E       		.uleb128 0x2e
 7114 021b 01       		.byte	0x1
 7115 021c 3F       		.uleb128 0x3f
 7116 021d 19       		.uleb128 0x19
 7117 021e 03       		.uleb128 0x3
 7118 021f 0E       		.uleb128 0xe
 7119 0220 3A       		.uleb128 0x3a
 7120 0221 0B       		.uleb128 0xb
 7121 0222 3B       		.uleb128 0x3b
ARM GAS  C:\Users\mark6\AppData\Local\Temp\ccm1Ykfm.s 			page 140


 7122 0223 05       		.uleb128 0x5
 7123 0224 11       		.uleb128 0x11
 7124 0225 01       		.uleb128 0x1
 7125 0226 12       		.uleb128 0x12
 7126 0227 06       		.uleb128 0x6
 7127 0228 40       		.uleb128 0x40
 7128 0229 18       		.uleb128 0x18
 7129 022a 9742     		.uleb128 0x2117
 7130 022c 19       		.uleb128 0x19
 7131 022d 01       		.uleb128 0x1
 7132 022e 13       		.uleb128 0x13
 7133 022f 00       		.byte	0
 7134 0230 00       		.byte	0
 7135 0231 2B       		.uleb128 0x2b
 7136 0232 2E       		.uleb128 0x2e
 7137 0233 01       		.byte	0x1
 7138 0234 3F       		.uleb128 0x3f
 7139 0235 19       		.uleb128 0x19
 7140 0236 03       		.uleb128 0x3
 7141 0237 0E       		.uleb128 0xe
 7142 0238 3A       		.uleb128 0x3a
 7143 0239 0B       		.uleb128 0xb
 7144 023a 3B       		.uleb128 0x3b
 7145 023b 05       		.uleb128 0x5
 7146 023c 27       		.uleb128 0x27
 7147 023d 19       		.uleb128 0x19
 7148 023e 49       		.uleb128 0x49
 7149 023f 13       		.uleb128 0x13
 7150 0240 11       		.uleb128 0x11
 7151 0241 01       		.uleb128 0x1
 7152 0242 12       		.uleb128 0x12
 7153 0243 06       		.uleb128 0x6
 7154 0244 40       		.uleb128 0x40
 7155 0245 18       		.uleb128 0x18
 7156 0246 9742     		.uleb128 0x2117
 7157 0248 19       		.uleb128 0x19
 7158 0249 01       		.uleb128 0x1
 7159 024a 13       		.uleb128 0x13
 7160 024b 00       		.byte	0
 7161 024c 00       		.byte	0
 7162 024d 2C       		.uleb128 0x2c
 7163 024e 34       		.uleb128 0x34
 7164 024f 00       		.byte	0
 7165 0250 03       		.uleb128 0x3
 7166 0251 0E       		.uleb128 0xe
 7167 0252 3A       		.uleb128 0x3a
 7168 0253 0B       		.uleb128 0xb
 7169 0254 3B       		.uleb128 0x3b
 7170 0255 05       		.uleb128 0x5
 7171 0256 49       		.uleb128 0x49
 7172 0257 13       		.uleb128 0x13
 7173 0258 02       		.uleb128 0x2
 7174 0259 17       		.uleb128 0x17
 7175 025a 00       		.byte	0
 7176 025b 00       		.byte	0
 7177 025c 2D       		.uleb128 0x2d
 7178 025d 34       		.uleb128 0x34
ARM GAS  C:\Users\mark6\AppData\Local\Temp\ccm1Ykfm.s 			page 141


 7179 025e 00       		.byte	0
 7180 025f 03       		.uleb128 0x3
 7181 0260 08       		.uleb128 0x8
 7182 0261 3A       		.uleb128 0x3a
 7183 0262 0B       		.uleb128 0xb
 7184 0263 3B       		.uleb128 0x3b
 7185 0264 05       		.uleb128 0x5
 7186 0265 49       		.uleb128 0x49
 7187 0266 13       		.uleb128 0x13
 7188 0267 02       		.uleb128 0x2
 7189 0268 17       		.uleb128 0x17
 7190 0269 00       		.byte	0
 7191 026a 00       		.byte	0
 7192 026b 2E       		.uleb128 0x2e
 7193 026c 0B       		.uleb128 0xb
 7194 026d 01       		.byte	0x1
 7195 026e 11       		.uleb128 0x11
 7196 026f 01       		.uleb128 0x1
 7197 0270 12       		.uleb128 0x12
 7198 0271 06       		.uleb128 0x6
 7199 0272 01       		.uleb128 0x1
 7200 0273 13       		.uleb128 0x13
 7201 0274 00       		.byte	0
 7202 0275 00       		.byte	0
 7203 0276 2F       		.uleb128 0x2f
 7204 0277 0B       		.uleb128 0xb
 7205 0278 01       		.byte	0x1
 7206 0279 11       		.uleb128 0x11
 7207 027a 01       		.uleb128 0x1
 7208 027b 12       		.uleb128 0x12
 7209 027c 06       		.uleb128 0x6
 7210 027d 00       		.byte	0
 7211 027e 00       		.byte	0
 7212 027f 30       		.uleb128 0x30
 7213 0280 34       		.uleb128 0x34
 7214 0281 00       		.byte	0
 7215 0282 03       		.uleb128 0x3
 7216 0283 0E       		.uleb128 0xe
 7217 0284 3A       		.uleb128 0x3a
 7218 0285 0B       		.uleb128 0xb
 7219 0286 3B       		.uleb128 0x3b
 7220 0287 05       		.uleb128 0x5
 7221 0288 49       		.uleb128 0x49
 7222 0289 13       		.uleb128 0x13
 7223 028a 1C       		.uleb128 0x1c
 7224 028b 0B       		.uleb128 0xb
 7225 028c 00       		.byte	0
 7226 028d 00       		.byte	0
 7227 028e 31       		.uleb128 0x31
 7228 028f 05       		.uleb128 0x5
 7229 0290 00       		.byte	0
 7230 0291 03       		.uleb128 0x3
 7231 0292 08       		.uleb128 0x8
 7232 0293 3A       		.uleb128 0x3a
 7233 0294 0B       		.uleb128 0xb
 7234 0295 3B       		.uleb128 0x3b
 7235 0296 05       		.uleb128 0x5
ARM GAS  C:\Users\mark6\AppData\Local\Temp\ccm1Ykfm.s 			page 142


 7236 0297 49       		.uleb128 0x49
 7237 0298 13       		.uleb128 0x13
 7238 0299 02       		.uleb128 0x2
 7239 029a 17       		.uleb128 0x17
 7240 029b 00       		.byte	0
 7241 029c 00       		.byte	0
 7242 029d 32       		.uleb128 0x32
 7243 029e 05       		.uleb128 0x5
 7244 029f 00       		.byte	0
 7245 02a0 03       		.uleb128 0x3
 7246 02a1 0E       		.uleb128 0xe
 7247 02a2 3A       		.uleb128 0x3a
 7248 02a3 0B       		.uleb128 0xb
 7249 02a4 3B       		.uleb128 0x3b
 7250 02a5 05       		.uleb128 0x5
 7251 02a6 49       		.uleb128 0x49
 7252 02a7 13       		.uleb128 0x13
 7253 02a8 02       		.uleb128 0x2
 7254 02a9 18       		.uleb128 0x18
 7255 02aa 00       		.byte	0
 7256 02ab 00       		.byte	0
 7257 02ac 33       		.uleb128 0x33
 7258 02ad 2E       		.uleb128 0x2e
 7259 02ae 01       		.byte	0x1
 7260 02af 3F       		.uleb128 0x3f
 7261 02b0 19       		.uleb128 0x19
 7262 02b1 03       		.uleb128 0x3
 7263 02b2 0E       		.uleb128 0xe
 7264 02b3 3A       		.uleb128 0x3a
 7265 02b4 0B       		.uleb128 0xb
 7266 02b5 3B       		.uleb128 0x3b
 7267 02b6 0B       		.uleb128 0xb
 7268 02b7 49       		.uleb128 0x49
 7269 02b8 13       		.uleb128 0x13
 7270 02b9 11       		.uleb128 0x11
 7271 02ba 01       		.uleb128 0x1
 7272 02bb 12       		.uleb128 0x12
 7273 02bc 06       		.uleb128 0x6
 7274 02bd 40       		.uleb128 0x40
 7275 02be 18       		.uleb128 0x18
 7276 02bf 9742     		.uleb128 0x2117
 7277 02c1 19       		.uleb128 0x19
 7278 02c2 01       		.uleb128 0x1
 7279 02c3 13       		.uleb128 0x13
 7280 02c4 00       		.byte	0
 7281 02c5 00       		.byte	0
 7282 02c6 34       		.uleb128 0x34
 7283 02c7 34       		.uleb128 0x34
 7284 02c8 00       		.byte	0
 7285 02c9 03       		.uleb128 0x3
 7286 02ca 0E       		.uleb128 0xe
 7287 02cb 3A       		.uleb128 0x3a
 7288 02cc 0B       		.uleb128 0xb
 7289 02cd 3B       		.uleb128 0x3b
 7290 02ce 0B       		.uleb128 0xb
 7291 02cf 49       		.uleb128 0x49
 7292 02d0 13       		.uleb128 0x13
ARM GAS  C:\Users\mark6\AppData\Local\Temp\ccm1Ykfm.s 			page 143


 7293 02d1 02       		.uleb128 0x2
 7294 02d2 17       		.uleb128 0x17
 7295 02d3 00       		.byte	0
 7296 02d4 00       		.byte	0
 7297 02d5 35       		.uleb128 0x35
 7298 02d6 2E       		.uleb128 0x2e
 7299 02d7 01       		.byte	0x1
 7300 02d8 3F       		.uleb128 0x3f
 7301 02d9 19       		.uleb128 0x19
 7302 02da 03       		.uleb128 0x3
 7303 02db 0E       		.uleb128 0xe
 7304 02dc 3A       		.uleb128 0x3a
 7305 02dd 0B       		.uleb128 0xb
 7306 02de 3B       		.uleb128 0x3b
 7307 02df 05       		.uleb128 0x5
 7308 02e0 27       		.uleb128 0x27
 7309 02e1 19       		.uleb128 0x19
 7310 02e2 49       		.uleb128 0x49
 7311 02e3 13       		.uleb128 0x13
 7312 02e4 11       		.uleb128 0x11
 7313 02e5 01       		.uleb128 0x1
 7314 02e6 12       		.uleb128 0x12
 7315 02e7 06       		.uleb128 0x6
 7316 02e8 40       		.uleb128 0x40
 7317 02e9 18       		.uleb128 0x18
 7318 02ea 9642     		.uleb128 0x2116
 7319 02ec 19       		.uleb128 0x19
 7320 02ed 01       		.uleb128 0x1
 7321 02ee 13       		.uleb128 0x13
 7322 02ef 00       		.byte	0
 7323 02f0 00       		.byte	0
 7324 02f1 36       		.uleb128 0x36
 7325 02f2 34       		.uleb128 0x34
 7326 02f3 00       		.byte	0
 7327 02f4 03       		.uleb128 0x3
 7328 02f5 08       		.uleb128 0x8
 7329 02f6 3A       		.uleb128 0x3a
 7330 02f7 0B       		.uleb128 0xb
 7331 02f8 3B       		.uleb128 0x3b
 7332 02f9 05       		.uleb128 0x5
 7333 02fa 49       		.uleb128 0x49
 7334 02fb 13       		.uleb128 0x13
 7335 02fc 02       		.uleb128 0x2
 7336 02fd 18       		.uleb128 0x18
 7337 02fe 00       		.byte	0
 7338 02ff 00       		.byte	0
 7339 0300 37       		.uleb128 0x37
 7340 0301 34       		.uleb128 0x34
 7341 0302 00       		.byte	0
 7342 0303 03       		.uleb128 0x3
 7343 0304 0E       		.uleb128 0xe
 7344 0305 3A       		.uleb128 0x3a
 7345 0306 0B       		.uleb128 0xb
 7346 0307 3B       		.uleb128 0x3b
 7347 0308 0B       		.uleb128 0xb
 7348 0309 49       		.uleb128 0x49
 7349 030a 13       		.uleb128 0x13
ARM GAS  C:\Users\mark6\AppData\Local\Temp\ccm1Ykfm.s 			page 144


 7350 030b 02       		.uleb128 0x2
 7351 030c 18       		.uleb128 0x18
 7352 030d 00       		.byte	0
 7353 030e 00       		.byte	0
 7354 030f 38       		.uleb128 0x38
 7355 0310 34       		.uleb128 0x34
 7356 0311 00       		.byte	0
 7357 0312 03       		.uleb128 0x3
 7358 0313 0E       		.uleb128 0xe
 7359 0314 3A       		.uleb128 0x3a
 7360 0315 0B       		.uleb128 0xb
 7361 0316 3B       		.uleb128 0x3b
 7362 0317 05       		.uleb128 0x5
 7363 0318 49       		.uleb128 0x49
 7364 0319 13       		.uleb128 0x13
 7365 031a 3F       		.uleb128 0x3f
 7366 031b 19       		.uleb128 0x19
 7367 031c 3C       		.uleb128 0x3c
 7368 031d 19       		.uleb128 0x19
 7369 031e 00       		.byte	0
 7370 031f 00       		.byte	0
 7371 0320 39       		.uleb128 0x39
 7372 0321 35       		.uleb128 0x35
 7373 0322 00       		.byte	0
 7374 0323 49       		.uleb128 0x49
 7375 0324 13       		.uleb128 0x13
 7376 0325 00       		.byte	0
 7377 0326 00       		.byte	0
 7378 0327 3A       		.uleb128 0x3a
 7379 0328 34       		.uleb128 0x34
 7380 0329 00       		.byte	0
 7381 032a 03       		.uleb128 0x3
 7382 032b 0E       		.uleb128 0xe
 7383 032c 3A       		.uleb128 0x3a
 7384 032d 0B       		.uleb128 0xb
 7385 032e 3B       		.uleb128 0x3b
 7386 032f 0B       		.uleb128 0xb
 7387 0330 49       		.uleb128 0x49
 7388 0331 13       		.uleb128 0x13
 7389 0332 3F       		.uleb128 0x3f
 7390 0333 19       		.uleb128 0x19
 7391 0334 3C       		.uleb128 0x3c
 7392 0335 19       		.uleb128 0x19
 7393 0336 00       		.byte	0
 7394 0337 00       		.byte	0
 7395 0338 3B       		.uleb128 0x3b
 7396 0339 34       		.uleb128 0x34
 7397 033a 00       		.byte	0
 7398 033b 03       		.uleb128 0x3
 7399 033c 0E       		.uleb128 0xe
 7400 033d 3A       		.uleb128 0x3a
 7401 033e 0B       		.uleb128 0xb
 7402 033f 3B       		.uleb128 0x3b
 7403 0340 0B       		.uleb128 0xb
 7404 0341 49       		.uleb128 0x49
 7405 0342 13       		.uleb128 0x13
 7406 0343 3F       		.uleb128 0x3f
ARM GAS  C:\Users\mark6\AppData\Local\Temp\ccm1Ykfm.s 			page 145


 7407 0344 19       		.uleb128 0x19
 7408 0345 02       		.uleb128 0x2
 7409 0346 18       		.uleb128 0x18
 7410 0347 00       		.byte	0
 7411 0348 00       		.byte	0
 7412 0349 3C       		.uleb128 0x3c
 7413 034a 2E       		.uleb128 0x2e
 7414 034b 01       		.byte	0x1
 7415 034c 3F       		.uleb128 0x3f
 7416 034d 19       		.uleb128 0x19
 7417 034e 03       		.uleb128 0x3
 7418 034f 0E       		.uleb128 0xe
 7419 0350 3A       		.uleb128 0x3a
 7420 0351 0B       		.uleb128 0xb
 7421 0352 3B       		.uleb128 0x3b
 7422 0353 05       		.uleb128 0x5
 7423 0354 27       		.uleb128 0x27
 7424 0355 19       		.uleb128 0x19
 7425 0356 3C       		.uleb128 0x3c
 7426 0357 19       		.uleb128 0x19
 7427 0358 01       		.uleb128 0x1
 7428 0359 13       		.uleb128 0x13
 7429 035a 00       		.byte	0
 7430 035b 00       		.byte	0
 7431 035c 3D       		.uleb128 0x3d
 7432 035d 2E       		.uleb128 0x2e
 7433 035e 00       		.byte	0
 7434 035f 3F       		.uleb128 0x3f
 7435 0360 19       		.uleb128 0x19
 7436 0361 03       		.uleb128 0x3
 7437 0362 0E       		.uleb128 0xe
 7438 0363 3A       		.uleb128 0x3a
 7439 0364 0B       		.uleb128 0xb
 7440 0365 3B       		.uleb128 0x3b
 7441 0366 05       		.uleb128 0x5
 7442 0367 27       		.uleb128 0x27
 7443 0368 19       		.uleb128 0x19
 7444 0369 3C       		.uleb128 0x3c
 7445 036a 19       		.uleb128 0x19
 7446 036b 00       		.byte	0
 7447 036c 00       		.byte	0
 7448 036d 3E       		.uleb128 0x3e
 7449 036e 2E       		.uleb128 0x2e
 7450 036f 00       		.byte	0
 7451 0370 3F       		.uleb128 0x3f
 7452 0371 19       		.uleb128 0x19
 7453 0372 03       		.uleb128 0x3
 7454 0373 0E       		.uleb128 0xe
 7455 0374 3A       		.uleb128 0x3a
 7456 0375 0B       		.uleb128 0xb
 7457 0376 3B       		.uleb128 0x3b
 7458 0377 05       		.uleb128 0x5
 7459 0378 27       		.uleb128 0x27
 7460 0379 19       		.uleb128 0x19
 7461 037a 49       		.uleb128 0x49
 7462 037b 13       		.uleb128 0x13
 7463 037c 3C       		.uleb128 0x3c
ARM GAS  C:\Users\mark6\AppData\Local\Temp\ccm1Ykfm.s 			page 146


 7464 037d 19       		.uleb128 0x19
 7465 037e 00       		.byte	0
 7466 037f 00       		.byte	0
 7467 0380 3F       		.uleb128 0x3f
 7468 0381 2E       		.uleb128 0x2e
 7469 0382 01       		.byte	0x1
 7470 0383 3F       		.uleb128 0x3f
 7471 0384 19       		.uleb128 0x19
 7472 0385 03       		.uleb128 0x3
 7473 0386 0E       		.uleb128 0xe
 7474 0387 3A       		.uleb128 0x3a
 7475 0388 0B       		.uleb128 0xb
 7476 0389 3B       		.uleb128 0x3b
 7477 038a 05       		.uleb128 0x5
 7478 038b 27       		.uleb128 0x27
 7479 038c 19       		.uleb128 0x19
 7480 038d 49       		.uleb128 0x49
 7481 038e 13       		.uleb128 0x13
 7482 038f 3C       		.uleb128 0x3c
 7483 0390 19       		.uleb128 0x19
 7484 0391 01       		.uleb128 0x1
 7485 0392 13       		.uleb128 0x13
 7486 0393 00       		.byte	0
 7487 0394 00       		.byte	0
 7488 0395 40       		.uleb128 0x40
 7489 0396 2E       		.uleb128 0x2e
 7490 0397 00       		.byte	0
 7491 0398 3F       		.uleb128 0x3f
 7492 0399 19       		.uleb128 0x19
 7493 039a 03       		.uleb128 0x3
 7494 039b 0E       		.uleb128 0xe
 7495 039c 3A       		.uleb128 0x3a
 7496 039d 0B       		.uleb128 0xb
 7497 039e 3B       		.uleb128 0x3b
 7498 039f 0B       		.uleb128 0xb
 7499 03a0 27       		.uleb128 0x27
 7500 03a1 19       		.uleb128 0x19
 7501 03a2 3C       		.uleb128 0x3c
 7502 03a3 19       		.uleb128 0x19
 7503 03a4 00       		.byte	0
 7504 03a5 00       		.byte	0
 7505 03a6 41       		.uleb128 0x41
 7506 03a7 2E       		.uleb128 0x2e
 7507 03a8 01       		.byte	0x1
 7508 03a9 3F       		.uleb128 0x3f
 7509 03aa 19       		.uleb128 0x19
 7510 03ab 03       		.uleb128 0x3
 7511 03ac 0E       		.uleb128 0xe
 7512 03ad 3A       		.uleb128 0x3a
 7513 03ae 0B       		.uleb128 0xb
 7514 03af 3B       		.uleb128 0x3b
 7515 03b0 0B       		.uleb128 0xb
 7516 03b1 27       		.uleb128 0x27
 7517 03b2 19       		.uleb128 0x19
 7518 03b3 49       		.uleb128 0x49
 7519 03b4 13       		.uleb128 0x13
 7520 03b5 3C       		.uleb128 0x3c
ARM GAS  C:\Users\mark6\AppData\Local\Temp\ccm1Ykfm.s 			page 147


 7521 03b6 19       		.uleb128 0x19
 7522 03b7 01       		.uleb128 0x1
 7523 03b8 13       		.uleb128 0x13
 7524 03b9 00       		.byte	0
 7525 03ba 00       		.byte	0
 7526 03bb 42       		.uleb128 0x42
 7527 03bc 2E       		.uleb128 0x2e
 7528 03bd 01       		.byte	0x1
 7529 03be 3F       		.uleb128 0x3f
 7530 03bf 19       		.uleb128 0x19
 7531 03c0 03       		.uleb128 0x3
 7532 03c1 0E       		.uleb128 0xe
 7533 03c2 3A       		.uleb128 0x3a
 7534 03c3 0B       		.uleb128 0xb
 7535 03c4 3B       		.uleb128 0x3b
 7536 03c5 0B       		.uleb128 0xb
 7537 03c6 49       		.uleb128 0x49
 7538 03c7 13       		.uleb128 0x13
 7539 03c8 3C       		.uleb128 0x3c
 7540 03c9 19       		.uleb128 0x19
 7541 03ca 01       		.uleb128 0x1
 7542 03cb 13       		.uleb128 0x13
 7543 03cc 00       		.byte	0
 7544 03cd 00       		.byte	0
 7545 03ce 43       		.uleb128 0x43
 7546 03cf 18       		.uleb128 0x18
 7547 03d0 00       		.byte	0
 7548 03d1 00       		.byte	0
 7549 03d2 00       		.byte	0
 7550 03d3 44       		.uleb128 0x44
 7551 03d4 2E       		.uleb128 0x2e
 7552 03d5 01       		.byte	0x1
 7553 03d6 3F       		.uleb128 0x3f
 7554 03d7 19       		.uleb128 0x19
 7555 03d8 03       		.uleb128 0x3
 7556 03d9 0E       		.uleb128 0xe
 7557 03da 3A       		.uleb128 0x3a
 7558 03db 0B       		.uleb128 0xb
 7559 03dc 3B       		.uleb128 0x3b
 7560 03dd 0B       		.uleb128 0xb
 7561 03de 27       		.uleb128 0x27
 7562 03df 19       		.uleb128 0x19
 7563 03e0 3C       		.uleb128 0x3c
 7564 03e1 19       		.uleb128 0x19
 7565 03e2 01       		.uleb128 0x1
 7566 03e3 13       		.uleb128 0x13
 7567 03e4 00       		.byte	0
 7568 03e5 00       		.byte	0
 7569 03e6 45       		.uleb128 0x45
 7570 03e7 2E       		.uleb128 0x2e
 7571 03e8 00       		.byte	0
 7572 03e9 3F       		.uleb128 0x3f
 7573 03ea 19       		.uleb128 0x19
 7574 03eb 03       		.uleb128 0x3
 7575 03ec 0E       		.uleb128 0xe
 7576 03ed 3A       		.uleb128 0x3a
 7577 03ee 0B       		.uleb128 0xb
ARM GAS  C:\Users\mark6\AppData\Local\Temp\ccm1Ykfm.s 			page 148


 7578 03ef 3B       		.uleb128 0x3b
 7579 03f0 0B       		.uleb128 0xb
 7580 03f1 27       		.uleb128 0x27
 7581 03f2 19       		.uleb128 0x19
 7582 03f3 49       		.uleb128 0x49
 7583 03f4 13       		.uleb128 0x13
 7584 03f5 3C       		.uleb128 0x3c
 7585 03f6 19       		.uleb128 0x19
 7586 03f7 00       		.byte	0
 7587 03f8 00       		.byte	0
 7588 03f9 00       		.byte	0
 7589              		.section	.debug_loc,"",%progbits
 7590              	.Ldebug_loc0:
 7591              	.LLST0:
 7592 0000 00000000 		.4byte	.LVL0
 7593 0004 1C000000 		.4byte	.LVL4
 7594 0008 0100     		.2byte	0x1
 7595 000a 52       		.byte	0x52
 7596 000b 1C000000 		.4byte	.LVL4
 7597 000f 1E000000 		.4byte	.LVL5
 7598 0013 0700     		.2byte	0x7
 7599 0015 72       		.byte	0x72
 7600 0016 80808080 		.sleb128 -1073741824
 7600      7C
 7601 001b 9F       		.byte	0x9f
 7602 001c 1E000000 		.4byte	.LVL5
 7603 0020 26000000 		.4byte	.LFE68
 7604 0024 0700     		.2byte	0x7
 7605 0026 72       		.byte	0x72
 7606 0027 81808080 		.sleb128 -1073741823
 7606      7C
 7607 002c 9F       		.byte	0x9f
 7608 002d 00000000 		.4byte	0
 7609 0031 00000000 		.4byte	0
 7610              	.LLST1:
 7611 0035 02000000 		.4byte	.LVL1
 7612 0039 06000000 		.4byte	.LVL2
 7613 003d 0200     		.2byte	0x2
 7614 003f 30       		.byte	0x30
 7615 0040 9F       		.byte	0x9f
 7616 0041 06000000 		.4byte	.LVL2
 7617 0045 26000000 		.4byte	.LFE68
 7618 0049 0100     		.2byte	0x1
 7619 004b 53       		.byte	0x53
 7620 004c 00000000 		.4byte	0
 7621 0050 00000000 		.4byte	0
 7622              	.LLST2:
 7623 0054 00000000 		.4byte	.LVL6
 7624 0058 1A000000 		.4byte	.LVL10
 7625 005c 0100     		.2byte	0x1
 7626 005e 50       		.byte	0x50
 7627 005f 1A000000 		.4byte	.LVL10
 7628 0063 1C000000 		.4byte	.LVL11
 7629 0067 0400     		.2byte	0x4
 7630 0069 F3       		.byte	0xf3
 7631 006a 01       		.uleb128 0x1
 7632 006b 50       		.byte	0x50
ARM GAS  C:\Users\mark6\AppData\Local\Temp\ccm1Ykfm.s 			page 149


 7633 006c 9F       		.byte	0x9f
 7634 006d 1C000000 		.4byte	.LVL11
 7635 0071 1E000000 		.4byte	.LVL12
 7636 0075 0100     		.2byte	0x1
 7637 0077 50       		.byte	0x50
 7638 0078 1E000000 		.4byte	.LVL12
 7639 007c 22000000 		.4byte	.LFE69
 7640 0080 0400     		.2byte	0x4
 7641 0082 F3       		.byte	0xf3
 7642 0083 01       		.uleb128 0x1
 7643 0084 50       		.byte	0x50
 7644 0085 9F       		.byte	0x9f
 7645 0086 00000000 		.4byte	0
 7646 008a 00000000 		.4byte	0
 7647              	.LLST3:
 7648 008e 02000000 		.4byte	.LVL7
 7649 0092 06000000 		.4byte	.LVL8
 7650 0096 0200     		.2byte	0x2
 7651 0098 30       		.byte	0x30
 7652 0099 9F       		.byte	0x9f
 7653 009a 06000000 		.4byte	.LVL8
 7654 009e 22000000 		.4byte	.LFE69
 7655 00a2 0100     		.2byte	0x1
 7656 00a4 53       		.byte	0x53
 7657 00a5 00000000 		.4byte	0
 7658 00a9 00000000 		.4byte	0
 7659              	.LLST4:
 7660 00ad 00000000 		.4byte	.LVL13
 7661 00b1 08000000 		.4byte	.LVL14
 7662 00b5 0100     		.2byte	0x1
 7663 00b7 50       		.byte	0x50
 7664 00b8 08000000 		.4byte	.LVL14
 7665 00bc 7C000000 		.4byte	.LVL21
 7666 00c0 0100     		.2byte	0x1
 7667 00c2 54       		.byte	0x54
 7668 00c3 7C000000 		.4byte	.LVL21
 7669 00c7 88000000 		.4byte	.LFE71
 7670 00cb 0400     		.2byte	0x4
 7671 00cd F3       		.byte	0xf3
 7672 00ce 01       		.uleb128 0x1
 7673 00cf 50       		.byte	0x50
 7674 00d0 9F       		.byte	0x9f
 7675 00d1 00000000 		.4byte	0
 7676 00d5 00000000 		.4byte	0
 7677              	.LLST5:
 7678 00d9 00000000 		.4byte	.LVL13
 7679 00dd 0B000000 		.4byte	.LVL15-1
 7680 00e1 0100     		.2byte	0x1
 7681 00e3 51       		.byte	0x51
 7682 00e4 0B000000 		.4byte	.LVL15-1
 7683 00e8 88000000 		.4byte	.LFE71
 7684 00ec 0400     		.2byte	0x4
 7685 00ee F3       		.byte	0xf3
 7686 00ef 01       		.uleb128 0x1
 7687 00f0 51       		.byte	0x51
 7688 00f1 9F       		.byte	0x9f
 7689 00f2 00000000 		.4byte	0
ARM GAS  C:\Users\mark6\AppData\Local\Temp\ccm1Ykfm.s 			page 150


 7690 00f6 00000000 		.4byte	0
 7691              	.LLST6:
 7692 00fa 00000000 		.4byte	.LVL22
 7693 00fe 08000000 		.4byte	.LVL23
 7694 0102 0100     		.2byte	0x1
 7695 0104 50       		.byte	0x50
 7696 0105 08000000 		.4byte	.LVL23
 7697 0109 1A000000 		.4byte	.LFE70
 7698 010d 0100     		.2byte	0x1
 7699 010f 55       		.byte	0x55
 7700 0110 00000000 		.4byte	0
 7701 0114 00000000 		.4byte	0
 7702              	.LLST7:
 7703 0118 00000000 		.4byte	.LVL22
 7704 011c 0C000000 		.4byte	.LVL24
 7705 0120 0100     		.2byte	0x1
 7706 0122 51       		.byte	0x51
 7707 0123 0C000000 		.4byte	.LVL24
 7708 0127 0F000000 		.4byte	.LVL25-1
 7709 012b 0100     		.2byte	0x1
 7710 012d 50       		.byte	0x50
 7711 012e 0F000000 		.4byte	.LVL25-1
 7712 0132 1A000000 		.4byte	.LFE70
 7713 0136 0400     		.2byte	0x4
 7714 0138 F3       		.byte	0xf3
 7715 0139 01       		.uleb128 0x1
 7716 013a 51       		.byte	0x51
 7717 013b 9F       		.byte	0x9f
 7718 013c 00000000 		.4byte	0
 7719 0140 00000000 		.4byte	0
 7720              	.LLST8:
 7721 0144 00000000 		.4byte	.LVL22
 7722 0148 0F000000 		.4byte	.LVL25-1
 7723 014c 0100     		.2byte	0x1
 7724 014e 52       		.byte	0x52
 7725 014f 0F000000 		.4byte	.LVL25-1
 7726 0153 1A000000 		.4byte	.LFE70
 7727 0157 0100     		.2byte	0x1
 7728 0159 54       		.byte	0x54
 7729 015a 00000000 		.4byte	0
 7730 015e 00000000 		.4byte	0
 7731              	.LLST9:
 7732 0162 00000000 		.4byte	.LVL27
 7733 0166 08000000 		.4byte	.LVL28
 7734 016a 0100     		.2byte	0x1
 7735 016c 50       		.byte	0x50
 7736 016d 08000000 		.4byte	.LVL28
 7737 0171 1E000000 		.4byte	.LVL31
 7738 0175 0100     		.2byte	0x1
 7739 0177 55       		.byte	0x55
 7740 0178 1E000000 		.4byte	.LVL31
 7741 017c 24000000 		.4byte	.LFE72
 7742 0180 0400     		.2byte	0x4
 7743 0182 F3       		.byte	0xf3
 7744 0183 01       		.uleb128 0x1
 7745 0184 50       		.byte	0x50
 7746 0185 9F       		.byte	0x9f
ARM GAS  C:\Users\mark6\AppData\Local\Temp\ccm1Ykfm.s 			page 151


 7747 0186 00000000 		.4byte	0
 7748 018a 00000000 		.4byte	0
 7749              	.LLST10:
 7750 018e 00000000 		.4byte	.LVL27
 7751 0192 0B000000 		.4byte	.LVL29-1
 7752 0196 0100     		.2byte	0x1
 7753 0198 51       		.byte	0x51
 7754 0199 0B000000 		.4byte	.LVL29-1
 7755 019d 1E000000 		.4byte	.LVL31
 7756 01a1 0100     		.2byte	0x1
 7757 01a3 54       		.byte	0x54
 7758 01a4 1E000000 		.4byte	.LVL31
 7759 01a8 24000000 		.4byte	.LFE72
 7760 01ac 0400     		.2byte	0x4
 7761 01ae F3       		.byte	0xf3
 7762 01af 01       		.uleb128 0x1
 7763 01b0 51       		.byte	0x51
 7764 01b1 9F       		.byte	0x9f
 7765 01b2 00000000 		.4byte	0
 7766 01b6 00000000 		.4byte	0
 7767              	.LLST11:
 7768 01ba 00000000 		.4byte	.LVL27
 7769 01be 0B000000 		.4byte	.LVL29-1
 7770 01c2 0100     		.2byte	0x1
 7771 01c4 52       		.byte	0x52
 7772 01c5 0B000000 		.4byte	.LVL29-1
 7773 01c9 24000000 		.4byte	.LFE72
 7774 01cd 0400     		.2byte	0x4
 7775 01cf F3       		.byte	0xf3
 7776 01d0 01       		.uleb128 0x1
 7777 01d1 52       		.byte	0x52
 7778 01d2 9F       		.byte	0x9f
 7779 01d3 00000000 		.4byte	0
 7780 01d7 00000000 		.4byte	0
 7781              	.LLST12:
 7782 01db 00000000 		.4byte	.LVL35
 7783 01df 07000000 		.4byte	.LVL36-1
 7784 01e3 0100     		.2byte	0x1
 7785 01e5 50       		.byte	0x50
 7786 01e6 07000000 		.4byte	.LVL36-1
 7787 01ea 3A000000 		.4byte	.LVL45
 7788 01ee 0100     		.2byte	0x1
 7789 01f0 57       		.byte	0x57
 7790 01f1 3A000000 		.4byte	.LVL45
 7791 01f5 40000000 		.4byte	.LFE74
 7792 01f9 0400     		.2byte	0x4
 7793 01fb F3       		.byte	0xf3
 7794 01fc 01       		.uleb128 0x1
 7795 01fd 50       		.byte	0x50
 7796 01fe 9F       		.byte	0x9f
 7797 01ff 00000000 		.4byte	0
 7798 0203 00000000 		.4byte	0
 7799              	.LLST13:
 7800 0207 08000000 		.4byte	.LVL36
 7801 020b 0E000000 		.4byte	.LVL37
 7802 020f 0200     		.2byte	0x2
 7803 0211 31       		.byte	0x31
ARM GAS  C:\Users\mark6\AppData\Local\Temp\ccm1Ykfm.s 			page 152


 7804 0212 9F       		.byte	0x9f
 7805 0213 0E000000 		.4byte	.LVL37
 7806 0217 40000000 		.4byte	.LFE74
 7807 021b 0100     		.2byte	0x1
 7808 021d 50       		.byte	0x50
 7809 021e 00000000 		.4byte	0
 7810 0222 00000000 		.4byte	0
 7811              	.LLST14:
 7812 0226 08000000 		.4byte	.LVL36
 7813 022a 0E000000 		.4byte	.LVL37
 7814 022e 0200     		.2byte	0x2
 7815 0230 30       		.byte	0x30
 7816 0231 9F       		.byte	0x9f
 7817 0232 0E000000 		.4byte	.LVL37
 7818 0236 3A000000 		.4byte	.LVL45
 7819 023a 0100     		.2byte	0x1
 7820 023c 56       		.byte	0x56
 7821 023d 00000000 		.4byte	0
 7822 0241 00000000 		.4byte	0
 7823              	.LLST15:
 7824 0245 14000000 		.4byte	.LVL38
 7825 0249 1A000000 		.4byte	.LVL39
 7826 024d 0200     		.2byte	0x2
 7827 024f 30       		.byte	0x30
 7828 0250 9F       		.byte	0x9f
 7829 0251 1A000000 		.4byte	.LVL39
 7830 0255 32000000 		.4byte	.LVL44
 7831 0259 0100     		.2byte	0x1
 7832 025b 53       		.byte	0x53
 7833 025c 00000000 		.4byte	0
 7834 0260 00000000 		.4byte	0
 7835              	.LLST16:
 7836 0264 14000000 		.4byte	.LVL38
 7837 0268 32000000 		.4byte	.LVL44
 7838 026c 0100     		.2byte	0x1
 7839 026e 54       		.byte	0x54
 7840 026f 00000000 		.4byte	0
 7841 0273 00000000 		.4byte	0
 7842              	.LLST17:
 7843 0277 14000000 		.4byte	.LVL38
 7844 027b 1A000000 		.4byte	.LVL39
 7845 027f 0200     		.2byte	0x2
 7846 0281 30       		.byte	0x30
 7847 0282 9F       		.byte	0x9f
 7848 0283 1A000000 		.4byte	.LVL39
 7849 0287 32000000 		.4byte	.LVL44
 7850 028b 0100     		.2byte	0x1
 7851 028d 55       		.byte	0x55
 7852 028e 00000000 		.4byte	0
 7853 0292 00000000 		.4byte	0
 7854              	.LLST18:
 7855 0296 1E000000 		.4byte	.LVL40
 7856 029a 28000000 		.4byte	.LVL42
 7857 029e 0100     		.2byte	0x1
 7858 02a0 52       		.byte	0x52
 7859 02a1 00000000 		.4byte	0
 7860 02a5 00000000 		.4byte	0
ARM GAS  C:\Users\mark6\AppData\Local\Temp\ccm1Ykfm.s 			page 153


 7861              	.LLST19:
 7862 02a9 08000000 		.4byte	.LVL46
 7863 02ad 0A000000 		.4byte	.LVL47
 7864 02b1 0200     		.2byte	0x2
 7865 02b3 30       		.byte	0x30
 7866 02b4 9F       		.byte	0x9f
 7867 02b5 0A000000 		.4byte	.LVL47
 7868 02b9 34000000 		.4byte	.LVL50
 7869 02bd 0100     		.2byte	0x1
 7870 02bf 54       		.byte	0x54
 7871 02c0 00000000 		.4byte	0
 7872 02c4 00000000 		.4byte	0
 7873              	.LLST20:
 7874 02c8 16000000 		.4byte	.LVL48
 7875 02cc 2A000000 		.4byte	.LVL49
 7876 02d0 0100     		.2byte	0x1
 7877 02d2 50       		.byte	0x50
 7878 02d3 00000000 		.4byte	0
 7879 02d7 00000000 		.4byte	0
 7880              	.LLST21:
 7881 02db D2000000 		.4byte	.LVL62
 7882 02df D6000000 		.4byte	.LVL63
 7883 02e3 0200     		.2byte	0x2
 7884 02e5 30       		.byte	0x30
 7885 02e6 9F       		.byte	0x9f
 7886 02e7 D6000000 		.4byte	.LVL63
 7887 02eb 5A010000 		.4byte	.LVL71
 7888 02ef 0100     		.2byte	0x1
 7889 02f1 54       		.byte	0x54
 7890 02f2 00000000 		.4byte	0
 7891 02f6 00000000 		.4byte	0
 7892              	.LLST22:
 7893 02fa 26000000 		.4byte	.LVL73
 7894 02fe 2C000000 		.4byte	.LVL74
 7895 0302 0200     		.2byte	0x2
 7896 0304 30       		.byte	0x30
 7897 0305 9F       		.byte	0x9f
 7898 0306 2C000000 		.4byte	.LVL74
 7899 030a 74000000 		.4byte	.LFE79
 7900 030e 0100     		.2byte	0x1
 7901 0310 52       		.byte	0x52
 7902 0311 00000000 		.4byte	0
 7903 0315 00000000 		.4byte	0
 7904              	.LLST23:
 7905 0319 04000000 		.4byte	.LVL72
 7906 031d 2C000000 		.4byte	.LVL74
 7907 0321 0200     		.2byte	0x2
 7908 0323 30       		.byte	0x30
 7909 0324 9F       		.byte	0x9f
 7910 0325 2C000000 		.4byte	.LVL74
 7911 0329 48000000 		.4byte	.LVL75
 7912 032d 0100     		.2byte	0x1
 7913 032f 53       		.byte	0x53
 7914 0330 48000000 		.4byte	.LVL75
 7915 0334 64000000 		.4byte	.LVL76
 7916 0338 0300     		.2byte	0x3
 7917 033a 73       		.byte	0x73
ARM GAS  C:\Users\mark6\AppData\Local\Temp\ccm1Ykfm.s 			page 154


 7918 033b 7F       		.sleb128 -1
 7919 033c 9F       		.byte	0x9f
 7920 033d 64000000 		.4byte	.LVL76
 7921 0341 74000000 		.4byte	.LFE79
 7922 0345 0100     		.2byte	0x1
 7923 0347 53       		.byte	0x53
 7924 0348 00000000 		.4byte	0
 7925 034c 00000000 		.4byte	0
 7926              	.LLST24:
 7927 0350 04000000 		.4byte	.LVL78
 7928 0354 4A000000 		.4byte	.LVL80
 7929 0358 0200     		.2byte	0x2
 7930 035a 30       		.byte	0x30
 7931 035b 9F       		.byte	0x9f
 7932 035c 4A000000 		.4byte	.LVL80
 7933 0360 18010000 		.4byte	.LVL82
 7934 0364 0100     		.2byte	0x1
 7935 0366 53       		.byte	0x53
 7936 0367 18010000 		.4byte	.LVL82
 7937 036b 28010000 		.4byte	.LVL83
 7938 036f 0100     		.2byte	0x1
 7939 0371 52       		.byte	0x52
 7940 0372 28010000 		.4byte	.LVL83
 7941 0376 3C010000 		.4byte	.LFE80
 7942 037a 0100     		.2byte	0x1
 7943 037c 53       		.byte	0x53
 7944 037d 00000000 		.4byte	0
 7945 0381 00000000 		.4byte	0
 7946              	.LLST25:
 7947 0385 04000000 		.4byte	.LVL78
 7948 0389 4A000000 		.4byte	.LVL80
 7949 038d 0200     		.2byte	0x2
 7950 038f 30       		.byte	0x30
 7951 0390 9F       		.byte	0x9f
 7952 0391 4A000000 		.4byte	.LVL80
 7953 0395 32010000 		.4byte	.LVL85
 7954 0399 0100     		.2byte	0x1
 7955 039b 55       		.byte	0x55
 7956 039c 00000000 		.4byte	0
 7957 03a0 00000000 		.4byte	0
 7958              	.LLST26:
 7959 03a4 42000000 		.4byte	.LVL79
 7960 03a8 4A000000 		.4byte	.LVL80
 7961 03ac 0200     		.2byte	0x2
 7962 03ae 30       		.byte	0x30
 7963 03af 9F       		.byte	0x9f
 7964 03b0 4A000000 		.4byte	.LVL80
 7965 03b4 32010000 		.4byte	.LVL85
 7966 03b8 0100     		.2byte	0x1
 7967 03ba 54       		.byte	0x54
 7968 03bb 00000000 		.4byte	0
 7969 03bf 00000000 		.4byte	0
 7970              	.LLST27:
 7971 03c3 00000000 		.4byte	.LVL86
 7972 03c7 02000000 		.4byte	.LVL87
 7973 03cb 0100     		.2byte	0x1
 7974 03cd 50       		.byte	0x50
ARM GAS  C:\Users\mark6\AppData\Local\Temp\ccm1Ykfm.s 			page 155


 7975 03ce 02000000 		.4byte	.LVL87
 7976 03d2 0C000000 		.4byte	.LFE81
 7977 03d6 0400     		.2byte	0x4
 7978 03d8 F3       		.byte	0xf3
 7979 03d9 01       		.uleb128 0x1
 7980 03da 50       		.byte	0x50
 7981 03db 9F       		.byte	0x9f
 7982 03dc 00000000 		.4byte	0
 7983 03e0 00000000 		.4byte	0
 7984              	.LLST28:
 7985 03e4 0C000000 		.4byte	.LVL122
 7986 03e8 10000000 		.4byte	.LVL123
 7987 03ec 0200     		.2byte	0x2
 7988 03ee 30       		.byte	0x30
 7989 03ef 9F       		.byte	0x9f
 7990 03f0 10000000 		.4byte	.LVL123
 7991 03f4 20000000 		.4byte	.LVL124
 7992 03f8 0100     		.2byte	0x1
 7993 03fa 53       		.byte	0x53
 7994 03fb 22000000 		.4byte	.LVL125
 7995 03ff 28000000 		.4byte	.LVL126
 7996 0403 0100     		.2byte	0x1
 7997 0405 53       		.byte	0x53
 7998 0406 00000000 		.4byte	0
 7999 040a 00000000 		.4byte	0
 8000              	.LLST29:
 8001 040e 0C000000 		.4byte	.LVL133
 8002 0412 5A000000 		.4byte	.LVL140
 8003 0416 0100     		.2byte	0x1
 8004 0418 54       		.byte	0x54
 8005 0419 00000000 		.4byte	0
 8006 041d 00000000 		.4byte	0
 8007              	.LLST30:
 8008 0421 0C000000 		.4byte	.LVL147
 8009 0425 5A000000 		.4byte	.LVL154
 8010 0429 0100     		.2byte	0x1
 8011 042b 54       		.byte	0x54
 8012 042c 00000000 		.4byte	0
 8013 0430 00000000 		.4byte	0
 8014              	.LLST31:
 8015 0434 00000000 		.4byte	.LVL161
 8016 0438 05000000 		.4byte	.LVL162-1
 8017 043c 0100     		.2byte	0x1
 8018 043e 50       		.byte	0x50
 8019 043f 05000000 		.4byte	.LVL162-1
 8020 0443 30000000 		.4byte	.LFE82
 8021 0447 0400     		.2byte	0x4
 8022 0449 F3       		.byte	0xf3
 8023 044a 01       		.uleb128 0x1
 8024 044b 50       		.byte	0x50
 8025 044c 9F       		.byte	0x9f
 8026 044d 00000000 		.4byte	0
 8027 0451 00000000 		.4byte	0
 8028              	.LLST32:
 8029 0455 00000000 		.4byte	.LVL167
 8030 0459 0E000000 		.4byte	.LVL170
 8031 045d 0100     		.2byte	0x1
ARM GAS  C:\Users\mark6\AppData\Local\Temp\ccm1Ykfm.s 			page 156


 8032 045f 50       		.byte	0x50
 8033 0460 0E000000 		.4byte	.LVL170
 8034 0464 10000000 		.4byte	.LVL171
 8035 0468 0400     		.2byte	0x4
 8036 046a F3       		.byte	0xf3
 8037 046b 01       		.uleb128 0x1
 8038 046c 50       		.byte	0x50
 8039 046d 9F       		.byte	0x9f
 8040 046e 10000000 		.4byte	.LVL171
 8041 0472 12000000 		.4byte	.LVL172
 8042 0476 0100     		.2byte	0x1
 8043 0478 50       		.byte	0x50
 8044 0479 12000000 		.4byte	.LVL172
 8045 047d 14000000 		.4byte	.LVL173
 8046 0481 0400     		.2byte	0x4
 8047 0483 F3       		.byte	0xf3
 8048 0484 01       		.uleb128 0x1
 8049 0485 50       		.byte	0x50
 8050 0486 9F       		.byte	0x9f
 8051 0487 14000000 		.4byte	.LVL173
 8052 048b 16000000 		.4byte	.LVL174
 8053 048f 0100     		.2byte	0x1
 8054 0491 50       		.byte	0x50
 8055 0492 16000000 		.4byte	.LVL174
 8056 0496 18000000 		.4byte	.LFE83
 8057 049a 0400     		.2byte	0x4
 8058 049c F3       		.byte	0xf3
 8059 049d 01       		.uleb128 0x1
 8060 049e 50       		.byte	0x50
 8061 049f 9F       		.byte	0x9f
 8062 04a0 00000000 		.4byte	0
 8063 04a4 00000000 		.4byte	0
 8064              	.LLST33:
 8065 04a8 00000000 		.4byte	.LVL175
 8066 04ac 1E000000 		.4byte	.LVL179
 8067 04b0 0100     		.2byte	0x1
 8068 04b2 50       		.byte	0x50
 8069 04b3 1E000000 		.4byte	.LVL179
 8070 04b7 58000000 		.4byte	.LVL185
 8071 04bb 0100     		.2byte	0x1
 8072 04bd 55       		.byte	0x55
 8073 04be 58000000 		.4byte	.LVL185
 8074 04c2 5C000000 		.4byte	.LFE84
 8075 04c6 0400     		.2byte	0x4
 8076 04c8 F3       		.byte	0xf3
 8077 04c9 01       		.uleb128 0x1
 8078 04ca 50       		.byte	0x50
 8079 04cb 9F       		.byte	0x9f
 8080 04cc 00000000 		.4byte	0
 8081 04d0 00000000 		.4byte	0
 8082              	.LLST34:
 8083 04d4 04000000 		.4byte	.LVL176
 8084 04d8 08000000 		.4byte	.LVL177
 8085 04dc 0200     		.2byte	0x2
 8086 04de 30       		.byte	0x30
 8087 04df 9F       		.byte	0x9f
 8088 04e0 08000000 		.4byte	.LVL177
ARM GAS  C:\Users\mark6\AppData\Local\Temp\ccm1Ykfm.s 			page 157


 8089 04e4 1E000000 		.4byte	.LVL179
 8090 04e8 0100     		.2byte	0x1
 8091 04ea 52       		.byte	0x52
 8092 04eb 1E000000 		.4byte	.LVL179
 8093 04ef 58000000 		.4byte	.LVL185
 8094 04f3 0100     		.2byte	0x1
 8095 04f5 56       		.byte	0x56
 8096 04f6 00000000 		.4byte	0
 8097 04fa 00000000 		.4byte	0
 8098              	.LLST35:
 8099 04fe 1E000000 		.4byte	.LVL179
 8100 0502 48000000 		.4byte	.LVL182
 8101 0506 0100     		.2byte	0x1
 8102 0508 54       		.byte	0x54
 8103 0509 4A000000 		.4byte	.LVL183
 8104 050d 52000000 		.4byte	.LVL184
 8105 0511 0100     		.2byte	0x1
 8106 0513 54       		.byte	0x54
 8107 0514 00000000 		.4byte	0
 8108 0518 00000000 		.4byte	0
 8109              	.LLST36:
 8110 051c 00000000 		.4byte	.LVL186
 8111 0520 07000000 		.4byte	.LVL187-1
 8112 0524 0100     		.2byte	0x1
 8113 0526 50       		.byte	0x50
 8114 0527 07000000 		.4byte	.LVL187-1
 8115 052b 12000000 		.4byte	.LVL189
 8116 052f 0400     		.2byte	0x4
 8117 0531 F3       		.byte	0xf3
 8118 0532 01       		.uleb128 0x1
 8119 0533 50       		.byte	0x50
 8120 0534 9F       		.byte	0x9f
 8121 0535 12000000 		.4byte	.LVL189
 8122 0539 19000000 		.4byte	.LVL190-1
 8123 053d 0100     		.2byte	0x1
 8124 053f 50       		.byte	0x50
 8125 0540 19000000 		.4byte	.LVL190-1
 8126 0544 24000000 		.4byte	.LVL192
 8127 0548 0400     		.2byte	0x4
 8128 054a F3       		.byte	0xf3
 8129 054b 01       		.uleb128 0x1
 8130 054c 50       		.byte	0x50
 8131 054d 9F       		.byte	0x9f
 8132 054e 24000000 		.4byte	.LVL192
 8133 0552 2B000000 		.4byte	.LVL193-1
 8134 0556 0100     		.2byte	0x1
 8135 0558 50       		.byte	0x50
 8136 0559 2B000000 		.4byte	.LVL193-1
 8137 055d 36000000 		.4byte	.LVL195
 8138 0561 0400     		.2byte	0x4
 8139 0563 F3       		.byte	0xf3
 8140 0564 01       		.uleb128 0x1
 8141 0565 50       		.byte	0x50
 8142 0566 9F       		.byte	0x9f
 8143 0567 36000000 		.4byte	.LVL195
 8144 056b 3D000000 		.4byte	.LVL196-1
 8145 056f 0100     		.2byte	0x1
ARM GAS  C:\Users\mark6\AppData\Local\Temp\ccm1Ykfm.s 			page 158


 8146 0571 50       		.byte	0x50
 8147 0572 3D000000 		.4byte	.LVL196-1
 8148 0576 48000000 		.4byte	.LVL198
 8149 057a 0400     		.2byte	0x4
 8150 057c F3       		.byte	0xf3
 8151 057d 01       		.uleb128 0x1
 8152 057e 50       		.byte	0x50
 8153 057f 9F       		.byte	0x9f
 8154 0580 48000000 		.4byte	.LVL198
 8155 0584 4F000000 		.4byte	.LVL199-1
 8156 0588 0100     		.2byte	0x1
 8157 058a 50       		.byte	0x50
 8158 058b 4F000000 		.4byte	.LVL199-1
 8159 058f 5A000000 		.4byte	.LVL201
 8160 0593 0400     		.2byte	0x4
 8161 0595 F3       		.byte	0xf3
 8162 0596 01       		.uleb128 0x1
 8163 0597 50       		.byte	0x50
 8164 0598 9F       		.byte	0x9f
 8165 0599 5A000000 		.4byte	.LVL201
 8166 059d 61000000 		.4byte	.LVL202-1
 8167 05a1 0100     		.2byte	0x1
 8168 05a3 50       		.byte	0x50
 8169 05a4 61000000 		.4byte	.LVL202-1
 8170 05a8 6C000000 		.4byte	.LFE86
 8171 05ac 0400     		.2byte	0x4
 8172 05ae F3       		.byte	0xf3
 8173 05af 01       		.uleb128 0x1
 8174 05b0 50       		.byte	0x50
 8175 05b1 9F       		.byte	0x9f
 8176 05b2 00000000 		.4byte	0
 8177 05b6 00000000 		.4byte	0
 8178              	.LLST37:
 8179 05ba 00000000 		.4byte	.LVL204
 8180 05be 07000000 		.4byte	.LVL205-1
 8181 05c2 0100     		.2byte	0x1
 8182 05c4 50       		.byte	0x50
 8183 05c5 07000000 		.4byte	.LVL205-1
 8184 05c9 0A000000 		.4byte	.LVL206
 8185 05cd 0400     		.2byte	0x4
 8186 05cf F3       		.byte	0xf3
 8187 05d0 01       		.uleb128 0x1
 8188 05d1 50       		.byte	0x50
 8189 05d2 9F       		.byte	0x9f
 8190 05d3 0A000000 		.4byte	.LVL206
 8191 05d7 10000000 		.4byte	.LVL207
 8192 05db 0100     		.2byte	0x1
 8193 05dd 50       		.byte	0x50
 8194 05de 10000000 		.4byte	.LVL207
 8195 05e2 16000000 		.4byte	.LVL209
 8196 05e6 0400     		.2byte	0x4
 8197 05e8 F3       		.byte	0xf3
 8198 05e9 01       		.uleb128 0x1
 8199 05ea 50       		.byte	0x50
 8200 05eb 9F       		.byte	0x9f
 8201 05ec 16000000 		.4byte	.LVL209
 8202 05f0 1C000000 		.4byte	.LVL210
ARM GAS  C:\Users\mark6\AppData\Local\Temp\ccm1Ykfm.s 			page 159


 8203 05f4 0100     		.2byte	0x1
 8204 05f6 50       		.byte	0x50
 8205 05f7 1C000000 		.4byte	.LVL210
 8206 05fb 22000000 		.4byte	.LVL212
 8207 05ff 0400     		.2byte	0x4
 8208 0601 F3       		.byte	0xf3
 8209 0602 01       		.uleb128 0x1
 8210 0603 50       		.byte	0x50
 8211 0604 9F       		.byte	0x9f
 8212 0605 22000000 		.4byte	.LVL212
 8213 0609 28000000 		.4byte	.LVL213
 8214 060d 0100     		.2byte	0x1
 8215 060f 50       		.byte	0x50
 8216 0610 28000000 		.4byte	.LVL213
 8217 0614 2E000000 		.4byte	.LVL215
 8218 0618 0400     		.2byte	0x4
 8219 061a F3       		.byte	0xf3
 8220 061b 01       		.uleb128 0x1
 8221 061c 50       		.byte	0x50
 8222 061d 9F       		.byte	0x9f
 8223 061e 2E000000 		.4byte	.LVL215
 8224 0622 34000000 		.4byte	.LVL216
 8225 0626 0100     		.2byte	0x1
 8226 0628 50       		.byte	0x50
 8227 0629 34000000 		.4byte	.LVL216
 8228 062d 3A000000 		.4byte	.LVL218
 8229 0631 0400     		.2byte	0x4
 8230 0633 F3       		.byte	0xf3
 8231 0634 01       		.uleb128 0x1
 8232 0635 50       		.byte	0x50
 8233 0636 9F       		.byte	0x9f
 8234 0637 3A000000 		.4byte	.LVL218
 8235 063b 40000000 		.4byte	.LVL219
 8236 063f 0100     		.2byte	0x1
 8237 0641 50       		.byte	0x50
 8238 0642 40000000 		.4byte	.LVL219
 8239 0646 46000000 		.4byte	.LFE87
 8240 064a 0400     		.2byte	0x4
 8241 064c F3       		.byte	0xf3
 8242 064d 01       		.uleb128 0x1
 8243 064e 50       		.byte	0x50
 8244 064f 9F       		.byte	0x9f
 8245 0650 00000000 		.4byte	0
 8246 0654 00000000 		.4byte	0
 8247              	.LLST38:
 8248 0658 00000000 		.4byte	.LVL221
 8249 065c 06000000 		.4byte	.LVL222
 8250 0660 0100     		.2byte	0x1
 8251 0662 50       		.byte	0x50
 8252 0663 06000000 		.4byte	.LVL222
 8253 0667 0C000000 		.4byte	.LVL224
 8254 066b 0400     		.2byte	0x4
 8255 066d F3       		.byte	0xf3
 8256 066e 01       		.uleb128 0x1
 8257 066f 50       		.byte	0x50
 8258 0670 9F       		.byte	0x9f
 8259 0671 0C000000 		.4byte	.LVL224
ARM GAS  C:\Users\mark6\AppData\Local\Temp\ccm1Ykfm.s 			page 160


 8260 0675 12000000 		.4byte	.LVL225
 8261 0679 0100     		.2byte	0x1
 8262 067b 50       		.byte	0x50
 8263 067c 12000000 		.4byte	.LVL225
 8264 0680 18000000 		.4byte	.LVL227
 8265 0684 0400     		.2byte	0x4
 8266 0686 F3       		.byte	0xf3
 8267 0687 01       		.uleb128 0x1
 8268 0688 50       		.byte	0x50
 8269 0689 9F       		.byte	0x9f
 8270 068a 18000000 		.4byte	.LVL227
 8271 068e 1E000000 		.4byte	.LVL228
 8272 0692 0100     		.2byte	0x1
 8273 0694 50       		.byte	0x50
 8274 0695 1E000000 		.4byte	.LVL228
 8275 0699 24000000 		.4byte	.LVL230
 8276 069d 0400     		.2byte	0x4
 8277 069f F3       		.byte	0xf3
 8278 06a0 01       		.uleb128 0x1
 8279 06a1 50       		.byte	0x50
 8280 06a2 9F       		.byte	0x9f
 8281 06a3 24000000 		.4byte	.LVL230
 8282 06a7 2A000000 		.4byte	.LVL231
 8283 06ab 0100     		.2byte	0x1
 8284 06ad 50       		.byte	0x50
 8285 06ae 2A000000 		.4byte	.LVL231
 8286 06b2 30000000 		.4byte	.LVL233
 8287 06b6 0400     		.2byte	0x4
 8288 06b8 F3       		.byte	0xf3
 8289 06b9 01       		.uleb128 0x1
 8290 06ba 50       		.byte	0x50
 8291 06bb 9F       		.byte	0x9f
 8292 06bc 30000000 		.4byte	.LVL233
 8293 06c0 36000000 		.4byte	.LVL234
 8294 06c4 0100     		.2byte	0x1
 8295 06c6 50       		.byte	0x50
 8296 06c7 36000000 		.4byte	.LVL234
 8297 06cb 3C000000 		.4byte	.LVL236
 8298 06cf 0400     		.2byte	0x4
 8299 06d1 F3       		.byte	0xf3
 8300 06d2 01       		.uleb128 0x1
 8301 06d3 50       		.byte	0x50
 8302 06d4 9F       		.byte	0x9f
 8303 06d5 3C000000 		.4byte	.LVL236
 8304 06d9 42000000 		.4byte	.LVL237
 8305 06dd 0100     		.2byte	0x1
 8306 06df 50       		.byte	0x50
 8307 06e0 42000000 		.4byte	.LVL237
 8308 06e4 48000000 		.4byte	.LFE88
 8309 06e8 0400     		.2byte	0x4
 8310 06ea F3       		.byte	0xf3
 8311 06eb 01       		.uleb128 0x1
 8312 06ec 50       		.byte	0x50
 8313 06ed 9F       		.byte	0x9f
 8314 06ee 00000000 		.4byte	0
 8315 06f2 00000000 		.4byte	0
 8316              	.LLST39:
ARM GAS  C:\Users\mark6\AppData\Local\Temp\ccm1Ykfm.s 			page 161


 8317 06f6 00000000 		.4byte	.LVL239
 8318 06fa 0A000000 		.4byte	.LVL241
 8319 06fe 0100     		.2byte	0x1
 8320 0700 50       		.byte	0x50
 8321 0701 0A000000 		.4byte	.LVL241
 8322 0705 48000000 		.4byte	.LFE85
 8323 0709 0400     		.2byte	0x4
 8324 070b F3       		.byte	0xf3
 8325 070c 01       		.uleb128 0x1
 8326 070d 50       		.byte	0x50
 8327 070e 9F       		.byte	0x9f
 8328 070f 00000000 		.4byte	0
 8329 0713 00000000 		.4byte	0
 8330              	.LLST40:
 8331 0717 06000000 		.4byte	.LVL240
 8332 071b 0A000000 		.4byte	.LVL241
 8333 071f 0700     		.2byte	0x7
 8334 0721 70       		.byte	0x70
 8335 0722 00       		.sleb128 0
 8336 0723 32       		.byte	0x32
 8337 0724 24       		.byte	0x24
 8338 0725 73       		.byte	0x73
 8339 0726 00       		.sleb128 0
 8340 0727 22       		.byte	0x22
 8341 0728 0A000000 		.4byte	.LVL241
 8342 072c 0D000000 		.4byte	.LVL242-1
 8343 0730 0100     		.2byte	0x1
 8344 0732 50       		.byte	0x50
 8345 0733 00000000 		.4byte	0
 8346 0737 00000000 		.4byte	0
 8347              	.LLST41:
 8348 073b 0E000000 		.4byte	.LVL242
 8349 073f 12000000 		.4byte	.LVL243
 8350 0743 0200     		.2byte	0x2
 8351 0745 30       		.byte	0x30
 8352 0746 9F       		.byte	0x9f
 8353 0747 12000000 		.4byte	.LVL243
 8354 074b 40000000 		.4byte	.LVL249
 8355 074f 0100     		.2byte	0x1
 8356 0751 54       		.byte	0x54
 8357 0752 00000000 		.4byte	0
 8358 0756 00000000 		.4byte	0
 8359              	.LLST42:
 8360 075a 00000000 		.4byte	.LVL250
 8361 075e 07000000 		.4byte	.LVL251-1
 8362 0762 0100     		.2byte	0x1
 8363 0764 50       		.byte	0x50
 8364 0765 07000000 		.4byte	.LVL251-1
 8365 0769 18000000 		.4byte	.LFE89
 8366 076d 0100     		.2byte	0x1
 8367 076f 54       		.byte	0x54
 8368 0770 00000000 		.4byte	0
 8369 0774 00000000 		.4byte	0
 8370              	.LLST43:
 8371 0778 00000000 		.4byte	.LVL254
 8372 077c 04000000 		.4byte	.LVL255
 8373 0780 0200     		.2byte	0x2
ARM GAS  C:\Users\mark6\AppData\Local\Temp\ccm1Ykfm.s 			page 162


 8374 0782 30       		.byte	0x30
 8375 0783 9F       		.byte	0x9f
 8376 0784 04000000 		.4byte	.LVL255
 8377 0788 18000000 		.4byte	.LFE90
 8378 078c 0100     		.2byte	0x1
 8379 078e 53       		.byte	0x53
 8380 078f 00000000 		.4byte	0
 8381 0793 00000000 		.4byte	0
 8382              	.LLST44:
 8383 0797 0A000000 		.4byte	.LVL258
 8384 079b 0E000000 		.4byte	.LVL259
 8385 079f 0200     		.2byte	0x2
 8386 07a1 30       		.byte	0x30
 8387 07a2 9F       		.byte	0x9f
 8388 07a3 0E000000 		.4byte	.LVL259
 8389 07a7 20000000 		.4byte	.LVL262
 8390 07ab 0100     		.2byte	0x1
 8391 07ad 54       		.byte	0x54
 8392 07ae 20000000 		.4byte	.LVL262
 8393 07b2 24000000 		.4byte	.LVL263
 8394 07b6 0200     		.2byte	0x2
 8395 07b8 30       		.byte	0x30
 8396 07b9 9F       		.byte	0x9f
 8397 07ba 24000000 		.4byte	.LVL263
 8398 07be 36000000 		.4byte	.LVL267
 8399 07c2 0100     		.2byte	0x1
 8400 07c4 54       		.byte	0x54
 8401 07c5 00000000 		.4byte	0
 8402 07c9 00000000 		.4byte	0
 8403              		.section	.debug_aranges,"",%progbits
 8404 0000 FC000000 		.4byte	0xfc
 8405 0004 0200     		.2byte	0x2
 8406 0006 00000000 		.4byte	.Ldebug_info0
 8407 000a 04       		.byte	0x4
 8408 000b 00       		.byte	0
 8409 000c 0000     		.2byte	0
 8410 000e 0000     		.2byte	0
 8411 0010 00000000 		.4byte	.LFB68
 8412 0014 26000000 		.4byte	.LFE68-.LFB68
 8413 0018 00000000 		.4byte	.LFB69
 8414 001c 22000000 		.4byte	.LFE69-.LFB69
 8415 0020 00000000 		.4byte	.LFB71
 8416 0024 88000000 		.4byte	.LFE71-.LFB71
 8417 0028 00000000 		.4byte	.LFB70
 8418 002c 1A000000 		.4byte	.LFE70-.LFB70
 8419 0030 00000000 		.4byte	.LFB72
 8420 0034 24000000 		.4byte	.LFE72-.LFB72
 8421 0038 00000000 		.4byte	.LFB73
 8422 003c 2C000000 		.4byte	.LFE73-.LFB73
 8423 0040 00000000 		.4byte	.LFB74
 8424 0044 40000000 		.4byte	.LFE74-.LFB74
 8425 0048 00000000 		.4byte	.LFB75
 8426 004c 44000000 		.4byte	.LFE75-.LFB75
 8427 0050 00000000 		.4byte	.LFB78
 8428 0054 78010000 		.4byte	.LFE78-.LFB78
 8429 0058 00000000 		.4byte	.LFB79
 8430 005c 74000000 		.4byte	.LFE79-.LFB79
ARM GAS  C:\Users\mark6\AppData\Local\Temp\ccm1Ykfm.s 			page 163


 8431 0060 00000000 		.4byte	.LFB80
 8432 0064 3C010000 		.4byte	.LFE80-.LFB80
 8433 0068 00000000 		.4byte	.LFB81
 8434 006c 0C000000 		.4byte	.LFE81-.LFB81
 8435 0070 00000000 		.4byte	.LFB76
 8436 0074 D4000000 		.4byte	.LFE76-.LFB76
 8437 0078 00000000 		.4byte	.LFB77
 8438 007c 04010000 		.4byte	.LFE77-.LFB77
 8439 0080 00000000 		.4byte	.LFB67
 8440 0084 28000000 		.4byte	.LFE67-.LFB67
 8441 0088 00000000 		.4byte	.LFB66
 8442 008c 74000000 		.4byte	.LFE66-.LFB66
 8443 0090 00000000 		.4byte	.LFB63
 8444 0094 D4000000 		.4byte	.LFE63-.LFB63
 8445 0098 00000000 		.4byte	.LFB64
 8446 009c D4000000 		.4byte	.LFE64-.LFB64
 8447 00a0 00000000 		.4byte	.LFB82
 8448 00a4 30000000 		.4byte	.LFE82-.LFB82
 8449 00a8 00000000 		.4byte	.LFB83
 8450 00ac 18000000 		.4byte	.LFE83-.LFB83
 8451 00b0 00000000 		.4byte	.LFB84
 8452 00b4 5C000000 		.4byte	.LFE84-.LFB84
 8453 00b8 00000000 		.4byte	.LFB86
 8454 00bc 6C000000 		.4byte	.LFE86-.LFB86
 8455 00c0 00000000 		.4byte	.LFB87
 8456 00c4 46000000 		.4byte	.LFE87-.LFB87
 8457 00c8 00000000 		.4byte	.LFB88
 8458 00cc 48000000 		.4byte	.LFE88-.LFB88
 8459 00d0 00000000 		.4byte	.LFB85
 8460 00d4 48000000 		.4byte	.LFE85-.LFB85
 8461 00d8 00000000 		.4byte	.LFB89
 8462 00dc 18000000 		.4byte	.LFE89-.LFB89
 8463 00e0 00000000 		.4byte	.LFB90
 8464 00e4 18000000 		.4byte	.LFE90-.LFB90
 8465 00e8 00000000 		.4byte	.LFB91
 8466 00ec 3C000000 		.4byte	.LFE91-.LFB91
 8467 00f0 00000000 		.4byte	.LFB65
 8468 00f4 DC000000 		.4byte	.LFE65-.LFB65
 8469 00f8 00000000 		.4byte	0
 8470 00fc 00000000 		.4byte	0
 8471              		.section	.debug_ranges,"",%progbits
 8472              	.Ldebug_ranges0:
 8473 0000 00000000 		.4byte	.LFB68
 8474 0004 26000000 		.4byte	.LFE68
 8475 0008 00000000 		.4byte	.LFB69
 8476 000c 22000000 		.4byte	.LFE69
 8477 0010 00000000 		.4byte	.LFB71
 8478 0014 88000000 		.4byte	.LFE71
 8479 0018 00000000 		.4byte	.LFB70
 8480 001c 1A000000 		.4byte	.LFE70
 8481 0020 00000000 		.4byte	.LFB72
 8482 0024 24000000 		.4byte	.LFE72
 8483 0028 00000000 		.4byte	.LFB73
 8484 002c 2C000000 		.4byte	.LFE73
 8485 0030 00000000 		.4byte	.LFB74
 8486 0034 40000000 		.4byte	.LFE74
 8487 0038 00000000 		.4byte	.LFB75
ARM GAS  C:\Users\mark6\AppData\Local\Temp\ccm1Ykfm.s 			page 164


 8488 003c 44000000 		.4byte	.LFE75
 8489 0040 00000000 		.4byte	.LFB78
 8490 0044 78010000 		.4byte	.LFE78
 8491 0048 00000000 		.4byte	.LFB79
 8492 004c 74000000 		.4byte	.LFE79
 8493 0050 00000000 		.4byte	.LFB80
 8494 0054 3C010000 		.4byte	.LFE80
 8495 0058 00000000 		.4byte	.LFB81
 8496 005c 0C000000 		.4byte	.LFE81
 8497 0060 00000000 		.4byte	.LFB76
 8498 0064 D4000000 		.4byte	.LFE76
 8499 0068 00000000 		.4byte	.LFB77
 8500 006c 04010000 		.4byte	.LFE77
 8501 0070 00000000 		.4byte	.LFB67
 8502 0074 28000000 		.4byte	.LFE67
 8503 0078 00000000 		.4byte	.LFB66
 8504 007c 74000000 		.4byte	.LFE66
 8505 0080 00000000 		.4byte	.LFB63
 8506 0084 D4000000 		.4byte	.LFE63
 8507 0088 00000000 		.4byte	.LFB64
 8508 008c D4000000 		.4byte	.LFE64
 8509 0090 00000000 		.4byte	.LFB82
 8510 0094 30000000 		.4byte	.LFE82
 8511 0098 00000000 		.4byte	.LFB83
 8512 009c 18000000 		.4byte	.LFE83
 8513 00a0 00000000 		.4byte	.LFB84
 8514 00a4 5C000000 		.4byte	.LFE84
 8515 00a8 00000000 		.4byte	.LFB86
 8516 00ac 6C000000 		.4byte	.LFE86
 8517 00b0 00000000 		.4byte	.LFB87
 8518 00b4 46000000 		.4byte	.LFE87
 8519 00b8 00000000 		.4byte	.LFB88
 8520 00bc 48000000 		.4byte	.LFE88
 8521 00c0 00000000 		.4byte	.LFB85
 8522 00c4 48000000 		.4byte	.LFE85
 8523 00c8 00000000 		.4byte	.LFB89
 8524 00cc 18000000 		.4byte	.LFE89
 8525 00d0 00000000 		.4byte	.LFB90
 8526 00d4 18000000 		.4byte	.LFE90
 8527 00d8 00000000 		.4byte	.LFB91
 8528 00dc 3C000000 		.4byte	.LFE91
 8529 00e0 00000000 		.4byte	.LFB65
 8530 00e4 DC000000 		.4byte	.LFE65
 8531 00e8 00000000 		.4byte	0
 8532 00ec 00000000 		.4byte	0
 8533              		.section	.debug_line,"",%progbits
 8534              	.Ldebug_line0:
 8535 0000 59070000 		.section	.debug_str,"MS",%progbits,1
 8535      02004903 
 8535      00000201 
 8535      FB0E0D00 
 8535      01010101 
 8536              	.LASF134:
 8537 0000 444F574E 		.ascii	"DOWN\000"
 8537      00
 8538              	.LASF256:
 8539 0005 433A5C55 		.ascii	"C:\\Users\\mark6\\Google Drive\\Projects\\BarBot\\B"
ARM GAS  C:\Users\mark6\AppData\Local\Temp\ccm1Ykfm.s 			page 165


 8539      73657273 
 8539      5C6D6172 
 8539      6B365C47 
 8539      6F6F676C 
 8540 0032 6172426F 		.ascii	"arBot\\Bartender.cydsn\000"
 8540      745C4261 
 8540      7274656E 
 8540      6465722E 
 8540      63796473 
 8541              	.LASF203:
 8542 0048 4E554D5F 		.ascii	"NUM_DRINKS\000"
 8542      4452494E 
 8542      4B5300
 8543              	.LASF18:
 8544 0053 73697A65 		.ascii	"size_t\000"
 8544      5F7400
 8545              	.LASF19:
 8546 005a 73697A65 		.ascii	"sizetype\000"
 8546      74797065 
 8546      00
 8547              	.LASF67:
 8548 0063 70616645 		.ascii	"pafEncode\000"
 8548      6E636F64 
 8548      6500
 8549              	.LASF45:
 8550 006d 4755495F 		.ascii	"GUI_FONT_PROP_EXT\000"
 8550      464F4E54 
 8550      5F50524F 
 8550      505F4558 
 8550      5400
 8551              	.LASF133:
 8552 007f 42757474 		.ascii	"Buttons\000"
 8552      6F6E7300 
 8553              	.LASF221:
 8554 0087 55704172 		.ascii	"UpArrowPoints\000"
 8554      726F7750 
 8554      6F696E74 
 8554      7300
 8555              	.LASF10:
 8556 0095 696E7433 		.ascii	"int32_t\000"
 8556      325F7400 
 8557              	.LASF117:
 8558 009d 54524950 		.ascii	"TRIPLESEC\000"
 8558      4C455345 
 8558      4300
 8559              	.LASF12:
 8560 00a7 75696E74 		.ascii	"uint32\000"
 8560      333200
 8561              	.LASF124:
 8562 00ae 6C697175 		.ascii	"liquid\000"
 8562      696400
 8563              	.LASF216:
 8564 00b5 6472696E 		.ascii	"drink_scroll\000"
 8564      6B5F7363 
 8564      726F6C6C 
 8564      00
 8565              	.LASF204:
ARM GAS  C:\Users\mark6\AppData\Local\Temp\ccm1Ykfm.s 			page 166


 8566 00c2 72656374 		.ascii	"rects\000"
 8566      7300
 8567              	.LASF195:
 8568 00c8 7072696D 		.ascii	"prime_pump\000"
 8568      655F7075 
 8568      6D7000
 8569              	.LASF64:
 8570 00d3 70664765 		.ascii	"pfGetFontInfo\000"
 8570      74466F6E 
 8570      74496E66 
 8570      6F00
 8571              	.LASF91:
 8572 00e1 43494445 		.ascii	"CIDER\000"
 8572      5200
 8573              	.LASF23:
 8574 00e7 4C43445F 		.ascii	"LCD_RECT\000"
 8574      52454354 
 8574      00
 8575              	.LASF189:
 8576 00f0 72656C61 		.ascii	"relay_flip\000"
 8576      795F666C 
 8576      697000
 8577              	.LASF31:
 8578 00fb 5853697A 		.ascii	"XSize\000"
 8578      6500
 8579              	.LASF250:
 8580 0101 52656C61 		.ascii	"Relay_6_Read\000"
 8580      795F365F 
 8580      52656164 
 8580      00
 8581              	.LASF101:
 8582 010e 4D414C49 		.ascii	"MALIBU\000"
 8582      425500
 8583              	.LASF83:
 8584 0115 4755495F 		.ascii	"GUI_WRAPMODE\000"
 8584      57524150 
 8584      4D4F4445 
 8584      00
 8585              	.LASF241:
 8586 0122 52656C61 		.ascii	"Relay_1_Write\000"
 8586      795F315F 
 8586      57726974 
 8586      6500
 8587              	.LASF122:
 8588 0130 4C697175 		.ascii	"Liquid\000"
 8588      696400
 8589              	.LASF213:
 8590 0137 62757474 		.ascii	"button_number\000"
 8590      6F6E5F6E 
 8590      756D6265 
 8590      7200
 8591              	.LASF192:
 8592 0145 72656C61 		.ascii	"relay_off\000"
 8592      795F6F66 
 8592      6600
 8593              	.LASF68:
 8594 014f 59446973 		.ascii	"YDist\000"
ARM GAS  C:\Users\mark6\AppData\Local\Temp\ccm1Ykfm.s 			page 167


 8594      7400
 8595              	.LASF226:
 8596 0155 4755495F 		.ascii	"GUI_DispStringAt\000"
 8596      44697370 
 8596      53747269 
 8596      6E674174 
 8596      00
 8597              	.LASF105:
 8598 0166 4F52414E 		.ascii	"ORANGEJUICE\000"
 8598      47454A55 
 8598      49434500 
 8599              	.LASF197:
 8600 0172 636C6561 		.ascii	"clean_tubing\000"
 8600      6E5F7475 
 8600      62696E67 
 8600      00
 8601              	.LASF130:
 8602 017f 6E756D5F 		.ascii	"num_ingredients\000"
 8602      696E6772 
 8602      65646965 
 8602      6E747300 
 8603              	.LASF193:
 8604 018f 64697370 		.ascii	"dispense_drink\000"
 8604      656E7365 
 8604      5F647269 
 8604      6E6B00
 8605              	.LASF248:
 8606 019e 52656C61 		.ascii	"Relay_5_Read\000"
 8606      795F355F 
 8606      52656164 
 8606      00
 8607              	.LASF208:
 8608 01ab 6D656E75 		.ascii	"menu\000"
 8608      00
 8609              	.LASF77:
 8610 01b0 704D6F6E 		.ascii	"pMono\000"
 8610      6F00
 8611              	.LASF4:
 8612 01b6 6C6F6E67 		.ascii	"long int\000"
 8612      20696E74 
 8612      00
 8613              	.LASF243:
 8614 01bf 52656C61 		.ascii	"Relay_2_Write\000"
 8614      795F325F 
 8614      57726974 
 8614      6500
 8615              	.LASF196:
 8616 01cd 636C6561 		.ascii	"clear_config_data\000"
 8616      725F636F 
 8616      6E666967 
 8616      5F646174 
 8616      6100
 8617              	.LASF180:
 8618 01df 6D61696E 		.ascii	"main\000"
 8618      00
 8619              	.LASF215:
 8620 01e4 6D6F746F 		.ascii	"motor_scroll\000"
ARM GAS  C:\Users\mark6\AppData\Local\Temp\ccm1Ykfm.s 			page 168


 8620      725F7363 
 8620      726F6C6C 
 8620      00
 8621              	.LASF98:
 8622 01f1 47494E47 		.ascii	"GINGERBEER\000"
 8622      45524245 
 8622      455200
 8623              	.LASF57:
 8624 01fc 70664765 		.ascii	"pfGetLineDistX\000"
 8624      744C696E 
 8624      65446973 
 8624      745800
 8625              	.LASF42:
 8626 020b 70614368 		.ascii	"paCharInfo\000"
 8626      6172496E 
 8626      666F00
 8627              	.LASF65:
 8628 0216 70664973 		.ascii	"pfIsInFont\000"
 8628      496E466F 
 8628      6E7400
 8629              	.LASF211:
 8630 0221 72657175 		.ascii	"required_motors\000"
 8630      69726564 
 8630      5F6D6F74 
 8630      6F727300 
 8631              	.LASF104:
 8632 0231 4D494C4B 		.ascii	"MILK\000"
 8632      00
 8633              	.LASF140:
 8634 0236 434C4541 		.ascii	"CLEANING\000"
 8634      4E494E47 
 8634      00
 8635              	.LASF233:
 8636 023f 456D5F45 		.ascii	"Em_EEPROM_Start\000"
 8636      4550524F 
 8636      4D5F5374 
 8636      61727400 
 8637              	.LASF0:
 8638 024f 7369676E 		.ascii	"signed char\000"
 8638      65642063 
 8638      68617200 
 8639              	.LASF245:
 8640 025b 52656C61 		.ascii	"Relay_3_Write\000"
 8640      795F335F 
 8640      57726974 
 8640      6500
 8641              	.LASF228:
 8642 0269 4755495F 		.ascii	"GUI_FillPolygon\000"
 8642      46696C6C 
 8642      506F6C79 
 8642      676F6E00 
 8643              	.LASF153:
 8644 0279 6F6C645F 		.ascii	"old_motor\000"
 8644      6D6F746F 
 8644      7200
 8645              	.LASF254:
 8646 0283 474E5520 		.ascii	"GNU C 4.9.3 20150303 (release) [ARM/embedded-4_9-br"
ARM GAS  C:\Users\mark6\AppData\Local\Temp\ccm1Ykfm.s 			page 169


 8646      4320342E 
 8646      392E3320 
 8646      32303135 
 8646      30333033 
 8647 02b6 616E6368 		.ascii	"anch revision 221220] -mcpu=cortex-m3 -mthumb -g -O"
 8647      20726576 
 8647      6973696F 
 8647      6E203232 
 8647      31323230 
 8648 02e9 67202D66 		.ascii	"g -ffunction-sections -ffat-lto-objects\000"
 8648      66756E63 
 8648      74696F6E 
 8648      2D736563 
 8648      74696F6E 
 8649              	.LASF112:
 8650 0311 53454C54 		.ascii	"SELTZER\000"
 8650      5A455200 
 8651              	.LASF1:
 8652 0319 756E7369 		.ascii	"unsigned char\000"
 8652      676E6564 
 8652      20636861 
 8652      7200
 8653              	.LASF136:
 8654 0327 4D6F6465 		.ascii	"Modes\000"
 8654      7300
 8655              	.LASF253:
 8656 032d 456D5F45 		.ascii	"Em_EEPROM_Write\000"
 8656      4550524F 
 8656      4D5F5772 
 8656      69746500 
 8657              	.LASF132:
 8658 033d 416C635F 		.ascii	"Alc_and_Mixies\000"
 8658      616E645F 
 8658      4D697869 
 8658      657300
 8659              	.LASF51:
 8660 034c 4C486569 		.ascii	"LHeight\000"
 8660      67687400 
 8661              	.LASF247:
 8662 0354 52656C61 		.ascii	"Relay_4_Write\000"
 8662      795F345F 
 8662      57726974 
 8662      6500
 8663              	.LASF102:
 8664 0362 4D415247 		.ascii	"MARGARITAMIX\000"
 8664      41524954 
 8664      414D4958 
 8664      00
 8665              	.LASF185:
 8666 036f 636F6D70 		.ascii	"comp\000"
 8666      00
 8667              	.LASF142:
 8668 0374 76616C75 		.ascii	"value\000"
 8668      6500
 8669              	.LASF74:
 8670 037a 4755495F 		.ascii	"GUI_ISINFONT\000"
 8670      4953494E 
ARM GAS  C:\Users\mark6\AppData\Local\Temp\ccm1Ykfm.s 			page 170


 8670      464F4E54 
 8670      00
 8671              	.LASF69:
 8672 0387 584D6167 		.ascii	"XMag\000"
 8672      00
 8673              	.LASF49:
 8674 038c 466C6167 		.ascii	"Flags\000"
 8674      7300
 8675              	.LASF15:
 8676 0392 63686172 		.ascii	"char\000"
 8676      00
 8677              	.LASF220:
 8678 0397 63757272 		.ascii	"current_display\000"
 8678      656E745F 
 8678      64697370 
 8678      6C617900 
 8679              	.LASF109:
 8680 03a7 50494E45 		.ascii	"PINEAPPLEJUICE\000"
 8680      4150504C 
 8680      454A5549 
 8680      434500
 8681              	.LASF32:
 8682 03b6 58446973 		.ascii	"XDist\000"
 8682      7400
 8683              	.LASF206:
 8684 03bc 636F6E66 		.ascii	"config_data\000"
 8684      69675F64 
 8684      61746100 
 8685              	.LASF39:
 8686 03c8 4755495F 		.ascii	"GUI_CHARINFO_EXT\000"
 8686      43484152 
 8686      494E464F 
 8686      5F455854 
 8686      00
 8687              	.LASF225:
 8688 03d9 4755495F 		.ascii	"GUI_DispStringInRectWrap\000"
 8688      44697370 
 8688      53747269 
 8688      6E67496E 
 8688      52656374 
 8689              	.LASF161:
 8690 03f2 696E6772 		.ascii	"ingredient_check\000"
 8690      65646965 
 8690      6E745F63 
 8690      6865636B 
 8690      00
 8691              	.LASF224:
 8692 0403 4755495F 		.ascii	"GUI_DrawLine\000"
 8692      44726177 
 8692      4C696E65 
 8692      00
 8693              	.LASF24:
 8694 0410 4755495F 		.ascii	"GUI_COLOR\000"
 8694      434F4C4F 
 8694      5200
 8695              	.LASF93:
 8696 041a 4352414E 		.ascii	"CRANBERRYJUICE\000"
ARM GAS  C:\Users\mark6\AppData\Local\Temp\ccm1Ykfm.s 			page 171


 8696      42455252 
 8696      594A5549 
 8696      434500
 8697              	.LASF78:
 8698 0429 7050726F 		.ascii	"pProp\000"
 8698      7000
 8699              	.LASF151:
 8700 042f 64726177 		.ascii	"draw_active_config\000"
 8700      5F616374 
 8700      6976655F 
 8700      636F6E66 
 8700      696700
 8701              	.LASF147:
 8702 0442 6368616E 		.ascii	"change_config_color\000"
 8702      67655F63 
 8702      6F6E6669 
 8702      675F636F 
 8702      6C6F7200 
 8703              	.LASF249:
 8704 0456 52656C61 		.ascii	"Relay_5_Write\000"
 8704      795F355F 
 8704      57726974 
 8704      6500
 8705              	.LASF135:
 8706 0464 5355424D 		.ascii	"SUBMIT\000"
 8706      495400
 8707              	.LASF210:
 8708 046b 73706563 		.ascii	"special_sequence\000"
 8708      69616C5F 
 8708      73657175 
 8708      656E6365 
 8708      00
 8709              	.LASF20:
 8710 047c 75696E74 		.ascii	"uint\000"
 8710      00
 8711              	.LASF103:
 8712 0481 4D454C4F 		.ascii	"MELONLIQUEUR\000"
 8712      4E4C4951 
 8712      55455552 
 8712      00
 8713              	.LASF27:
 8714 048e 46697273 		.ascii	"FirstChar\000"
 8714      74436861 
 8714      7200
 8715              	.LASF92:
 8716 0498 434F4B45 		.ascii	"COKE\000"
 8716      00
 8717              	.LASF73:
 8718 049d 4755495F 		.ascii	"GUI_GETFONTINFO\000"
 8718      47455446 
 8718      4F4E5449 
 8718      4E464F00 
 8719              	.LASF155:
 8720 04ad 74657874 		.ascii	"text\000"
 8720      00
 8721              	.LASF37:
 8722 04b2 58506F73 		.ascii	"XPos\000"
ARM GAS  C:\Users\mark6\AppData\Local\Temp\ccm1Ykfm.s 			page 172


 8722      00
 8723              	.LASF26:
 8724 04b7 4755495F 		.ascii	"GUI_FONT_TRANSLIST\000"
 8724      464F4E54 
 8724      5F545241 
 8724      4E534C49 
 8724      535400
 8725              	.LASF167:
 8726 04ca 785F7061 		.ascii	"x_padding\000"
 8726      6464696E 
 8726      6700
 8727              	.LASF120:
 8728 04d4 57484954 		.ascii	"WHITECLAW\000"
 8728      45434C41 
 8728      5700
 8729              	.LASF234:
 8730 04de 6D616C6C 		.ascii	"malloc\000"
 8730      6F6300
 8731              	.LASF82:
 8732 04e5 4755495F 		.ascii	"GUI_WRAPMODE_CHAR\000"
 8732      57524150 
 8732      4D4F4445 
 8732      5F434841 
 8732      5200
 8733              	.LASF118:
 8734 04f7 564F444B 		.ascii	"VODKA\000"
 8734      4100
 8735              	.LASF123:
 8736 04fd 496E6772 		.ascii	"Ingredients\000"
 8736      65646965 
 8736      6E747300 
 8737              	.LASF240:
 8738 0509 52656C61 		.ascii	"Relay_1_Read\000"
 8738      795F315F 
 8738      52656164 
 8738      00
 8739              	.LASF251:
 8740 0516 52656C61 		.ascii	"Relay_6_Write\000"
 8740      795F365F 
 8740      57726974 
 8740      6500
 8741              	.LASF106:
 8742 0524 50415454 		.ascii	"PATTYOSHURRICANEMIX\000"
 8742      594F5348 
 8742      55525249 
 8742      43414E45 
 8742      4D495800 
 8743              	.LASF100:
 8744 0538 4C454D4F 		.ascii	"LEMONADE\000"
 8744      4E414445 
 8744      00
 8745              	.LASF33:
 8746 0541 42797465 		.ascii	"BytesPerLine\000"
 8746      73506572 
 8746      4C696E65 
 8746      00
 8747              	.LASF222:
ARM GAS  C:\Users\mark6\AppData\Local\Temp\ccm1Ykfm.s 			page 173


 8748 054e 446F776E 		.ascii	"DownArrowPoints\000"
 8748      4172726F 
 8748      77506F69 
 8748      6E747300 
 8749              	.LASF227:
 8750 055e 4755495F 		.ascii	"GUI_FillCircle\000"
 8750      46696C6C 
 8750      43697263 
 8750      6C6500
 8751              	.LASF207:
 8752 056d 6472696E 		.ascii	"drinks\000"
 8752      6B7300
 8753              	.LASF157:
 8754 0574 63686563 		.ascii	"check_availability\000"
 8754      6B5F6176 
 8754      61696C61 
 8754      62696C69 
 8754      747900
 8755              	.LASF229:
 8756 0587 4755495F 		.ascii	"GUI_SetTextAlign\000"
 8756      53657454 
 8756      65787441 
 8756      6C69676E 
 8756      00
 8757              	.LASF201:
 8758 0598 4755495F 		.ascii	"GUI_Font8x16\000"
 8758      466F6E74 
 8758      38783136 
 8758      00
 8759              	.LASF72:
 8760 05a5 4755495F 		.ascii	"GUI_GETCHARDISTX\000"
 8760      47455443 
 8760      48415244 
 8760      49535458 
 8760      00
 8761              	.LASF30:
 8762 05b6 4755495F 		.ascii	"GUI_FONT_TRANSINFO\000"
 8762      464F4E54 
 8762      5F545241 
 8762      4E53494E 
 8762      464F00
 8763              	.LASF137:
 8764 05c9 434F4E46 		.ascii	"CONFIG\000"
 8764      494700
 8765              	.LASF81:
 8766 05d0 4755495F 		.ascii	"GUI_WRAPMODE_WORD\000"
 8766      57524150 
 8766      4D4F4445 
 8766      5F574F52 
 8766      4400
 8767              	.LASF5:
 8768 05e2 6C6F6E67 		.ascii	"long unsigned int\000"
 8768      20756E73 
 8768      69676E65 
 8768      6420696E 
 8768      7400
 8769              	.LASF89:
ARM GAS  C:\Users\mark6\AppData\Local\Temp\ccm1Ykfm.s 			page 174


 8770 05f4 424C4F4F 		.ascii	"BLOODYMARYMIX\000"
 8770      44594D41 
 8770      52594D49 
 8770      5800
 8771              	.LASF198:
 8772 0602 5375626D 		.ascii	"Submit_Button_Handler\000"
 8772      69745F42 
 8772      7574746F 
 8772      6E5F4861 
 8772      6E646C65 
 8773              	.LASF35:
 8774 0618 4755495F 		.ascii	"GUI_CHARINFO\000"
 8774      43484152 
 8774      494E464F 
 8774      00
 8775              	.LASF172:
 8776 0625 63726561 		.ascii	"create_config_rects\000"
 8776      74655F63 
 8776      6F6E6669 
 8776      675F7265 
 8776      63747300 
 8777              	.LASF186:
 8778 0639 656C656D 		.ascii	"elem1\000"
 8778      3100
 8779              	.LASF187:
 8780 063f 656C656D 		.ascii	"elem2\000"
 8780      3200
 8781              	.LASF179:
 8782 0645 4D61696E 		.ascii	"MainTask\000"
 8782      5461736B 
 8782      00
 8783              	.LASF178:
 8784 064e 64697370 		.ascii	"display_dispenser\000"
 8784      6C61795F 
 8784      64697370 
 8784      656E7365 
 8784      7200
 8785              	.LASF127:
 8786 0660 4472696E 		.ascii	"Drinks\000"
 8786      6B7300
 8787              	.LASF131:
 8788 0667 4472696E 		.ascii	"Drink\000"
 8788      6B00
 8789              	.LASF159:
 8790 066d 61766169 		.ascii	"available\000"
 8790      6C61626C 
 8790      6500
 8791              	.LASF55:
 8792 0677 74475549 		.ascii	"tGUI_GetLineLen\000"
 8792      5F476574 
 8792      4C696E65 
 8792      4C656E00 
 8793              	.LASF235:
 8794 0687 67656E65 		.ascii	"generate_drinks\000"
 8794      72617465 
 8794      5F647269 
 8794      6E6B7300 
ARM GAS  C:\Users\mark6\AppData\Local\Temp\ccm1Ykfm.s 			page 175


 8795              	.LASF173:
 8796 0697 636F6E66 		.ascii	"config_inc\000"
 8796      69675F69 
 8796      6E6300
 8797              	.LASF94:
 8798 06a2 4441524B 		.ascii	"DARKRUM\000"
 8798      52554D00 
 8799              	.LASF158:
 8800 06aa 6472696E 		.ascii	"drink\000"
 8800      6B00
 8801              	.LASF95:
 8802 06b0 444F4354 		.ascii	"DOCTOR\000"
 8802      4F5200
 8803              	.LASF66:
 8804 06b7 70664765 		.ascii	"pfGetCharInfo\000"
 8804      74436861 
 8804      72496E66 
 8804      6F00
 8805              	.LASF6:
 8806 06c5 6C6F6E67 		.ascii	"long long int\000"
 8806      206C6F6E 
 8806      6720696E 
 8806      7400
 8807              	.LASF239:
 8808 06d3 4755495F 		.ascii	"GUI_Init\000"
 8808      496E6974 
 8808      00
 8809              	.LASF154:
 8810 06dc 72656472 		.ascii	"redraw_config_text\000"
 8810      61775F63 
 8810      6F6E6669 
 8810      675F7465 
 8810      787400
 8811              	.LASF25:
 8812 06ef 4755495F 		.ascii	"GUI_RECT\000"
 8812      52454354 
 8812      00
 8813              	.LASF14:
 8814 06f8 646F7562 		.ascii	"double\000"
 8814      6C6500
 8815              	.LASF194:
 8816 06ff 6472696E 		.ascii	"drink_number\000"
 8816      6B5F6E75 
 8816      6D626572 
 8816      00
 8817              	.LASF246:
 8818 070c 52656C61 		.ascii	"Relay_4_Read\000"
 8818      795F345F 
 8818      52656164 
 8818      00
 8819              	.LASF125:
 8820 0719 616D6F75 		.ascii	"amount\000"
 8820      6E7400
 8821              	.LASF119:
 8822 0720 57484953 		.ascii	"WHISKEY\000"
 8822      4B455900 
 8823              	.LASF200:
ARM GAS  C:\Users\mark6\AppData\Local\Temp\ccm1Ykfm.s 			page 176


 8824 0728 49544D5F 		.ascii	"ITM_RxBuffer\000"
 8824      52784275 
 8824      66666572 
 8824      00
 8825              	.LASF223:
 8826 0735 4755495F 		.ascii	"GUI_SetColor\000"
 8826      53657443 
 8826      6F6C6F72 
 8826      00
 8827              	.LASF111:
 8828 0742 52454442 		.ascii	"REDBULL\000"
 8828      554C4C00 
 8829              	.LASF209:
 8830 074a 70726576 		.ascii	"previous_presses\000"
 8830      696F7573 
 8830      5F707265 
 8830      73736573 
 8830      00
 8831              	.LASF13:
 8832 075b 666C6F61 		.ascii	"float\000"
 8832      7400
 8833              	.LASF176:
 8834 0761 636F756E 		.ascii	"count\000"
 8834      7400
 8835              	.LASF8:
 8836 0767 756E7369 		.ascii	"unsigned int\000"
 8836      676E6564 
 8836      20696E74 
 8836      00
 8837              	.LASF40:
 8838 0774 46697273 		.ascii	"First\000"
 8838      7400
 8839              	.LASF54:
 8840 077a 74475549 		.ascii	"tGUI_GetLineDistX\000"
 8840      5F476574 
 8840      4C696E65 
 8840      44697374 
 8840      5800
 8841              	.LASF87:
 8842 078c 42415245 		.ascii	"BAREFOOT\000"
 8842      464F4F54 
 8842      00
 8843              	.LASF62:
 8844 0795 70664469 		.ascii	"pfDispChar\000"
 8844      73704368 
 8844      617200
 8845              	.LASF174:
 8846 07a0 636C6561 		.ascii	"clean_rect\000"
 8846      6E5F7265 
 8846      637400
 8847              	.LASF16:
 8848 07ab 63797374 		.ascii	"cystatus\000"
 8848      61747573 
 8848      00
 8849              	.LASF214:
 8850 07b4 6D697869 		.ascii	"mixie_scroll\000"
 8850      655F7363 
ARM GAS  C:\Users\mark6\AppData\Local\Temp\ccm1Ykfm.s 			page 177


 8850      726F6C6C 
 8850      00
 8851              	.LASF231:
 8852 07c1 4755495F 		.ascii	"GUI_Clear\000"
 8852      436C6561 
 8852      7200
 8853              	.LASF202:
 8854 07cb 4C697175 		.ascii	"Liquids\000"
 8854      69647300 
 8855              	.LASF48:
 8856 07d3 4755495F 		.ascii	"GUI_FONT_MONO\000"
 8856      464F4E54 
 8856      5F4D4F4E 
 8856      4F00
 8857              	.LASF29:
 8858 07e1 704C6973 		.ascii	"pList\000"
 8858      7400
 8859              	.LASF218:
 8860 07e7 6D656E75 		.ascii	"menu_length\000"
 8860      5F6C656E 
 8860      67746800 
 8861              	.LASF96:
 8862 07f3 45564552 		.ascii	"EVERCLEAR\000"
 8862      434C4541 
 8862      5200
 8863              	.LASF116:
 8864 07fd 544F4E49 		.ascii	"TONIC\000"
 8864      4300
 8865              	.LASF88:
 8866 0803 42454552 		.ascii	"BEER\000"
 8866      00
 8867              	.LASF141:
 8868 0808 6C697374 		.ascii	"list\000"
 8868      00
 8869              	.LASF56:
 8870 080d 74474C5F 		.ascii	"tGL_DispLine\000"
 8870      44697370 
 8870      4C696E65 
 8870      00
 8871              	.LASF181:
 8872 081a 65657072 		.ascii	"eeprom_i\000"
 8872      6F6D5F69 
 8872      00
 8873              	.LASF177:
 8874 0823 75706461 		.ascii	"update_dispenser_text\000"
 8874      74655F64 
 8874      69737065 
 8874      6E736572 
 8874      5F746578 
 8875              	.LASF150:
 8876 0839 72656374 		.ascii	"rect\000"
 8876      00
 8877              	.LASF97:
 8878 083e 4741544F 		.ascii	"GATORADE\000"
 8878      52414445 
 8878      00
 8879              	.LASF166:
ARM GAS  C:\Users\mark6\AppData\Local\Temp\ccm1Ykfm.s 			page 178


 8880 0847 63726561 		.ascii	"create_dispenser_rects\000"
 8880      74655F64 
 8880      69737065 
 8880      6E736572 
 8880      5F726563 
 8881              	.LASF190:
 8882 085e 62757474 		.ascii	"button_num\000"
 8882      6F6E5F6E 
 8882      756D00
 8883              	.LASF175:
 8884 0869 636C6561 		.ascii	"clean_number\000"
 8884      6E5F6E75 
 8884      6D626572 
 8884      00
 8885              	.LASF22:
 8886 0876 4755495F 		.ascii	"GUI_POINT\000"
 8886      504F494E 
 8886      5400
 8887              	.LASF164:
 8888 0880 67656E65 		.ascii	"generate_menu\000"
 8888      72617465 
 8888      5F6D656E 
 8888      7500
 8889              	.LASF126:
 8890 088e 496E6772 		.ascii	"Ingredient\000"
 8890      65646965 
 8890      6E7400
 8891              	.LASF238:
 8892 0899 446F776E 		.ascii	"Down_Int_StartEx\000"
 8892      5F496E74 
 8892      5F537461 
 8892      72744578 
 8892      00
 8893              	.LASF146:
 8894 08aa 70757368 		.ascii	"push_to_list\000"
 8894      5F746F5F 
 8894      6C697374 
 8894      00
 8895              	.LASF53:
 8896 08b7 4755495F 		.ascii	"GUI_FONTINFO\000"
 8896      464F4E54 
 8896      494E464F 
 8896      00
 8897              	.LASF17:
 8898 08c4 63796973 		.ascii	"cyisraddress\000"
 8898      72616464 
 8898      72657373 
 8898      00
 8899              	.LASF182:
 8900 08d1 446F776E 		.ascii	"Down_Button_Handler\000"
 8900      5F427574 
 8900      746F6E5F 
 8900      48616E64 
 8900      6C657200 
 8901              	.LASF143:
 8902 08e5 73697A65 		.ascii	"size\000"
 8902      00
ARM GAS  C:\Users\mark6\AppData\Local\Temp\ccm1Ykfm.s 			page 179


 8903              	.LASF7:
 8904 08ea 6C6F6E67 		.ascii	"long long unsigned int\000"
 8904      206C6F6E 
 8904      6720756E 
 8904      7369676E 
 8904      65642069 
 8905              	.LASF252:
 8906 0901 43794465 		.ascii	"CyDelay\000"
 8906      6C617900 
 8907              	.LASF184:
 8908 0909 6D735F74 		.ascii	"ms_to_dispense\000"
 8908      6F5F6469 
 8908      7370656E 
 8908      736500
 8909              	.LASF199:
 8910 0918 65657072 		.ascii	"eeprom_config_data\000"
 8910      6F6D5F63 
 8910      6F6E6669 
 8910      675F6461 
 8910      746100
 8911              	.LASF114:
 8912 092b 53505249 		.ascii	"SPRITE\000"
 8912      544500
 8913              	.LASF121:
 8914 0932 57484954 		.ascii	"WHITERUM\000"
 8914      4552554D 
 8914      00
 8915              	.LASF71:
 8916 093b 4755495F 		.ascii	"GUI_DISPCHAR\000"
 8916      44495350 
 8916      43484152 
 8916      00
 8917              	.LASF110:
 8918 0948 50494E4B 		.ascii	"PINKWHITNEY\000"
 8918      57484954 
 8918      4E455900 
 8919              	.LASF99:
 8920 0954 4B41484C 		.ascii	"KAHLUA\000"
 8920      554100
 8921              	.LASF21:
 8922 095b 4C43445F 		.ascii	"LCD_COLOR\000"
 8922      434F4C4F 
 8922      5200
 8923              	.LASF80:
 8924 0965 4755495F 		.ascii	"GUI_WRAPMODE_NONE\000"
 8924      57524150 
 8924      4D4F4445 
 8924      5F4E4F4E 
 8924      4500
 8925              	.LASF219:
 8926 0977 6D656E75 		.ascii	"menu_indices\000"
 8926      5F696E64 
 8926      69636573 
 8926      00
 8927              	.LASF47:
 8928 0984 70547261 		.ascii	"pTrans\000"
 8928      6E7300
ARM GAS  C:\Users\mark6\AppData\Local\Temp\ccm1Ykfm.s 			page 180


 8929              	.LASF44:
 8930 098b 4755495F 		.ascii	"GUI_FONT_PROP\000"
 8930      464F4E54 
 8930      5F50524F 
 8930      5000
 8931              	.LASF59:
 8932 0999 70664469 		.ascii	"pfDispLine\000"
 8932      73704C69 
 8932      6E6500
 8933              	.LASF217:
 8934 09a4 74696D65 		.ascii	"timer_count\000"
 8934      725F636F 
 8934      756E7400 
 8935              	.LASF75:
 8936 09b0 4755495F 		.ascii	"GUI_GETCHARINFO\000"
 8936      47455443 
 8936      48415249 
 8936      4E464F00 
 8937              	.LASF188:
 8938 09c0 6765745F 		.ascii	"get_required_motors\000"
 8938      72657175 
 8938      69726564 
 8938      5F6D6F74 
 8938      6F727300 
 8939              	.LASF170:
 8940 09d4 7469746C 		.ascii	"title_rect\000"
 8940      655F7265 
 8940      637400
 8941              	.LASF149:
 8942 09df 636F6C6F 		.ascii	"color\000"
 8942      7200
 8943              	.LASF139:
 8944 09e5 53454C45 		.ascii	"SELECTMIXIE\000"
 8944      43544D49 
 8944      58494500 
 8945              	.LASF70:
 8946 09f1 594D6167 		.ascii	"YMag\000"
 8946      00
 8947              	.LASF163:
 8948 09f6 64697370 		.ascii	"display_cleaning\000"
 8948      6C61795F 
 8948      636C6561 
 8948      6E696E67 
 8948      00
 8949              	.LASF58:
 8950 0a07 70664765 		.ascii	"pfGetLineLen\000"
 8950      744C696E 
 8950      654C656E 
 8950      00
 8951              	.LASF86:
 8952 0a14 4241494C 		.ascii	"BAILEYS\000"
 8952      45595300 
 8953              	.LASF52:
 8954 0a1c 43486569 		.ascii	"CHeight\000"
 8954      67687400 
 8955              	.LASF107:
 8956 0a24 50455050 		.ascii	"PEPPERMINTSCHANPPS\000"
ARM GAS  C:\Users\mark6\AppData\Local\Temp\ccm1Ykfm.s 			page 181


 8956      45524D49 
 8956      4E545343 
 8956      48414E50 
 8956      505300
 8957              	.LASF115:
 8958 0a37 54455155 		.ascii	"TEQUILA\000"
 8958      494C4100 
 8959              	.LASF85:
 8960 0a3f 41425349 		.ascii	"ABSINTHE\000"
 8960      4E544845 
 8960      00
 8961              	.LASF128:
 8962 0a48 6E616D65 		.ascii	"name\000"
 8962      00
 8963              	.LASF152:
 8964 0a4d 6E65775F 		.ascii	"new_motor\000"
 8964      6D6F746F 
 8964      7200
 8965              	.LASF11:
 8966 0a57 75696E74 		.ascii	"uint8\000"
 8966      3800
 8967              	.LASF212:
 8968 0a5d 64697370 		.ascii	"dispense_amount\000"
 8968      656E7365 
 8968      5F616D6F 
 8968      756E7400 
 8969              	.LASF165:
 8970 0a6d 64697370 		.ascii	"display_config\000"
 8970      6C61795F 
 8970      636F6E66 
 8970      696700
 8971              	.LASF191:
 8972 0a7c 72656C61 		.ascii	"relay_on\000"
 8972      795F6F6E 
 8972      00
 8973              	.LASF2:
 8974 0a85 73686F72 		.ascii	"short int\000"
 8974      7420696E 
 8974      7400
 8975              	.LASF171:
 8976 0a8f 6E65775F 		.ascii	"new_rect\000"
 8976      72656374 
 8976      00
 8977              	.LASF60:
 8978 0a98 74475549 		.ascii	"tGUI_ENC_APIList\000"
 8978      5F454E43 
 8978      5F415049 
 8978      4C697374 
 8978      00
 8979              	.LASF148:
 8980 0aa9 6D6F746F 		.ascii	"motor\000"
 8980      7200
 8981              	.LASF61:
 8982 0aaf 4755495F 		.ascii	"GUI_FONT\000"
 8982      464F4E54 
 8982      00
 8983              	.LASF41:
ARM GAS  C:\Users\mark6\AppData\Local\Temp\ccm1Ykfm.s 			page 182


 8984 0ab8 4C617374 		.ascii	"Last\000"
 8984      00
 8985              	.LASF113:
 8986 0abd 53504943 		.ascii	"SPICEDRUM\000"
 8986      45445255 
 8986      4D00
 8987              	.LASF38:
 8988 0ac7 59506F73 		.ascii	"YPos\000"
 8988      00
 8989              	.LASF79:
 8990 0acc 7050726F 		.ascii	"pPropExt\000"
 8990      70457874 
 8990      00
 8991              	.LASF205:
 8992 0ad5 64697370 		.ascii	"dispenser_rects\000"
 8992      656E7365 
 8992      725F7265 
 8992      63747300 
 8993              	.LASF108:
 8994 0ae5 50494E41 		.ascii	"PINACOLADAMIX\000"
 8994      434F4C41 
 8994      44414D49 
 8994      5800
 8995              	.LASF84:
 8996 0af3 4E4F4452 		.ascii	"NODRINK\000"
 8996      494E4B00 
 8997              	.LASF76:
 8998 0afb 70466F6E 		.ascii	"pFontData\000"
 8998      74446174 
 8998      6100
 8999              	.LASF63:
 9000 0b05 70664765 		.ascii	"pfGetCharDistX\000"
 9000      74436861 
 9000      72446973 
 9000      745800
 9001              	.LASF50:
 9002 0b14 42617365 		.ascii	"Baseline\000"
 9002      6C696E65 
 9002      00
 9003              	.LASF138:
 9004 0b1d 44495350 		.ascii	"DISPLAY\000"
 9004      4C415900 
 9005              	.LASF144:
 9006 0b25 6C697374 		.ascii	"list1\000"
 9006      3100
 9007              	.LASF145:
 9008 0b2b 6C697374 		.ascii	"list2\000"
 9008      3200
 9009              	.LASF168:
 9010 0b31 795F7061 		.ascii	"y_padding\000"
 9010      6464696E 
 9010      6700
 9011              	.LASF162:
 9012 0b3b 6C697175 		.ascii	"liquid_check\000"
 9012      69645F63 
 9012      6865636B 
 9012      00
ARM GAS  C:\Users\mark6\AppData\Local\Temp\ccm1Ykfm.s 			page 183


 9013              	.LASF236:
 9014 0b48 5375626D 		.ascii	"Submit_Int_StartEx\000"
 9014      69745F49 
 9014      6E745F53 
 9014      74617274 
 9014      457800
 9015              	.LASF244:
 9016 0b5b 52656C61 		.ascii	"Relay_3_Read\000"
 9016      795F335F 
 9016      52656164 
 9016      00
 9017              	.LASF160:
 9018 0b68 696E6772 		.ascii	"ingredient\000"
 9018      65646965 
 9018      6E7400
 9019              	.LASF36:
 9020 0b73 5953697A 		.ascii	"YSize\000"
 9020      6500
 9021              	.LASF255:
 9022 0b79 2E5C6D61 		.ascii	".\\main.c\000"
 9022      696E2E63 
 9022      00
 9023              	.LASF28:
 9024 0b82 4C617374 		.ascii	"LastChar\000"
 9024      43686172 
 9024      00
 9025              	.LASF3:
 9026 0b8b 73686F72 		.ascii	"short unsigned int\000"
 9026      7420756E 
 9026      7369676E 
 9026      65642069 
 9026      6E7400
 9027              	.LASF129:
 9028 0b9e 696E6772 		.ascii	"ingredients\000"
 9028      65646965 
 9028      6E747300 
 9029              	.LASF46:
 9030 0baa 70547261 		.ascii	"pTransData\000"
 9030      6E734461 
 9030      746100
 9031              	.LASF90:
 9032 0bb5 4348414D 		.ascii	"CHAMPAGNE\000"
 9032      5041474E 
 9032      4500
 9033              	.LASF230:
 9034 0bbf 4755495F 		.ascii	"GUI_SetFont\000"
 9034      53657446 
 9034      6F6E7400 
 9035              	.LASF169:
 9036 0bcb 795F696E 		.ascii	"y_inc\000"
 9036      6300
 9037              	.LASF9:
 9038 0bd1 5F5F696E 		.ascii	"__int32_t\000"
 9038      7433325F 
 9038      7400
 9039              	.LASF43:
 9040 0bdb 704E6578 		.ascii	"pNext\000"
ARM GAS  C:\Users\mark6\AppData\Local\Temp\ccm1Ykfm.s 			page 184


 9040      7400
 9041              	.LASF34:
 9042 0be1 70446174 		.ascii	"pData\000"
 9042      6100
 9043              	.LASF242:
 9044 0be7 52656C61 		.ascii	"Relay_2_Read\000"
 9044      795F325F 
 9044      52656164 
 9044      00
 9045              	.LASF183:
 9046 0bf4 55705F42 		.ascii	"Up_Button_Handler\000"
 9046      7574746F 
 9046      6E5F4861 
 9046      6E646C65 
 9046      7200
 9047              	.LASF237:
 9048 0c06 55705F49 		.ascii	"Up_Int_StartEx\000"
 9048      6E745F53 
 9048      74617274 
 9048      457800
 9049              	.LASF156:
 9050 0c15 636F6D70 		.ascii	"compare_lists\000"
 9050      6172655F 
 9050      6C697374 
 9050      7300
 9051              	.LASF232:
 9052 0c23 5350494D 		.ascii	"SPIM_1_Start\000"
 9052      5F315F53 
 9052      74617274 
 9052      00
 9053              		.ident	"GCC: (GNU Tools for ARM Embedded Processors) 4.9.3 20150303 (release) [ARM/embedded-4_9-br
