ARM GAS  C:\Users\mark6\AppData\Local\Temp\ccQgPzp9.s 			page 1


   1              		.syntax unified
   2              		.cpu cortex-m3
   3              		.fpu softvfp
   4              		.eabi_attribute 20, 1
   5              		.eabi_attribute 21, 1
   6              		.eabi_attribute 23, 3
   7              		.eabi_attribute 24, 1
   8              		.eabi_attribute 25, 1
   9              		.eabi_attribute 26, 1
  10              		.eabi_attribute 30, 1
  11              		.eabi_attribute 34, 1
  12              		.eabi_attribute 18, 4
  13              		.thumb
  14              		.file	"RTC.c"
  15              		.text
  16              	.Ltext0:
  17              		.cfi_sections	.debug_frame
  18              		.section	.text.RTC_DayOfWeek,"ax",%progbits
  19              		.align	2
  20              		.thumb
  21              		.thumb_func
  22              		.type	RTC_DayOfWeek, %function
  23              	RTC_DayOfWeek:
  24              	.LFB40:
  25              		.file 1 ".\\Generated_Source\\PSoC5\\RTC.c"
   1:.\Generated_Source\PSoC5/RTC.c **** /*******************************************************************************
   2:.\Generated_Source\PSoC5/RTC.c **** * File Name: RTC.c
   3:.\Generated_Source\PSoC5/RTC.c **** * Version 2.0
   4:.\Generated_Source\PSoC5/RTC.c **** *
   5:.\Generated_Source\PSoC5/RTC.c **** * Description:
   6:.\Generated_Source\PSoC5/RTC.c **** *  This file provides the source code to the API for the RTC Component.
   7:.\Generated_Source\PSoC5/RTC.c **** *
   8:.\Generated_Source\PSoC5/RTC.c **** ********************************************************************************
   9:.\Generated_Source\PSoC5/RTC.c **** * Copyright 2008-2013, Cypress Semiconductor Corporation.  All rights reserved.
  10:.\Generated_Source\PSoC5/RTC.c **** * You may use this file only in accordance with the license, terms, conditions,
  11:.\Generated_Source\PSoC5/RTC.c **** * disclaimers, and limitations in the end user license agreement accompanying
  12:.\Generated_Source\PSoC5/RTC.c **** * the software package with which this file was provided.
  13:.\Generated_Source\PSoC5/RTC.c **** *******************************************************************************/
  14:.\Generated_Source\PSoC5/RTC.c **** 
  15:.\Generated_Source\PSoC5/RTC.c **** #include "RTC.h"
  16:.\Generated_Source\PSoC5/RTC.c **** #include "CyLib.h"
  17:.\Generated_Source\PSoC5/RTC.c **** 
  18:.\Generated_Source\PSoC5/RTC.c **** /* Function Prototypes */
  19:.\Generated_Source\PSoC5/RTC.c **** static void  RTC_SetInitValues(void)     ;
  20:.\Generated_Source\PSoC5/RTC.c **** static uint8 RTC_DayOfWeek(uint8 dayOfMonth, uint8 month, uint16 year)
  21:.\Generated_Source\PSoC5/RTC.c ****                                                       ;
  22:.\Generated_Source\PSoC5/RTC.c **** #if (1u == RTC_DST_FUNC_ENABLE)
  23:.\Generated_Source\PSoC5/RTC.c ****     static void  RTC_DSTDateConversion(void) ;
  24:.\Generated_Source\PSoC5/RTC.c **** #endif /* 1u == RTC_DST_FUNC_ENABLE */
  25:.\Generated_Source\PSoC5/RTC.c **** 
  26:.\Generated_Source\PSoC5/RTC.c **** 
  27:.\Generated_Source\PSoC5/RTC.c **** /* Variables were not initialized */
  28:.\Generated_Source\PSoC5/RTC.c **** uint8 RTC_initVar = 0u;
  29:.\Generated_Source\PSoC5/RTC.c **** 
  30:.\Generated_Source\PSoC5/RTC.c **** /* Time and date variables
  31:.\Generated_Source\PSoC5/RTC.c **** * Initial value are: Second = 0-59, Minute = 0-59, Hour = 0-23, DayOfWeek = 1-7,
  32:.\Generated_Source\PSoC5/RTC.c **** * DayOfMonth = 1-31, DayOfYear = 1-366, Month = 1-12, Year = 1900-2200.
ARM GAS  C:\Users\mark6\AppData\Local\Temp\ccQgPzp9.s 			page 2


  33:.\Generated_Source\PSoC5/RTC.c **** */
  34:.\Generated_Source\PSoC5/RTC.c **** RTC_TIME_DATE RTC_currentTimeDate = {0u, 0u, 0u, 1u, 1u, 1u, 1u, 1900u};
  35:.\Generated_Source\PSoC5/RTC.c **** 
  36:.\Generated_Source\PSoC5/RTC.c **** /* Alarm time and date variables
  37:.\Generated_Source\PSoC5/RTC.c **** * Initial value are: Second = 0-59, Minute = 0-59, Hour = 0-23, DayOfWeek = 1-7,
  38:.\Generated_Source\PSoC5/RTC.c **** * DayOfMonth = 1-31, DayOfYear = 1-366, Month = 1-12, Year = 1900-2200.
  39:.\Generated_Source\PSoC5/RTC.c **** */
  40:.\Generated_Source\PSoC5/RTC.c **** RTC_TIME_DATE RTC_alarmCfgTimeDate = {0u, 0u, 0u, 1u, 1u, 1u, 1u, 1900u};
  41:.\Generated_Source\PSoC5/RTC.c **** 
  42:.\Generated_Source\PSoC5/RTC.c **** #if (1u == RTC_DST_FUNC_ENABLE) /* DST enabled */
  43:.\Generated_Source\PSoC5/RTC.c **** 
  44:.\Generated_Source\PSoC5/RTC.c ****     /* Define DST format: '0' - fixed, '1' - relative */
  45:.\Generated_Source\PSoC5/RTC.c ****     volatile uint8 RTC_dstModeType = 0u;
  46:.\Generated_Source\PSoC5/RTC.c **** 
  47:.\Generated_Source\PSoC5/RTC.c ****     /* Hour 0-23, DayOfWeek 1-7, Week 1-5, DayOfMonth 1-31, Month 1-12 */
  48:.\Generated_Source\PSoC5/RTC.c ****     RTC_DSTIME RTC_dstTimeDateStart = {0u, 1u, 1u, 1u, 1u};
  49:.\Generated_Source\PSoC5/RTC.c ****     RTC_DSTIME RTC_dstTimeDateStop = {0u, 1u, 1u, 1u, 1u};
  50:.\Generated_Source\PSoC5/RTC.c **** 
  51:.\Generated_Source\PSoC5/RTC.c ****     /* Number of Hours to add/dec to time */
  52:.\Generated_Source\PSoC5/RTC.c ****     volatile uint8 RTC_dstOffsetMin = 0u;
  53:.\Generated_Source\PSoC5/RTC.c ****     volatile uint8 RTC_dstStartStatus = 0u;
  54:.\Generated_Source\PSoC5/RTC.c ****     volatile uint8 RTC_dstStopStatus = 0u;
  55:.\Generated_Source\PSoC5/RTC.c **** 
  56:.\Generated_Source\PSoC5/RTC.c **** #endif /* 1u == RTC_DST_FUNC_ENABLE*/
  57:.\Generated_Source\PSoC5/RTC.c **** 
  58:.\Generated_Source\PSoC5/RTC.c **** /* Mask Registers */
  59:.\Generated_Source\PSoC5/RTC.c **** volatile uint8 RTC_alarmCfgMask = 0u;
  60:.\Generated_Source\PSoC5/RTC.c **** volatile uint8 RTC_alarmCurStatus = 0u;
  61:.\Generated_Source\PSoC5/RTC.c **** volatile uint8 RTC_intervalCfgMask = 0u;
  62:.\Generated_Source\PSoC5/RTC.c **** 
  63:.\Generated_Source\PSoC5/RTC.c **** /* Status & Control Variables */
  64:.\Generated_Source\PSoC5/RTC.c **** volatile uint8 RTC_statusDateTime = 0u;
  65:.\Generated_Source\PSoC5/RTC.c **** 
  66:.\Generated_Source\PSoC5/RTC.c **** /* Month Day Array - number of days in the months */
  67:.\Generated_Source\PSoC5/RTC.c **** const uint8 CYCODE RTC_daysInMonths[RTC_MONTHS_IN_YEAR] = {
  68:.\Generated_Source\PSoC5/RTC.c ****     RTC_DAYS_IN_JANUARY,
  69:.\Generated_Source\PSoC5/RTC.c ****     RTC_DAYS_IN_FEBRUARY,
  70:.\Generated_Source\PSoC5/RTC.c ****     RTC_DAYS_IN_MARCH,
  71:.\Generated_Source\PSoC5/RTC.c ****     RTC_DAYS_IN_APRIL,
  72:.\Generated_Source\PSoC5/RTC.c ****     RTC_DAYS_IN_MAY,
  73:.\Generated_Source\PSoC5/RTC.c ****     RTC_DAYS_IN_JUNE,
  74:.\Generated_Source\PSoC5/RTC.c ****     RTC_DAYS_IN_JULY,
  75:.\Generated_Source\PSoC5/RTC.c ****     RTC_DAYS_IN_AUGUST,
  76:.\Generated_Source\PSoC5/RTC.c ****     RTC_DAYS_IN_SEPTEMBER,
  77:.\Generated_Source\PSoC5/RTC.c ****     RTC_DAYS_IN_OCTOBER,
  78:.\Generated_Source\PSoC5/RTC.c ****     RTC_DAYS_IN_NOVEMBER,
  79:.\Generated_Source\PSoC5/RTC.c ****     RTC_DAYS_IN_DECEMBER};
  80:.\Generated_Source\PSoC5/RTC.c **** 
  81:.\Generated_Source\PSoC5/RTC.c **** 
  82:.\Generated_Source\PSoC5/RTC.c **** /*******************************************************************************
  83:.\Generated_Source\PSoC5/RTC.c **** * Function Name:   RTC_Start
  84:.\Generated_Source\PSoC5/RTC.c **** ********************************************************************************
  85:.\Generated_Source\PSoC5/RTC.c **** *
  86:.\Generated_Source\PSoC5/RTC.c **** * Summary:
  87:.\Generated_Source\PSoC5/RTC.c **** *  Enables RTC component: configures counter, setup interrupts, done all
  88:.\Generated_Source\PSoC5/RTC.c **** *  required calculation and starts counter.
  89:.\Generated_Source\PSoC5/RTC.c **** *
ARM GAS  C:\Users\mark6\AppData\Local\Temp\ccQgPzp9.s 			page 3


  90:.\Generated_Source\PSoC5/RTC.c **** * Parameters:
  91:.\Generated_Source\PSoC5/RTC.c **** *  None.
  92:.\Generated_Source\PSoC5/RTC.c **** *
  93:.\Generated_Source\PSoC5/RTC.c **** * Return:
  94:.\Generated_Source\PSoC5/RTC.c **** *  None.
  95:.\Generated_Source\PSoC5/RTC.c **** *
  96:.\Generated_Source\PSoC5/RTC.c **** * Global variables:
  97:.\Generated_Source\PSoC5/RTC.c **** *  RTC_initVar: global variable is used to indicate initial
  98:.\Generated_Source\PSoC5/RTC.c **** *  configuration of this component.  The variable is initialized to zero and set
  99:.\Generated_Source\PSoC5/RTC.c **** *  to 1 the first time RTC_Start() is called. This allows for
 100:.\Generated_Source\PSoC5/RTC.c **** *  component initialization without re-initialization in all subsequent calls
 101:.\Generated_Source\PSoC5/RTC.c **** *  to the RTC_Start() routine.
 102:.\Generated_Source\PSoC5/RTC.c **** *
 103:.\Generated_Source\PSoC5/RTC.c **** *  RTC_currentTimeDate, RTC_dstTimeDateStart,
 104:.\Generated_Source\PSoC5/RTC.c **** *  RTC_dstTimeDateStop, RTC_dstTimeDateStart,
 105:.\Generated_Source\PSoC5/RTC.c **** *  RTC_alarmCfgTimeDate, RTC_statusDateTime,
 106:.\Generated_Source\PSoC5/RTC.c **** *  RTC_dstStartStatus, RTC_dstStopStatus,
 107:.\Generated_Source\PSoC5/RTC.c **** *  RTC_alarmCurStatus: global variables are modified by the
 108:.\Generated_Source\PSoC5/RTC.c **** *  functions called from RTC_Init().
 109:.\Generated_Source\PSoC5/RTC.c **** *
 110:.\Generated_Source\PSoC5/RTC.c **** * Reentrant:
 111:.\Generated_Source\PSoC5/RTC.c **** *  No.
 112:.\Generated_Source\PSoC5/RTC.c **** *
 113:.\Generated_Source\PSoC5/RTC.c **** * Side Effects:
 114:.\Generated_Source\PSoC5/RTC.c **** *  Enables for the one pulse per second (for the RTC component) and
 115:.\Generated_Source\PSoC5/RTC.c **** *  Central Time Wheel (for the Sleep Timer component) signals to wake up device
 116:.\Generated_Source\PSoC5/RTC.c **** *  from the low power (Sleep and Alternate Active) modes and leaves them
 117:.\Generated_Source\PSoC5/RTC.c **** *  enabled.
 118:.\Generated_Source\PSoC5/RTC.c **** *
 119:.\Generated_Source\PSoC5/RTC.c **** *  The Power Manager API has the higher priority on resource usage: it is NOT
 120:.\Generated_Source\PSoC5/RTC.c **** *  guaranteed that the Sleep Timer's configuration will be the same on exit
 121:.\Generated_Source\PSoC5/RTC.c **** *  from the Power Manager APIs as on the entry. To prevent this use the Sleep
 122:.\Generated_Source\PSoC5/RTC.c **** *  Timer's Sleep() - to save configuration and stop the component and Wakeup()
 123:.\Generated_Source\PSoC5/RTC.c **** *  function to restore configuration and enable the component.
 124:.\Generated_Source\PSoC5/RTC.c **** *
 125:.\Generated_Source\PSoC5/RTC.c **** *  The Sleep Timer and Real Time Clock (RTC) components could be configured as
 126:.\Generated_Source\PSoC5/RTC.c **** *  a wake up source from the low power modes only both at once.
 127:.\Generated_Source\PSoC5/RTC.c **** *
 128:.\Generated_Source\PSoC5/RTC.c **** *******************************************************************************/
 129:.\Generated_Source\PSoC5/RTC.c **** void RTC_Start(void) 
 130:.\Generated_Source\PSoC5/RTC.c **** {
 131:.\Generated_Source\PSoC5/RTC.c ****     /* Execute once in normal flow */
 132:.\Generated_Source\PSoC5/RTC.c ****     if(0u == RTC_initVar)
 133:.\Generated_Source\PSoC5/RTC.c ****     {
 134:.\Generated_Source\PSoC5/RTC.c ****         RTC_Init();
 135:.\Generated_Source\PSoC5/RTC.c ****         RTC_initVar = 1u;
 136:.\Generated_Source\PSoC5/RTC.c ****     }
 137:.\Generated_Source\PSoC5/RTC.c **** 
 138:.\Generated_Source\PSoC5/RTC.c ****     /* Enable component's operation */
 139:.\Generated_Source\PSoC5/RTC.c ****     RTC_Enable();
 140:.\Generated_Source\PSoC5/RTC.c **** }
 141:.\Generated_Source\PSoC5/RTC.c **** 
 142:.\Generated_Source\PSoC5/RTC.c **** 
 143:.\Generated_Source\PSoC5/RTC.c **** /*******************************************************************************
 144:.\Generated_Source\PSoC5/RTC.c **** * Function Name: RTC_Stop
 145:.\Generated_Source\PSoC5/RTC.c **** ********************************************************************************
 146:.\Generated_Source\PSoC5/RTC.c **** *
ARM GAS  C:\Users\mark6\AppData\Local\Temp\ccQgPzp9.s 			page 4


 147:.\Generated_Source\PSoC5/RTC.c **** * Summary:
 148:.\Generated_Source\PSoC5/RTC.c **** *  Stops the RTC component.
 149:.\Generated_Source\PSoC5/RTC.c **** *
 150:.\Generated_Source\PSoC5/RTC.c **** * Parameters:
 151:.\Generated_Source\PSoC5/RTC.c **** *  None.
 152:.\Generated_Source\PSoC5/RTC.c **** *
 153:.\Generated_Source\PSoC5/RTC.c **** * Return:
 154:.\Generated_Source\PSoC5/RTC.c **** *  None.
 155:.\Generated_Source\PSoC5/RTC.c **** *
 156:.\Generated_Source\PSoC5/RTC.c **** * Side Effects:
 157:.\Generated_Source\PSoC5/RTC.c **** *  Leaves the one pulse per second (for the RTC component) and the Central Time
 158:.\Generated_Source\PSoC5/RTC.c **** *  Wheel (for the Sleep Timer component) signals to wake up device from the low
 159:.\Generated_Source\PSoC5/RTC.c **** *  power (Sleep and Alternate Active) modes enabled after Sleep Time component
 160:.\Generated_Source\PSoC5/RTC.c **** *  is stopped.
 161:.\Generated_Source\PSoC5/RTC.c **** *
 162:.\Generated_Source\PSoC5/RTC.c **** *******************************************************************************/
 163:.\Generated_Source\PSoC5/RTC.c **** void RTC_Stop(void) 
 164:.\Generated_Source\PSoC5/RTC.c **** {
 165:.\Generated_Source\PSoC5/RTC.c ****     uint8 interruptState;
 166:.\Generated_Source\PSoC5/RTC.c **** 
 167:.\Generated_Source\PSoC5/RTC.c ****     /* Disable the interrupt. */
 168:.\Generated_Source\PSoC5/RTC.c ****     CyIntDisable(RTC_ISR_NUMBER);
 169:.\Generated_Source\PSoC5/RTC.c **** 
 170:.\Generated_Source\PSoC5/RTC.c ****     /* Enter critical section */
 171:.\Generated_Source\PSoC5/RTC.c ****     interruptState = CyEnterCriticalSection();
 172:.\Generated_Source\PSoC5/RTC.c **** 
 173:.\Generated_Source\PSoC5/RTC.c ****     /* Stop one pulse per second counter and interrupt */
 174:.\Generated_Source\PSoC5/RTC.c ****     RTC_OPPS_CFG_REG &= (uint8)(~(RTC_OPPSIE_EN_MASK | RTC_OPPS_EN_MASK));
 175:.\Generated_Source\PSoC5/RTC.c **** 
 176:.\Generated_Source\PSoC5/RTC.c ****     /* Exit critical section */
 177:.\Generated_Source\PSoC5/RTC.c ****     CyExitCriticalSection(interruptState);
 178:.\Generated_Source\PSoC5/RTC.c **** }
 179:.\Generated_Source\PSoC5/RTC.c **** 
 180:.\Generated_Source\PSoC5/RTC.c **** 
 181:.\Generated_Source\PSoC5/RTC.c **** /*******************************************************************************
 182:.\Generated_Source\PSoC5/RTC.c **** * Function Name:   RTC_EnableInt
 183:.\Generated_Source\PSoC5/RTC.c **** ********************************************************************************
 184:.\Generated_Source\PSoC5/RTC.c **** *
 185:.\Generated_Source\PSoC5/RTC.c **** * Summary:
 186:.\Generated_Source\PSoC5/RTC.c **** *  Enables interrupts of RTC Component.
 187:.\Generated_Source\PSoC5/RTC.c **** *
 188:.\Generated_Source\PSoC5/RTC.c **** * Parameters:
 189:.\Generated_Source\PSoC5/RTC.c **** *  None.
 190:.\Generated_Source\PSoC5/RTC.c **** *
 191:.\Generated_Source\PSoC5/RTC.c **** * Return:
 192:.\Generated_Source\PSoC5/RTC.c **** *  None.
 193:.\Generated_Source\PSoC5/RTC.c **** *
 194:.\Generated_Source\PSoC5/RTC.c **** *******************************************************************************/
 195:.\Generated_Source\PSoC5/RTC.c **** void RTC_EnableInt(void) 
 196:.\Generated_Source\PSoC5/RTC.c **** {
 197:.\Generated_Source\PSoC5/RTC.c ****     /* Enable the interrupt */
 198:.\Generated_Source\PSoC5/RTC.c ****     CyIntEnable(RTC_ISR_NUMBER);
 199:.\Generated_Source\PSoC5/RTC.c **** }
 200:.\Generated_Source\PSoC5/RTC.c **** 
 201:.\Generated_Source\PSoC5/RTC.c **** 
 202:.\Generated_Source\PSoC5/RTC.c **** /*******************************************************************************
 203:.\Generated_Source\PSoC5/RTC.c **** * Function Name:   RTC_DisableInt
ARM GAS  C:\Users\mark6\AppData\Local\Temp\ccQgPzp9.s 			page 5


 204:.\Generated_Source\PSoC5/RTC.c **** ********************************************************************************
 205:.\Generated_Source\PSoC5/RTC.c **** *
 206:.\Generated_Source\PSoC5/RTC.c **** * Summary:
 207:.\Generated_Source\PSoC5/RTC.c **** *  Disables interrupts of RTC Component, time and date stop running.
 208:.\Generated_Source\PSoC5/RTC.c **** *
 209:.\Generated_Source\PSoC5/RTC.c **** * Parameters:
 210:.\Generated_Source\PSoC5/RTC.c **** *  None.
 211:.\Generated_Source\PSoC5/RTC.c **** *
 212:.\Generated_Source\PSoC5/RTC.c **** * Return:
 213:.\Generated_Source\PSoC5/RTC.c **** *  None.
 214:.\Generated_Source\PSoC5/RTC.c **** *
 215:.\Generated_Source\PSoC5/RTC.c **** *******************************************************************************/
 216:.\Generated_Source\PSoC5/RTC.c **** void RTC_DisableInt(void) 
 217:.\Generated_Source\PSoC5/RTC.c **** {
 218:.\Generated_Source\PSoC5/RTC.c ****     /* Disable the interrupt. */
 219:.\Generated_Source\PSoC5/RTC.c ****     CyIntDisable(RTC_ISR_NUMBER);
 220:.\Generated_Source\PSoC5/RTC.c **** }
 221:.\Generated_Source\PSoC5/RTC.c **** 
 222:.\Generated_Source\PSoC5/RTC.c **** 
 223:.\Generated_Source\PSoC5/RTC.c **** #if (1u == RTC_DST_FUNC_ENABLE)
 224:.\Generated_Source\PSoC5/RTC.c ****     /*******************************************************************************
 225:.\Generated_Source\PSoC5/RTC.c ****     * Function Name:   RTC_DSTDateConversion
 226:.\Generated_Source\PSoC5/RTC.c ****     ********************************************************************************
 227:.\Generated_Source\PSoC5/RTC.c ****     *
 228:.\Generated_Source\PSoC5/RTC.c ****     * Summary:
 229:.\Generated_Source\PSoC5/RTC.c ****     * Converts relative to absolute date.
 230:.\Generated_Source\PSoC5/RTC.c ****     *
 231:.\Generated_Source\PSoC5/RTC.c ****     * Parameters:
 232:.\Generated_Source\PSoC5/RTC.c ****     *  None.
 233:.\Generated_Source\PSoC5/RTC.c ****     *
 234:.\Generated_Source\PSoC5/RTC.c ****     * Return:
 235:.\Generated_Source\PSoC5/RTC.c ****     *  None.
 236:.\Generated_Source\PSoC5/RTC.c ****     *
 237:.\Generated_Source\PSoC5/RTC.c ****     * Global variables:
 238:.\Generated_Source\PSoC5/RTC.c ****     *  RTC_dstTimeDateStart.Month,
 239:.\Generated_Source\PSoC5/RTC.c ****     *  RTC_dstTimeDateStart.DayOfWeek,
 240:.\Generated_Source\PSoC5/RTC.c ****     *  RTC_dstTimeDateStart.Week,
 241:.\Generated_Source\PSoC5/RTC.c ****     *  RTC_dstTimeDateStop.Month,
 242:.\Generated_Source\PSoC5/RTC.c ****     *  RTC_dstTimeDateStop.DayOfWeek,
 243:.\Generated_Source\PSoC5/RTC.c ****     *  RTC_dstTimeDateStop.Week,
 244:.\Generated_Source\PSoC5/RTC.c ****     *  RTC_currentTimeDate.Year: these global variables are
 245:.\Generated_Source\PSoC5/RTC.c ****     *  used to correct day of week.
 246:.\Generated_Source\PSoC5/RTC.c ****     *
 247:.\Generated_Source\PSoC5/RTC.c ****     *  RTC_dstTimeDateStart.DayOfMonth,
 248:.\Generated_Source\PSoC5/RTC.c ****     *  RTC_dstTimeDateStop.DayOfMonth: these global variables are
 249:.\Generated_Source\PSoC5/RTC.c ****     *  modified after convertion.
 250:.\Generated_Source\PSoC5/RTC.c ****     *
 251:.\Generated_Source\PSoC5/RTC.c ****     * Reentrant:
 252:.\Generated_Source\PSoC5/RTC.c ****     *  No.
 253:.\Generated_Source\PSoC5/RTC.c ****     *
 254:.\Generated_Source\PSoC5/RTC.c ****     *******************************************************************************/
 255:.\Generated_Source\PSoC5/RTC.c ****     static void RTC_DSTDateConversion(void) 
 256:.\Generated_Source\PSoC5/RTC.c ****     {
 257:.\Generated_Source\PSoC5/RTC.c ****         uint8 week = 1u;
 258:.\Generated_Source\PSoC5/RTC.c ****         uint8 day = 1u;
 259:.\Generated_Source\PSoC5/RTC.c ****         uint8 dayOfWeek;
 260:.\Generated_Source\PSoC5/RTC.c **** 
ARM GAS  C:\Users\mark6\AppData\Local\Temp\ccQgPzp9.s 			page 6


 261:.\Generated_Source\PSoC5/RTC.c ****         /* Get day of week */
 262:.\Generated_Source\PSoC5/RTC.c ****         dayOfWeek = RTC_DayOfWeek(day, RTC_dstTimeDateStart.Month,
 263:.\Generated_Source\PSoC5/RTC.c ****                                                     RTC_currentTimeDate.Year) + 1u;
 264:.\Generated_Source\PSoC5/RTC.c **** 
 265:.\Generated_Source\PSoC5/RTC.c ****         #if (0u != RTC_START_OF_WEEK)
 266:.\Generated_Source\PSoC5/RTC.c ****         /* Normalize day of week if Start of week is not Sunday */
 267:.\Generated_Source\PSoC5/RTC.c ****         if(dayOfWeek > RTC_START_OF_WEEK)
 268:.\Generated_Source\PSoC5/RTC.c ****         {
 269:.\Generated_Source\PSoC5/RTC.c ****             #if (6u != RTC_START_OF_WEEK)
 270:.\Generated_Source\PSoC5/RTC.c ****                 /* Start of week is not Saturday  */
 271:.\Generated_Source\PSoC5/RTC.c ****                 dayOfWeek -= RTC_START_OF_WEEK;
 272:.\Generated_Source\PSoC5/RTC.c ****             #else /* 6u == RTC_START_OF_WEEK */
 273:.\Generated_Source\PSoC5/RTC.c ****                 /* Start of week is Saturday  */
 274:.\Generated_Source\PSoC5/RTC.c ****                 dayOfWeek = 1u; /* Set day of week to Monday */
 275:.\Generated_Source\PSoC5/RTC.c ****             #endif /* 6u != RTC_START_OF_WEEK */
 276:.\Generated_Source\PSoC5/RTC.c ****         }
 277:.\Generated_Source\PSoC5/RTC.c ****         else
 278:.\Generated_Source\PSoC5/RTC.c ****         {
 279:.\Generated_Source\PSoC5/RTC.c ****             #if (1u != RTC_START_OF_WEEK)
 280:.\Generated_Source\PSoC5/RTC.c ****                 /* Start of week is not Monday  */
 281:.\Generated_Source\PSoC5/RTC.c ****                 dayOfWeek = (RTC_DAYS_IN_WEEK - RTC_START_OF_WEEK) - dayOfWeek;
 282:.\Generated_Source\PSoC5/RTC.c ****             #else /* 1u == RTC_START_OF_WEEK */
 283:.\Generated_Source\PSoC5/RTC.c ****                 /* Start of week is Monday  */
 284:.\Generated_Source\PSoC5/RTC.c ****                 dayOfWeek = 5u; /* Set day of week to Friday */
 285:.\Generated_Source\PSoC5/RTC.c ****             #endif /* 1u != RTC_START_OF_WEEK */
 286:.\Generated_Source\PSoC5/RTC.c ****         }
 287:.\Generated_Source\PSoC5/RTC.c ****         #endif /* 0u != RTC_START_OF_WEEK */
 288:.\Generated_Source\PSoC5/RTC.c **** 
 289:.\Generated_Source\PSoC5/RTC.c ****         /* Correct if out of DST range */
 290:.\Generated_Source\PSoC5/RTC.c ****         while(dayOfWeek != RTC_dstTimeDateStart.DayOfWeek)
 291:.\Generated_Source\PSoC5/RTC.c ****         {
 292:.\Generated_Source\PSoC5/RTC.c ****             day++;
 293:.\Generated_Source\PSoC5/RTC.c ****             dayOfWeek++;
 294:.\Generated_Source\PSoC5/RTC.c ****             if(dayOfWeek > RTC_WEEK_ELAPSED)
 295:.\Generated_Source\PSoC5/RTC.c ****             {
 296:.\Generated_Source\PSoC5/RTC.c ****                 dayOfWeek = 1u;
 297:.\Generated_Source\PSoC5/RTC.c ****                 week++;
 298:.\Generated_Source\PSoC5/RTC.c ****             }
 299:.\Generated_Source\PSoC5/RTC.c ****         }
 300:.\Generated_Source\PSoC5/RTC.c **** 
 301:.\Generated_Source\PSoC5/RTC.c ****         while(week != RTC_dstTimeDateStart.Week)
 302:.\Generated_Source\PSoC5/RTC.c ****         {
 303:.\Generated_Source\PSoC5/RTC.c ****             day += RTC_DAYS_IN_WEEK;
 304:.\Generated_Source\PSoC5/RTC.c ****             week++;
 305:.\Generated_Source\PSoC5/RTC.c ****         }
 306:.\Generated_Source\PSoC5/RTC.c ****         RTC_dstTimeDateStart.DayOfMonth = day;
 307:.\Generated_Source\PSoC5/RTC.c **** 
 308:.\Generated_Source\PSoC5/RTC.c ****         /* Stop of DST time */
 309:.\Generated_Source\PSoC5/RTC.c ****         week = 1u;
 310:.\Generated_Source\PSoC5/RTC.c ****         day = 1u;
 311:.\Generated_Source\PSoC5/RTC.c **** 
 312:.\Generated_Source\PSoC5/RTC.c ****         dayOfWeek = RTC_DayOfWeek(day, RTC_dstTimeDateStop.Month,
 313:.\Generated_Source\PSoC5/RTC.c ****                                                     RTC_currentTimeDate.Year) + 1u;
 314:.\Generated_Source\PSoC5/RTC.c ****         #if (0u != RTC_START_OF_WEEK)
 315:.\Generated_Source\PSoC5/RTC.c ****         /* Normalize day of week if Start of week is not Sunday */
 316:.\Generated_Source\PSoC5/RTC.c ****         if(dayOfWeek > RTC_START_OF_WEEK)
 317:.\Generated_Source\PSoC5/RTC.c ****         {
ARM GAS  C:\Users\mark6\AppData\Local\Temp\ccQgPzp9.s 			page 7


 318:.\Generated_Source\PSoC5/RTC.c ****             #if (6u != RTC_START_OF_WEEK)
 319:.\Generated_Source\PSoC5/RTC.c ****                 /* Start of week is not Saturday  */
 320:.\Generated_Source\PSoC5/RTC.c ****                 dayOfWeek -= RTC_START_OF_WEEK;
 321:.\Generated_Source\PSoC5/RTC.c ****             #else /* 6u == RTC_START_OF_WEEK */
 322:.\Generated_Source\PSoC5/RTC.c ****                 /* Start of week is Saturday  */
 323:.\Generated_Source\PSoC5/RTC.c ****                 dayOfWeek = 1u; /* Set day of week to Monday */
 324:.\Generated_Source\PSoC5/RTC.c ****             #endif /* 6u != RTC_START_OF_WEEK */
 325:.\Generated_Source\PSoC5/RTC.c ****         }
 326:.\Generated_Source\PSoC5/RTC.c ****         else
 327:.\Generated_Source\PSoC5/RTC.c ****         {
 328:.\Generated_Source\PSoC5/RTC.c ****             #if (1u != RTC_START_OF_WEEK)
 329:.\Generated_Source\PSoC5/RTC.c ****                 /* Start of week is not Monday  */
 330:.\Generated_Source\PSoC5/RTC.c ****                 dayOfWeek = (RTC_DAYS_IN_WEEK - RTC_START_OF_WEEK) - dayOfWeek;
 331:.\Generated_Source\PSoC5/RTC.c ****             #else /* 1u == RTC_START_OF_WEEK */
 332:.\Generated_Source\PSoC5/RTC.c ****                 /* Start of week is Monday  */
 333:.\Generated_Source\PSoC5/RTC.c ****                 dayOfWeek = 5u; /* Set day of week to Friday */
 334:.\Generated_Source\PSoC5/RTC.c ****             #endif /* 1u != RTC_START_OF_WEEK */
 335:.\Generated_Source\PSoC5/RTC.c ****         }
 336:.\Generated_Source\PSoC5/RTC.c ****         #endif /* 0u != RTC_START_OF_WEEK */
 337:.\Generated_Source\PSoC5/RTC.c **** 
 338:.\Generated_Source\PSoC5/RTC.c ****         while(dayOfWeek != RTC_dstTimeDateStop.DayOfWeek)
 339:.\Generated_Source\PSoC5/RTC.c ****         {
 340:.\Generated_Source\PSoC5/RTC.c ****             day++;
 341:.\Generated_Source\PSoC5/RTC.c ****             dayOfWeek++;
 342:.\Generated_Source\PSoC5/RTC.c ****             if(dayOfWeek > RTC_WEEK_ELAPSED)
 343:.\Generated_Source\PSoC5/RTC.c ****             {
 344:.\Generated_Source\PSoC5/RTC.c ****                 dayOfWeek = 1u;
 345:.\Generated_Source\PSoC5/RTC.c ****                 week++;
 346:.\Generated_Source\PSoC5/RTC.c ****             }
 347:.\Generated_Source\PSoC5/RTC.c ****         }
 348:.\Generated_Source\PSoC5/RTC.c **** 
 349:.\Generated_Source\PSoC5/RTC.c ****         while(week != RTC_dstTimeDateStop.Week)
 350:.\Generated_Source\PSoC5/RTC.c ****         {
 351:.\Generated_Source\PSoC5/RTC.c ****             day += RTC_DAYS_IN_WEEK;
 352:.\Generated_Source\PSoC5/RTC.c ****             week++;
 353:.\Generated_Source\PSoC5/RTC.c ****         }
 354:.\Generated_Source\PSoC5/RTC.c **** 
 355:.\Generated_Source\PSoC5/RTC.c ****         RTC_dstTimeDateStop.DayOfMonth = day;
 356:.\Generated_Source\PSoC5/RTC.c ****     }
 357:.\Generated_Source\PSoC5/RTC.c **** #endif /* 1u == RTC_DST_FUNC_ENABLE */
 358:.\Generated_Source\PSoC5/RTC.c **** 
 359:.\Generated_Source\PSoC5/RTC.c **** 
 360:.\Generated_Source\PSoC5/RTC.c **** /*******************************************************************************
 361:.\Generated_Source\PSoC5/RTC.c **** * Function Name:   RTC_Init
 362:.\Generated_Source\PSoC5/RTC.c **** ********************************************************************************
 363:.\Generated_Source\PSoC5/RTC.c **** *
 364:.\Generated_Source\PSoC5/RTC.c **** * Summary:
 365:.\Generated_Source\PSoC5/RTC.c **** *  Calculates required date and flags, sets interrupt vector and priority.
 366:.\Generated_Source\PSoC5/RTC.c **** *
 367:.\Generated_Source\PSoC5/RTC.c **** * Parameters:
 368:.\Generated_Source\PSoC5/RTC.c **** *  None.
 369:.\Generated_Source\PSoC5/RTC.c **** *
 370:.\Generated_Source\PSoC5/RTC.c **** * Return:
 371:.\Generated_Source\PSoC5/RTC.c **** *  None.
 372:.\Generated_Source\PSoC5/RTC.c **** *
 373:.\Generated_Source\PSoC5/RTC.c **** * Global variables:
 374:.\Generated_Source\PSoC5/RTC.c **** *  RTC_currentTimeDate, RTC_dstTimeDateStart,
ARM GAS  C:\Users\mark6\AppData\Local\Temp\ccQgPzp9.s 			page 8


 375:.\Generated_Source\PSoC5/RTC.c **** *  RTC_dstTimeDateStop, RTC_dstTimeDateStart,
 376:.\Generated_Source\PSoC5/RTC.c **** *  RTC_alarmCfgTimeDate, RTC_statusDateTime,
 377:.\Generated_Source\PSoC5/RTC.c **** *  RTC_dstStartStatus, RTC_dstStartStatus,
 378:.\Generated_Source\PSoC5/RTC.c **** *  RTC_dstStopStatus, RTC_alarmCurStatus:
 379:.\Generated_Source\PSoC5/RTC.c **** *  global variables are used by the RTC_SetInitValues().
 380:.\Generated_Source\PSoC5/RTC.c **** *
 381:.\Generated_Source\PSoC5/RTC.c **** *  RTC_dstTimeDateStart, RTC_currentTimeDate:
 382:.\Generated_Source\PSoC5/RTC.c **** *  RTC_statusDateTime, RTC_dstStartStatus,
 383:.\Generated_Source\PSoC5/RTC.c **** *  RTC_dstStartStatus, RTC_dstStopStatus,
 384:.\Generated_Source\PSoC5/RTC.c **** *  RTC_alarmCurStatus: are modified by the
 385:.\Generated_Source\PSoC5/RTC.c **** *  RTC_SetInitValues() function.
 386:.\Generated_Source\PSoC5/RTC.c **** *
 387:.\Generated_Source\PSoC5/RTC.c **** * Reentrant:
 388:.\Generated_Source\PSoC5/RTC.c **** *  No.
 389:.\Generated_Source\PSoC5/RTC.c **** *
 390:.\Generated_Source\PSoC5/RTC.c **** *******************************************************************************/
 391:.\Generated_Source\PSoC5/RTC.c **** void RTC_Init(void) 
 392:.\Generated_Source\PSoC5/RTC.c **** {
 393:.\Generated_Source\PSoC5/RTC.c ****     /* Start calculation of required date and flags */
 394:.\Generated_Source\PSoC5/RTC.c ****     RTC_SetInitValues();
 395:.\Generated_Source\PSoC5/RTC.c **** 
 396:.\Generated_Source\PSoC5/RTC.c ****     /* Disable Interrupt. */
 397:.\Generated_Source\PSoC5/RTC.c ****     CyIntDisable(RTC_ISR_NUMBER);
 398:.\Generated_Source\PSoC5/RTC.c **** 
 399:.\Generated_Source\PSoC5/RTC.c ****     /* Set the ISR to point to the RTC_SUT_isr Interrupt. */
 400:.\Generated_Source\PSoC5/RTC.c ****     (void) CyIntSetVector(RTC_ISR_NUMBER, & RTC_ISR);
 401:.\Generated_Source\PSoC5/RTC.c **** 
 402:.\Generated_Source\PSoC5/RTC.c ****     /* Set the priority. */
 403:.\Generated_Source\PSoC5/RTC.c ****     CyIntSetPriority(RTC_ISR_NUMBER, RTC_ISR_PRIORITY);
 404:.\Generated_Source\PSoC5/RTC.c **** }
 405:.\Generated_Source\PSoC5/RTC.c **** 
 406:.\Generated_Source\PSoC5/RTC.c **** 
 407:.\Generated_Source\PSoC5/RTC.c **** /*******************************************************************************
 408:.\Generated_Source\PSoC5/RTC.c **** * Function Name: RTC_Enable
 409:.\Generated_Source\PSoC5/RTC.c **** ********************************************************************************
 410:.\Generated_Source\PSoC5/RTC.c **** *
 411:.\Generated_Source\PSoC5/RTC.c **** * Summary:
 412:.\Generated_Source\PSoC5/RTC.c **** *  Enables the interrupts, one pulse per second and interrupt generation on OPPS
 413:.\Generated_Source\PSoC5/RTC.c **** *  event.
 414:.\Generated_Source\PSoC5/RTC.c **** *
 415:.\Generated_Source\PSoC5/RTC.c **** * Parameters:
 416:.\Generated_Source\PSoC5/RTC.c **** *  None.
 417:.\Generated_Source\PSoC5/RTC.c **** *
 418:.\Generated_Source\PSoC5/RTC.c **** * Return:
 419:.\Generated_Source\PSoC5/RTC.c **** *  None.
 420:.\Generated_Source\PSoC5/RTC.c **** *
 421:.\Generated_Source\PSoC5/RTC.c **** * Side Effects:
 422:.\Generated_Source\PSoC5/RTC.c **** *  Enables for the one pulse per second and central time wheel signals to wake
 423:.\Generated_Source\PSoC5/RTC.c **** *  up device from the low power (Sleep and Alternate Active) modes and leaves
 424:.\Generated_Source\PSoC5/RTC.c **** *  them enabled.
 425:.\Generated_Source\PSoC5/RTC.c **** *
 426:.\Generated_Source\PSoC5/RTC.c **** *******************************************************************************/
 427:.\Generated_Source\PSoC5/RTC.c **** void RTC_Enable(void) 
 428:.\Generated_Source\PSoC5/RTC.c **** {
 429:.\Generated_Source\PSoC5/RTC.c ****     uint8 interruptState;
 430:.\Generated_Source\PSoC5/RTC.c **** 
 431:.\Generated_Source\PSoC5/RTC.c ****     /* Enter critical section */
ARM GAS  C:\Users\mark6\AppData\Local\Temp\ccQgPzp9.s 			page 9


 432:.\Generated_Source\PSoC5/RTC.c ****     interruptState = CyEnterCriticalSection();
 433:.\Generated_Source\PSoC5/RTC.c **** 
 434:.\Generated_Source\PSoC5/RTC.c ****     /* Enable one pulse per second event and interrupt */
 435:.\Generated_Source\PSoC5/RTC.c ****     RTC_OPPS_CFG_REG |= (RTC_OPPS_EN_MASK | RTC_OPPSIE_EN_MASK);
 436:.\Generated_Source\PSoC5/RTC.c **** 
 437:.\Generated_Source\PSoC5/RTC.c ****     /* Exit critical section */
 438:.\Generated_Source\PSoC5/RTC.c ****     CyExitCriticalSection(interruptState);
 439:.\Generated_Source\PSoC5/RTC.c **** 
 440:.\Generated_Source\PSoC5/RTC.c ****     /* Enable interrupt */
 441:.\Generated_Source\PSoC5/RTC.c ****     CyIntEnable(RTC_ISR_NUMBER);
 442:.\Generated_Source\PSoC5/RTC.c **** }
 443:.\Generated_Source\PSoC5/RTC.c **** 
 444:.\Generated_Source\PSoC5/RTC.c **** 
 445:.\Generated_Source\PSoC5/RTC.c **** /*******************************************************************************
 446:.\Generated_Source\PSoC5/RTC.c **** * Function Name:   RTC_ReadTime
 447:.\Generated_Source\PSoC5/RTC.c **** ********************************************************************************
 448:.\Generated_Source\PSoC5/RTC.c **** *
 449:.\Generated_Source\PSoC5/RTC.c **** * Summary:
 450:.\Generated_Source\PSoC5/RTC.c **** *  Returns a pointer to the current time and date structure.
 451:.\Generated_Source\PSoC5/RTC.c **** *
 452:.\Generated_Source\PSoC5/RTC.c **** * Parameters:
 453:.\Generated_Source\PSoC5/RTC.c **** *  None.
 454:.\Generated_Source\PSoC5/RTC.c **** *
 455:.\Generated_Source\PSoC5/RTC.c **** * Return:
 456:.\Generated_Source\PSoC5/RTC.c **** *  RTC_currentTimeDate: pointer to the global structure with the
 457:.\Generated_Source\PSoC5/RTC.c **** *  current date and time values.
 458:.\Generated_Source\PSoC5/RTC.c **** *
 459:.\Generated_Source\PSoC5/RTC.c **** * Global variables:
 460:.\Generated_Source\PSoC5/RTC.c **** *  RTC_currentTimeDate: global variable with current date and
 461:.\Generated_Source\PSoC5/RTC.c **** *   time is used.
 462:.\Generated_Source\PSoC5/RTC.c **** *
 463:.\Generated_Source\PSoC5/RTC.c **** * Side Effects:
 464:.\Generated_Source\PSoC5/RTC.c **** *  You should disable the interrupt for the RTC component before calling any
 465:.\Generated_Source\PSoC5/RTC.c **** *  read API to avoid an RTC Counter increment in the middle of a time or date
 466:.\Generated_Source\PSoC5/RTC.c **** *  read operation. Re-enable the interrupts after the data is read.
 467:.\Generated_Source\PSoC5/RTC.c **** *
 468:.\Generated_Source\PSoC5/RTC.c **** *******************************************************************************/
 469:.\Generated_Source\PSoC5/RTC.c **** RTC_TIME_DATE * RTC_ReadTime(void) 
 470:.\Generated_Source\PSoC5/RTC.c **** {
 471:.\Generated_Source\PSoC5/RTC.c ****     /* Returns a pointer to the current time and date structure */
 472:.\Generated_Source\PSoC5/RTC.c ****     return (&RTC_currentTimeDate);
 473:.\Generated_Source\PSoC5/RTC.c **** }
 474:.\Generated_Source\PSoC5/RTC.c **** 
 475:.\Generated_Source\PSoC5/RTC.c **** 
 476:.\Generated_Source\PSoC5/RTC.c **** /*******************************************************************************
 477:.\Generated_Source\PSoC5/RTC.c **** * Function Name:   RTC_WriteTime
 478:.\Generated_Source\PSoC5/RTC.c **** ********************************************************************************
 479:.\Generated_Source\PSoC5/RTC.c **** *
 480:.\Generated_Source\PSoC5/RTC.c **** * Summary:
 481:.\Generated_Source\PSoC5/RTC.c **** *  Writes time and date values as current time and date. Only
 482:.\Generated_Source\PSoC5/RTC.c **** *  passes Milliseconds(optionally), Seconds, Minutes, Hours, Month,
 483:.\Generated_Source\PSoC5/RTC.c **** *  Day Of Month and Year.
 484:.\Generated_Source\PSoC5/RTC.c **** *
 485:.\Generated_Source\PSoC5/RTC.c **** * Parameters:
 486:.\Generated_Source\PSoC5/RTC.c **** *  timeDate: Pointer to RTC_TIME_DATE global structure where new
 487:.\Generated_Source\PSoC5/RTC.c **** *  values of time and date are stored.
 488:.\Generated_Source\PSoC5/RTC.c **** *
ARM GAS  C:\Users\mark6\AppData\Local\Temp\ccQgPzp9.s 			page 10


 489:.\Generated_Source\PSoC5/RTC.c **** * Return:
 490:.\Generated_Source\PSoC5/RTC.c **** *  None.
 491:.\Generated_Source\PSoC5/RTC.c **** *
 492:.\Generated_Source\PSoC5/RTC.c **** * Global variables:
 493:.\Generated_Source\PSoC5/RTC.c **** *  RTC_currentTimeDate: global structure is modified with the new
 494:.\Generated_Source\PSoC5/RTC.c **** *  values of current date and time.
 495:.\Generated_Source\PSoC5/RTC.c **** *
 496:.\Generated_Source\PSoC5/RTC.c **** * Reentrant:
 497:.\Generated_Source\PSoC5/RTC.c **** *  No.
 498:.\Generated_Source\PSoC5/RTC.c **** *
 499:.\Generated_Source\PSoC5/RTC.c **** *******************************************************************************/
 500:.\Generated_Source\PSoC5/RTC.c **** void RTC_WriteTime(const RTC_TIME_DATE * timeDate)
 501:.\Generated_Source\PSoC5/RTC.c ****      
 502:.\Generated_Source\PSoC5/RTC.c **** {
 503:.\Generated_Source\PSoC5/RTC.c ****     /* Disable Interrupt of RTC Component */
 504:.\Generated_Source\PSoC5/RTC.c ****     RTC_DisableInt();
 505:.\Generated_Source\PSoC5/RTC.c **** 
 506:.\Generated_Source\PSoC5/RTC.c ****     /* Write current time and date */
 507:.\Generated_Source\PSoC5/RTC.c ****     RTC_currentTimeDate.Sec = timeDate->Sec;
 508:.\Generated_Source\PSoC5/RTC.c ****     RTC_currentTimeDate.Min = timeDate->Min;
 509:.\Generated_Source\PSoC5/RTC.c ****     RTC_currentTimeDate.Hour = timeDate->Hour;
 510:.\Generated_Source\PSoC5/RTC.c ****     RTC_currentTimeDate.DayOfMonth = timeDate->DayOfMonth;
 511:.\Generated_Source\PSoC5/RTC.c ****     RTC_currentTimeDate.Month = timeDate->Month;
 512:.\Generated_Source\PSoC5/RTC.c ****     RTC_currentTimeDate.Year = timeDate->Year;
 513:.\Generated_Source\PSoC5/RTC.c **** 
 514:.\Generated_Source\PSoC5/RTC.c ****     /* Enable Interrupt of RTC Component */
 515:.\Generated_Source\PSoC5/RTC.c ****     RTC_EnableInt();
 516:.\Generated_Source\PSoC5/RTC.c **** }
 517:.\Generated_Source\PSoC5/RTC.c **** 
 518:.\Generated_Source\PSoC5/RTC.c **** 
 519:.\Generated_Source\PSoC5/RTC.c **** /*******************************************************************************
 520:.\Generated_Source\PSoC5/RTC.c **** * Function Name:   RTC_WriteSecond
 521:.\Generated_Source\PSoC5/RTC.c **** ********************************************************************************
 522:.\Generated_Source\PSoC5/RTC.c **** *
 523:.\Generated_Source\PSoC5/RTC.c **** * Summary:
 524:.\Generated_Source\PSoC5/RTC.c **** *  Writes Sec software register value.
 525:.\Generated_Source\PSoC5/RTC.c **** *
 526:.\Generated_Source\PSoC5/RTC.c **** * Parameters:
 527:.\Generated_Source\PSoC5/RTC.c **** *  second: Seconds value.
 528:.\Generated_Source\PSoC5/RTC.c **** *
 529:.\Generated_Source\PSoC5/RTC.c **** * Return:
 530:.\Generated_Source\PSoC5/RTC.c **** *  None.
 531:.\Generated_Source\PSoC5/RTC.c **** *
 532:.\Generated_Source\PSoC5/RTC.c **** * Global variables:
 533:.\Generated_Source\PSoC5/RTC.c **** *  RTC_currentTimeDate.Sec: global structure's field where current
 534:.\Generated_Source\PSoC5/RTC.c **** *  second's value is modified.
 535:.\Generated_Source\PSoC5/RTC.c **** *
 536:.\Generated_Source\PSoC5/RTC.c **** * Reentrant:
 537:.\Generated_Source\PSoC5/RTC.c **** *  No.
 538:.\Generated_Source\PSoC5/RTC.c **** *
 539:.\Generated_Source\PSoC5/RTC.c **** *******************************************************************************/
 540:.\Generated_Source\PSoC5/RTC.c **** void RTC_WriteSecond(uint8 second) 
 541:.\Generated_Source\PSoC5/RTC.c **** {
 542:.\Generated_Source\PSoC5/RTC.c ****     /* Save seconds to the current time and date structure */
 543:.\Generated_Source\PSoC5/RTC.c ****     RTC_currentTimeDate.Sec = second;
 544:.\Generated_Source\PSoC5/RTC.c **** }
 545:.\Generated_Source\PSoC5/RTC.c **** 
ARM GAS  C:\Users\mark6\AppData\Local\Temp\ccQgPzp9.s 			page 11


 546:.\Generated_Source\PSoC5/RTC.c **** 
 547:.\Generated_Source\PSoC5/RTC.c **** /*******************************************************************************
 548:.\Generated_Source\PSoC5/RTC.c **** * Function Name:   RTC_WriteMinute
 549:.\Generated_Source\PSoC5/RTC.c **** ********************************************************************************
 550:.\Generated_Source\PSoC5/RTC.c **** *
 551:.\Generated_Source\PSoC5/RTC.c **** * Summary:
 552:.\Generated_Source\PSoC5/RTC.c **** *  Writes Minute value in minutes counter register.
 553:.\Generated_Source\PSoC5/RTC.c **** *
 554:.\Generated_Source\PSoC5/RTC.c **** * Parameters:
 555:.\Generated_Source\PSoC5/RTC.c **** *  minute: Minutes value.
 556:.\Generated_Source\PSoC5/RTC.c **** *
 557:.\Generated_Source\PSoC5/RTC.c **** * Return:
 558:.\Generated_Source\PSoC5/RTC.c **** *  None.
 559:.\Generated_Source\PSoC5/RTC.c **** *
 560:.\Generated_Source\PSoC5/RTC.c **** * Global variables:
 561:.\Generated_Source\PSoC5/RTC.c **** *  RTC_currentTimeDate.Min: global structure's field where
 562:.\Generated_Source\PSoC5/RTC.c **** *  current minute's value is modified.
 563:.\Generated_Source\PSoC5/RTC.c **** *
 564:.\Generated_Source\PSoC5/RTC.c **** * Reentrant:
 565:.\Generated_Source\PSoC5/RTC.c **** *  No.
 566:.\Generated_Source\PSoC5/RTC.c **** *
 567:.\Generated_Source\PSoC5/RTC.c **** *******************************************************************************/
 568:.\Generated_Source\PSoC5/RTC.c **** void RTC_WriteMinute(uint8 minute) 
 569:.\Generated_Source\PSoC5/RTC.c **** {
 570:.\Generated_Source\PSoC5/RTC.c ****     /* Save minutes to the current time and date structure */
 571:.\Generated_Source\PSoC5/RTC.c ****     RTC_currentTimeDate.Min = minute;
 572:.\Generated_Source\PSoC5/RTC.c **** }
 573:.\Generated_Source\PSoC5/RTC.c **** 
 574:.\Generated_Source\PSoC5/RTC.c **** 
 575:.\Generated_Source\PSoC5/RTC.c **** /*******************************************************************************
 576:.\Generated_Source\PSoC5/RTC.c **** * Function Name:   RTC_WriteHour
 577:.\Generated_Source\PSoC5/RTC.c **** ********************************************************************************
 578:.\Generated_Source\PSoC5/RTC.c **** *
 579:.\Generated_Source\PSoC5/RTC.c **** * Summary:
 580:.\Generated_Source\PSoC5/RTC.c **** *  Writes Hour software register value.
 581:.\Generated_Source\PSoC5/RTC.c **** *
 582:.\Generated_Source\PSoC5/RTC.c **** * Parameters:
 583:.\Generated_Source\PSoC5/RTC.c **** *  hour: Hours value.
 584:.\Generated_Source\PSoC5/RTC.c **** *
 585:.\Generated_Source\PSoC5/RTC.c **** * Return:
 586:.\Generated_Source\PSoC5/RTC.c **** *  None.
 587:.\Generated_Source\PSoC5/RTC.c **** *
 588:.\Generated_Source\PSoC5/RTC.c **** * Global variables:
 589:.\Generated_Source\PSoC5/RTC.c **** *  RTC_currentTimeDate.Hour: global structure's field where
 590:.\Generated_Source\PSoC5/RTC.c **** *  current hour's value is modified.
 591:.\Generated_Source\PSoC5/RTC.c **** *
 592:.\Generated_Source\PSoC5/RTC.c **** * Reentrant:
 593:.\Generated_Source\PSoC5/RTC.c **** *  No.
 594:.\Generated_Source\PSoC5/RTC.c **** *
 595:.\Generated_Source\PSoC5/RTC.c **** *******************************************************************************/
 596:.\Generated_Source\PSoC5/RTC.c **** void RTC_WriteHour(uint8 hour) 
 597:.\Generated_Source\PSoC5/RTC.c **** {
 598:.\Generated_Source\PSoC5/RTC.c ****     /* Save hours to the current time and date structure */
 599:.\Generated_Source\PSoC5/RTC.c ****     RTC_currentTimeDate.Hour = hour;
 600:.\Generated_Source\PSoC5/RTC.c **** }
 601:.\Generated_Source\PSoC5/RTC.c **** 
 602:.\Generated_Source\PSoC5/RTC.c **** 
ARM GAS  C:\Users\mark6\AppData\Local\Temp\ccQgPzp9.s 			page 12


 603:.\Generated_Source\PSoC5/RTC.c **** /*******************************************************************************
 604:.\Generated_Source\PSoC5/RTC.c **** * Function Name:   RTC_WriteDayOfMonth
 605:.\Generated_Source\PSoC5/RTC.c **** ********************************************************************************
 606:.\Generated_Source\PSoC5/RTC.c **** *
 607:.\Generated_Source\PSoC5/RTC.c **** * Summary:
 608:.\Generated_Source\PSoC5/RTC.c **** *  Writes DayOfMonth software register value.
 609:.\Generated_Source\PSoC5/RTC.c **** *
 610:.\Generated_Source\PSoC5/RTC.c **** * Parameters:
 611:.\Generated_Source\PSoC5/RTC.c **** *  dayOfMonth: Day Of Month value.
 612:.\Generated_Source\PSoC5/RTC.c **** *
 613:.\Generated_Source\PSoC5/RTC.c **** * Return:
 614:.\Generated_Source\PSoC5/RTC.c **** *  None.
 615:.\Generated_Source\PSoC5/RTC.c **** *
 616:.\Generated_Source\PSoC5/RTC.c **** * Global variables:
 617:.\Generated_Source\PSoC5/RTC.c **** *  RTC_currentTimeDate.DayOfMonth: global structure's field where
 618:.\Generated_Source\PSoC5/RTC.c **** *  current day of month's value is modified.
 619:.\Generated_Source\PSoC5/RTC.c **** *
 620:.\Generated_Source\PSoC5/RTC.c **** * Reentrant:
 621:.\Generated_Source\PSoC5/RTC.c **** *  No.
 622:.\Generated_Source\PSoC5/RTC.c **** *
 623:.\Generated_Source\PSoC5/RTC.c **** *******************************************************************************/
 624:.\Generated_Source\PSoC5/RTC.c **** void RTC_WriteDayOfMonth(uint8 dayOfMonth) 
 625:.\Generated_Source\PSoC5/RTC.c **** {
 626:.\Generated_Source\PSoC5/RTC.c ****     /* Save day of month to the current time and date structure */
 627:.\Generated_Source\PSoC5/RTC.c ****     RTC_currentTimeDate.DayOfMonth = dayOfMonth;
 628:.\Generated_Source\PSoC5/RTC.c **** }
 629:.\Generated_Source\PSoC5/RTC.c **** 
 630:.\Generated_Source\PSoC5/RTC.c **** 
 631:.\Generated_Source\PSoC5/RTC.c **** /*******************************************************************************
 632:.\Generated_Source\PSoC5/RTC.c **** * Function Name:   RTC_WriteMonth
 633:.\Generated_Source\PSoC5/RTC.c **** ********************************************************************************
 634:.\Generated_Source\PSoC5/RTC.c **** *
 635:.\Generated_Source\PSoC5/RTC.c **** * Summary:
 636:.\Generated_Source\PSoC5/RTC.c **** *  Writes Month software register value.
 637:.\Generated_Source\PSoC5/RTC.c **** *
 638:.\Generated_Source\PSoC5/RTC.c **** * Parameters:
 639:.\Generated_Source\PSoC5/RTC.c **** *  month: Month value.
 640:.\Generated_Source\PSoC5/RTC.c **** *
 641:.\Generated_Source\PSoC5/RTC.c **** * Return:
 642:.\Generated_Source\PSoC5/RTC.c **** *  None.
 643:.\Generated_Source\PSoC5/RTC.c **** *
 644:.\Generated_Source\PSoC5/RTC.c **** * Global variables:
 645:.\Generated_Source\PSoC5/RTC.c **** *  RTC_currentTimeDate.Month: global structure's field where
 646:.\Generated_Source\PSoC5/RTC.c **** *  current day of month's value is modified.
 647:.\Generated_Source\PSoC5/RTC.c **** *
 648:.\Generated_Source\PSoC5/RTC.c **** * Reentrant:
 649:.\Generated_Source\PSoC5/RTC.c **** *  No.
 650:.\Generated_Source\PSoC5/RTC.c **** *
 651:.\Generated_Source\PSoC5/RTC.c **** *******************************************************************************/
 652:.\Generated_Source\PSoC5/RTC.c **** void RTC_WriteMonth(uint8 month) 
 653:.\Generated_Source\PSoC5/RTC.c **** {
 654:.\Generated_Source\PSoC5/RTC.c ****     /* Save months to the current time and date structure */
 655:.\Generated_Source\PSoC5/RTC.c ****     RTC_currentTimeDate.Month = month;
 656:.\Generated_Source\PSoC5/RTC.c **** }
 657:.\Generated_Source\PSoC5/RTC.c **** 
 658:.\Generated_Source\PSoC5/RTC.c **** 
 659:.\Generated_Source\PSoC5/RTC.c **** /*******************************************************************************
ARM GAS  C:\Users\mark6\AppData\Local\Temp\ccQgPzp9.s 			page 13


 660:.\Generated_Source\PSoC5/RTC.c **** * Function Name:   RTC_WriteYear
 661:.\Generated_Source\PSoC5/RTC.c **** ********************************************************************************
 662:.\Generated_Source\PSoC5/RTC.c **** *
 663:.\Generated_Source\PSoC5/RTC.c **** * Summary:
 664:.\Generated_Source\PSoC5/RTC.c **** *  Writes Year software register value.
 665:.\Generated_Source\PSoC5/RTC.c **** *
 666:.\Generated_Source\PSoC5/RTC.c **** * Parameters:
 667:.\Generated_Source\PSoC5/RTC.c **** *  year: Years value.
 668:.\Generated_Source\PSoC5/RTC.c **** *
 669:.\Generated_Source\PSoC5/RTC.c **** * Return:
 670:.\Generated_Source\PSoC5/RTC.c **** *  None.
 671:.\Generated_Source\PSoC5/RTC.c **** *
 672:.\Generated_Source\PSoC5/RTC.c **** * Global variables:
 673:.\Generated_Source\PSoC5/RTC.c **** *  RTC_currentTimeDate.Year: global structure's field where
 674:.\Generated_Source\PSoC5/RTC.c **** *  current year's value is modified.
 675:.\Generated_Source\PSoC5/RTC.c **** *
 676:.\Generated_Source\PSoC5/RTC.c **** * Reentrant:
 677:.\Generated_Source\PSoC5/RTC.c **** *  No.
 678:.\Generated_Source\PSoC5/RTC.c **** *
 679:.\Generated_Source\PSoC5/RTC.c **** *******************************************************************************/
 680:.\Generated_Source\PSoC5/RTC.c **** void RTC_WriteYear(uint16 year) 
 681:.\Generated_Source\PSoC5/RTC.c **** {
 682:.\Generated_Source\PSoC5/RTC.c ****     /* Save years to the current time and date structure */
 683:.\Generated_Source\PSoC5/RTC.c ****     RTC_currentTimeDate.Year = year;
 684:.\Generated_Source\PSoC5/RTC.c **** }
 685:.\Generated_Source\PSoC5/RTC.c **** 
 686:.\Generated_Source\PSoC5/RTC.c **** 
 687:.\Generated_Source\PSoC5/RTC.c **** /*******************************************************************************
 688:.\Generated_Source\PSoC5/RTC.c **** * Function Name:   RTC_WriteAlarmSecond
 689:.\Generated_Source\PSoC5/RTC.c **** ********************************************************************************
 690:.\Generated_Source\PSoC5/RTC.c **** *
 691:.\Generated_Source\PSoC5/RTC.c **** * Summary:
 692:.\Generated_Source\PSoC5/RTC.c **** *  Writes Alarm Sec software register value.
 693:.\Generated_Source\PSoC5/RTC.c **** *
 694:.\Generated_Source\PSoC5/RTC.c **** * Parameters:
 695:.\Generated_Source\PSoC5/RTC.c **** *  second: Alarm Seconds value.
 696:.\Generated_Source\PSoC5/RTC.c **** *
 697:.\Generated_Source\PSoC5/RTC.c **** * Return:
 698:.\Generated_Source\PSoC5/RTC.c **** *  None.
 699:.\Generated_Source\PSoC5/RTC.c **** *
 700:.\Generated_Source\PSoC5/RTC.c **** * Global variables:
 701:.\Generated_Source\PSoC5/RTC.c **** *  RTC_currentTimeDate.Sec: this global variable is used for
 702:.\Generated_Source\PSoC5/RTC.c **** *  comparison while setting and clearing seconds alarm status variable.
 703:.\Generated_Source\PSoC5/RTC.c **** *
 704:.\Generated_Source\PSoC5/RTC.c **** *  RTC_alarmCfgTimeDate.Sec: this global variable is modified to
 705:.\Generated_Source\PSoC5/RTC.c **** *  store of the new seconds alarm.
 706:.\Generated_Source\PSoC5/RTC.c **** *
 707:.\Generated_Source\PSoC5/RTC.c **** *  RTC_alarmCurStatus: this global variable could be changed if
 708:.\Generated_Source\PSoC5/RTC.c **** *  second's alarm will be raised.
 709:.\Generated_Source\PSoC5/RTC.c **** *
 710:.\Generated_Source\PSoC5/RTC.c **** * Reentrant:
 711:.\Generated_Source\PSoC5/RTC.c **** *  No.
 712:.\Generated_Source\PSoC5/RTC.c **** *
 713:.\Generated_Source\PSoC5/RTC.c **** *******************************************************************************/
 714:.\Generated_Source\PSoC5/RTC.c **** void RTC_WriteAlarmSecond(uint8 second) 
 715:.\Generated_Source\PSoC5/RTC.c **** {
 716:.\Generated_Source\PSoC5/RTC.c ****     RTC_alarmCfgTimeDate.Sec = second;
ARM GAS  C:\Users\mark6\AppData\Local\Temp\ccQgPzp9.s 			page 14


 717:.\Generated_Source\PSoC5/RTC.c **** 
 718:.\Generated_Source\PSoC5/RTC.c ****     /* Check second alarm */
 719:.\Generated_Source\PSoC5/RTC.c ****     if(RTC_alarmCfgTimeDate.Sec == RTC_currentTimeDate.Sec)
 720:.\Generated_Source\PSoC5/RTC.c ****     {
 721:.\Generated_Source\PSoC5/RTC.c ****         /* Set second alarm */
 722:.\Generated_Source\PSoC5/RTC.c ****         RTC_alarmCurStatus |= RTC_ALARM_SEC_MASK;
 723:.\Generated_Source\PSoC5/RTC.c ****     }
 724:.\Generated_Source\PSoC5/RTC.c ****     else /* no second alarm */
 725:.\Generated_Source\PSoC5/RTC.c ****     {
 726:.\Generated_Source\PSoC5/RTC.c ****         /* Clear second alarm */
 727:.\Generated_Source\PSoC5/RTC.c ****         RTC_alarmCurStatus &= (uint8)(~RTC_ALARM_SEC_MASK);
 728:.\Generated_Source\PSoC5/RTC.c ****     }
 729:.\Generated_Source\PSoC5/RTC.c **** }
 730:.\Generated_Source\PSoC5/RTC.c **** 
 731:.\Generated_Source\PSoC5/RTC.c **** 
 732:.\Generated_Source\PSoC5/RTC.c **** /*******************************************************************************
 733:.\Generated_Source\PSoC5/RTC.c **** * Function Name:   RTC_WriteAlarmMinute
 734:.\Generated_Source\PSoC5/RTC.c **** ********************************************************************************
 735:.\Generated_Source\PSoC5/RTC.c **** *
 736:.\Generated_Source\PSoC5/RTC.c **** * Summary:
 737:.\Generated_Source\PSoC5/RTC.c **** *  Writes Alarm Min software register value.
 738:.\Generated_Source\PSoC5/RTC.c **** *
 739:.\Generated_Source\PSoC5/RTC.c **** * Parameters:
 740:.\Generated_Source\PSoC5/RTC.c **** *  minute: Alarm minutes value.
 741:.\Generated_Source\PSoC5/RTC.c **** *
 742:.\Generated_Source\PSoC5/RTC.c **** * Return:
 743:.\Generated_Source\PSoC5/RTC.c **** *  None.
 744:.\Generated_Source\PSoC5/RTC.c **** *
 745:.\Generated_Source\PSoC5/RTC.c **** * Global variables:
 746:.\Generated_Source\PSoC5/RTC.c **** *  RTC_currentTimeDate.Min: this global variable is used for
 747:.\Generated_Source\PSoC5/RTC.c **** *  comparison while setting and clearing minutes alarm status variable.
 748:.\Generated_Source\PSoC5/RTC.c **** *
 749:.\Generated_Source\PSoC5/RTC.c **** *  RTC_alarmCfgTimeDate.Min: this global variable is modified to
 750:.\Generated_Source\PSoC5/RTC.c **** *  store of the new minutes alarm.
 751:.\Generated_Source\PSoC5/RTC.c **** *
 752:.\Generated_Source\PSoC5/RTC.c **** *  RTC_alarmCurStatus: this global variable could be changed if
 753:.\Generated_Source\PSoC5/RTC.c **** *  minute's alarm will be raised.
 754:.\Generated_Source\PSoC5/RTC.c **** *
 755:.\Generated_Source\PSoC5/RTC.c **** * Reentrant:
 756:.\Generated_Source\PSoC5/RTC.c **** *  No.
 757:.\Generated_Source\PSoC5/RTC.c **** *
 758:.\Generated_Source\PSoC5/RTC.c **** *******************************************************************************/
 759:.\Generated_Source\PSoC5/RTC.c **** void RTC_WriteAlarmMinute(uint8 minute) 
 760:.\Generated_Source\PSoC5/RTC.c **** {
 761:.\Generated_Source\PSoC5/RTC.c ****     RTC_alarmCfgTimeDate.Min = minute;
 762:.\Generated_Source\PSoC5/RTC.c **** 
 763:.\Generated_Source\PSoC5/RTC.c ****     /* Check minute alarm */
 764:.\Generated_Source\PSoC5/RTC.c ****     if(RTC_alarmCfgTimeDate.Min == RTC_currentTimeDate.Min)
 765:.\Generated_Source\PSoC5/RTC.c ****     {
 766:.\Generated_Source\PSoC5/RTC.c ****         /* Set minute alarm */
 767:.\Generated_Source\PSoC5/RTC.c ****         RTC_alarmCurStatus |= RTC_ALARM_MIN_MASK;
 768:.\Generated_Source\PSoC5/RTC.c ****     }
 769:.\Generated_Source\PSoC5/RTC.c ****     else /* no minute alarm */
 770:.\Generated_Source\PSoC5/RTC.c ****     {
 771:.\Generated_Source\PSoC5/RTC.c ****         /* Clear minute alarm */
 772:.\Generated_Source\PSoC5/RTC.c ****         RTC_alarmCurStatus &= (uint8)(~RTC_ALARM_MIN_MASK);
 773:.\Generated_Source\PSoC5/RTC.c ****     }
ARM GAS  C:\Users\mark6\AppData\Local\Temp\ccQgPzp9.s 			page 15


 774:.\Generated_Source\PSoC5/RTC.c **** }
 775:.\Generated_Source\PSoC5/RTC.c **** 
 776:.\Generated_Source\PSoC5/RTC.c **** 
 777:.\Generated_Source\PSoC5/RTC.c **** /*******************************************************************************
 778:.\Generated_Source\PSoC5/RTC.c **** * Function Name:   RTC_WriteAlarmHour
 779:.\Generated_Source\PSoC5/RTC.c **** ********************************************************************************
 780:.\Generated_Source\PSoC5/RTC.c **** *
 781:.\Generated_Source\PSoC5/RTC.c **** * Summary:
 782:.\Generated_Source\PSoC5/RTC.c **** *  Writes Alarm Hour software register value.
 783:.\Generated_Source\PSoC5/RTC.c **** *
 784:.\Generated_Source\PSoC5/RTC.c **** * Parameters:
 785:.\Generated_Source\PSoC5/RTC.c **** *  hour: Alarm hours value.
 786:.\Generated_Source\PSoC5/RTC.c **** *
 787:.\Generated_Source\PSoC5/RTC.c **** * Return:
 788:.\Generated_Source\PSoC5/RTC.c **** *  None.
 789:.\Generated_Source\PSoC5/RTC.c **** *
 790:.\Generated_Source\PSoC5/RTC.c **** * Global variables:
 791:.\Generated_Source\PSoC5/RTC.c **** *  RTC_currentTimeDate.Hour: this global variable is used for
 792:.\Generated_Source\PSoC5/RTC.c **** *  comparison while setting and clearing hours alarm status variable.
 793:.\Generated_Source\PSoC5/RTC.c **** *
 794:.\Generated_Source\PSoC5/RTC.c **** *  RTC_alarmCfgTimeDate.Hour: this global variable is modified to
 795:.\Generated_Source\PSoC5/RTC.c **** *  store of the new hours alarm.
 796:.\Generated_Source\PSoC5/RTC.c **** *
 797:.\Generated_Source\PSoC5/RTC.c **** *  RTC_alarmCurStatus: this global variable could be changed if
 798:.\Generated_Source\PSoC5/RTC.c **** *  hours alarm will be raised.
 799:.\Generated_Source\PSoC5/RTC.c **** *
 800:.\Generated_Source\PSoC5/RTC.c **** * Reentrant:
 801:.\Generated_Source\PSoC5/RTC.c **** *  No.
 802:.\Generated_Source\PSoC5/RTC.c **** *
 803:.\Generated_Source\PSoC5/RTC.c **** *******************************************************************************/
 804:.\Generated_Source\PSoC5/RTC.c **** void RTC_WriteAlarmHour(uint8 hour) 
 805:.\Generated_Source\PSoC5/RTC.c **** {
 806:.\Generated_Source\PSoC5/RTC.c ****     RTC_alarmCfgTimeDate.Hour = hour;
 807:.\Generated_Source\PSoC5/RTC.c **** 
 808:.\Generated_Source\PSoC5/RTC.c ****     /* Check hour alarm */
 809:.\Generated_Source\PSoC5/RTC.c ****     if(RTC_alarmCfgTimeDate.Hour == RTC_currentTimeDate.Hour)
 810:.\Generated_Source\PSoC5/RTC.c ****     {
 811:.\Generated_Source\PSoC5/RTC.c ****         /* Set hour alarm */
 812:.\Generated_Source\PSoC5/RTC.c ****         RTC_alarmCurStatus |= RTC_ALARM_HOUR_MASK;
 813:.\Generated_Source\PSoC5/RTC.c ****     }
 814:.\Generated_Source\PSoC5/RTC.c ****     else /* no hour alarm */
 815:.\Generated_Source\PSoC5/RTC.c ****     {
 816:.\Generated_Source\PSoC5/RTC.c ****         /* Clear hour alarm */
 817:.\Generated_Source\PSoC5/RTC.c ****         RTC_alarmCurStatus &= (uint8)(~RTC_ALARM_HOUR_MASK);
 818:.\Generated_Source\PSoC5/RTC.c ****     }
 819:.\Generated_Source\PSoC5/RTC.c **** }
 820:.\Generated_Source\PSoC5/RTC.c **** 
 821:.\Generated_Source\PSoC5/RTC.c **** 
 822:.\Generated_Source\PSoC5/RTC.c **** /*******************************************************************************
 823:.\Generated_Source\PSoC5/RTC.c **** * Function Name:   RTC_WriteAlarmDayOfMonth
 824:.\Generated_Source\PSoC5/RTC.c **** ********************************************************************************
 825:.\Generated_Source\PSoC5/RTC.c **** *
 826:.\Generated_Source\PSoC5/RTC.c **** * Summary:
 827:.\Generated_Source\PSoC5/RTC.c **** *  Writes Alarm DayOfMonth software register value.
 828:.\Generated_Source\PSoC5/RTC.c **** *
 829:.\Generated_Source\PSoC5/RTC.c **** * Parameters:
 830:.\Generated_Source\PSoC5/RTC.c **** *  dayOfMonth: Alarm day of month value.
ARM GAS  C:\Users\mark6\AppData\Local\Temp\ccQgPzp9.s 			page 16


 831:.\Generated_Source\PSoC5/RTC.c **** *
 832:.\Generated_Source\PSoC5/RTC.c **** * Return:
 833:.\Generated_Source\PSoC5/RTC.c **** *  None.
 834:.\Generated_Source\PSoC5/RTC.c **** *
 835:.\Generated_Source\PSoC5/RTC.c **** * Global variables:
 836:.\Generated_Source\PSoC5/RTC.c **** *  RTC_currentTimeDate.DayOfMonth: this global variable is used for
 837:.\Generated_Source\PSoC5/RTC.c **** *  comparison while setting and clearing day of month alarm status variable.
 838:.\Generated_Source\PSoC5/RTC.c **** *
 839:.\Generated_Source\PSoC5/RTC.c **** *  RTC_alarmCfgTimeDate.DayOfMonth: this global variable is
 840:.\Generated_Source\PSoC5/RTC.c **** *  modified to store of the new day of month alarm.
 841:.\Generated_Source\PSoC5/RTC.c **** *
 842:.\Generated_Source\PSoC5/RTC.c **** *  RTC_alarmCurStatus: this global variable could be changed if
 843:.\Generated_Source\PSoC5/RTC.c **** *  day of month alarm will be raised.
 844:.\Generated_Source\PSoC5/RTC.c **** *
 845:.\Generated_Source\PSoC5/RTC.c **** * Reentrant:
 846:.\Generated_Source\PSoC5/RTC.c **** *  No.
 847:.\Generated_Source\PSoC5/RTC.c **** *
 848:.\Generated_Source\PSoC5/RTC.c **** *******************************************************************************/
 849:.\Generated_Source\PSoC5/RTC.c **** void RTC_WriteAlarmDayOfMonth(uint8 dayOfMonth) 
 850:.\Generated_Source\PSoC5/RTC.c **** {
 851:.\Generated_Source\PSoC5/RTC.c ****     RTC_alarmCfgTimeDate.DayOfMonth = dayOfMonth;
 852:.\Generated_Source\PSoC5/RTC.c **** 
 853:.\Generated_Source\PSoC5/RTC.c ****     /* Check day of month alarm */
 854:.\Generated_Source\PSoC5/RTC.c ****     if(RTC_alarmCfgTimeDate.DayOfMonth == RTC_currentTimeDate.DayOfMonth)
 855:.\Generated_Source\PSoC5/RTC.c ****     {
 856:.\Generated_Source\PSoC5/RTC.c ****         /* Set day of month alarm */
 857:.\Generated_Source\PSoC5/RTC.c ****         RTC_alarmCurStatus |= RTC_ALARM_DAYOFMONTH_MASK;
 858:.\Generated_Source\PSoC5/RTC.c ****     }
 859:.\Generated_Source\PSoC5/RTC.c ****     else /* no day of month alarm */
 860:.\Generated_Source\PSoC5/RTC.c ****     {
 861:.\Generated_Source\PSoC5/RTC.c ****         /* Clear day of month alarm */
 862:.\Generated_Source\PSoC5/RTC.c ****         RTC_alarmCurStatus &= (uint8)(~RTC_ALARM_DAYOFMONTH_MASK);
 863:.\Generated_Source\PSoC5/RTC.c ****     }
 864:.\Generated_Source\PSoC5/RTC.c **** }
 865:.\Generated_Source\PSoC5/RTC.c **** 
 866:.\Generated_Source\PSoC5/RTC.c **** 
 867:.\Generated_Source\PSoC5/RTC.c **** /*******************************************************************************
 868:.\Generated_Source\PSoC5/RTC.c **** * Function Name:   RTC_WriteAlarmMonth
 869:.\Generated_Source\PSoC5/RTC.c **** ********************************************************************************
 870:.\Generated_Source\PSoC5/RTC.c **** *
 871:.\Generated_Source\PSoC5/RTC.c **** * Summary:
 872:.\Generated_Source\PSoC5/RTC.c **** *  Writes Alarm Month software register value.
 873:.\Generated_Source\PSoC5/RTC.c **** *
 874:.\Generated_Source\PSoC5/RTC.c **** * Parameters:
 875:.\Generated_Source\PSoC5/RTC.c **** *  month: Alarm month value.
 876:.\Generated_Source\PSoC5/RTC.c **** *
 877:.\Generated_Source\PSoC5/RTC.c **** * Return:
 878:.\Generated_Source\PSoC5/RTC.c **** *  None.
 879:.\Generated_Source\PSoC5/RTC.c **** *
 880:.\Generated_Source\PSoC5/RTC.c **** * Global variables:
 881:.\Generated_Source\PSoC5/RTC.c **** *  RTC_currentTimeDate.Month: this global variable is used for
 882:.\Generated_Source\PSoC5/RTC.c **** *  comparison while setting and clearing month alarm status variable.
 883:.\Generated_Source\PSoC5/RTC.c **** *
 884:.\Generated_Source\PSoC5/RTC.c **** *  RTC_alarmCfgTimeDate.Month: this global variable is modified
 885:.\Generated_Source\PSoC5/RTC.c **** *  to store of the new month alarm.
 886:.\Generated_Source\PSoC5/RTC.c **** *
 887:.\Generated_Source\PSoC5/RTC.c **** *  RTC_alarmCurStatus: this global variable could be changed if
ARM GAS  C:\Users\mark6\AppData\Local\Temp\ccQgPzp9.s 			page 17


 888:.\Generated_Source\PSoC5/RTC.c **** *  month alarm will be raised.
 889:.\Generated_Source\PSoC5/RTC.c **** *
 890:.\Generated_Source\PSoC5/RTC.c **** * Reentrant:
 891:.\Generated_Source\PSoC5/RTC.c **** *  No.
 892:.\Generated_Source\PSoC5/RTC.c **** *
 893:.\Generated_Source\PSoC5/RTC.c **** *******************************************************************************/
 894:.\Generated_Source\PSoC5/RTC.c **** void RTC_WriteAlarmMonth(uint8 month) 
 895:.\Generated_Source\PSoC5/RTC.c **** {
 896:.\Generated_Source\PSoC5/RTC.c ****     RTC_alarmCfgTimeDate.Month = month;
 897:.\Generated_Source\PSoC5/RTC.c **** 
 898:.\Generated_Source\PSoC5/RTC.c ****     /* Check month alarm */
 899:.\Generated_Source\PSoC5/RTC.c ****     if(RTC_alarmCfgTimeDate.Month == RTC_currentTimeDate.Month)
 900:.\Generated_Source\PSoC5/RTC.c ****     {
 901:.\Generated_Source\PSoC5/RTC.c ****         /* Set month alarm */
 902:.\Generated_Source\PSoC5/RTC.c ****         RTC_alarmCurStatus |= RTC_ALARM_MONTH_MASK;
 903:.\Generated_Source\PSoC5/RTC.c ****     }
 904:.\Generated_Source\PSoC5/RTC.c ****     else /* no month alarm */
 905:.\Generated_Source\PSoC5/RTC.c ****     {
 906:.\Generated_Source\PSoC5/RTC.c ****         /* Clear month alarm */
 907:.\Generated_Source\PSoC5/RTC.c ****         RTC_alarmCurStatus &= (uint8)(~RTC_ALARM_MONTH_MASK);
 908:.\Generated_Source\PSoC5/RTC.c ****     }
 909:.\Generated_Source\PSoC5/RTC.c **** }
 910:.\Generated_Source\PSoC5/RTC.c **** 
 911:.\Generated_Source\PSoC5/RTC.c **** 
 912:.\Generated_Source\PSoC5/RTC.c **** /*******************************************************************************
 913:.\Generated_Source\PSoC5/RTC.c **** * Function Name:   RTC_WriteAlarmYear
 914:.\Generated_Source\PSoC5/RTC.c **** ********************************************************************************
 915:.\Generated_Source\PSoC5/RTC.c **** *
 916:.\Generated_Source\PSoC5/RTC.c **** * Summary:
 917:.\Generated_Source\PSoC5/RTC.c **** *  Writes Alarm Year software register value.
 918:.\Generated_Source\PSoC5/RTC.c **** *
 919:.\Generated_Source\PSoC5/RTC.c **** * Parameters:
 920:.\Generated_Source\PSoC5/RTC.c **** *  year: Alarm year value.
 921:.\Generated_Source\PSoC5/RTC.c **** *
 922:.\Generated_Source\PSoC5/RTC.c **** * Return:
 923:.\Generated_Source\PSoC5/RTC.c **** *  None.
 924:.\Generated_Source\PSoC5/RTC.c **** *
 925:.\Generated_Source\PSoC5/RTC.c **** * Global variables:
 926:.\Generated_Source\PSoC5/RTC.c **** *  RTC_currentTimeDate.Year: this global variable is used for
 927:.\Generated_Source\PSoC5/RTC.c **** *  comparison while setting and clearing year alarm status variable.
 928:.\Generated_Source\PSoC5/RTC.c **** *
 929:.\Generated_Source\PSoC5/RTC.c **** *  RTC_alarmCfgTimeDate.Year: this global variable is modified
 930:.\Generated_Source\PSoC5/RTC.c **** *  to store of the new year alarm.
 931:.\Generated_Source\PSoC5/RTC.c **** *
 932:.\Generated_Source\PSoC5/RTC.c **** *  RTC_alarmCurStatus: this global variable could be changed if
 933:.\Generated_Source\PSoC5/RTC.c **** *  year alarm will be raised.
 934:.\Generated_Source\PSoC5/RTC.c **** *
 935:.\Generated_Source\PSoC5/RTC.c **** * Reentrant:
 936:.\Generated_Source\PSoC5/RTC.c **** *  No.
 937:.\Generated_Source\PSoC5/RTC.c **** *
 938:.\Generated_Source\PSoC5/RTC.c **** *******************************************************************************/
 939:.\Generated_Source\PSoC5/RTC.c **** void RTC_WriteAlarmYear(uint16 year) 
 940:.\Generated_Source\PSoC5/RTC.c **** {
 941:.\Generated_Source\PSoC5/RTC.c ****    RTC_alarmCfgTimeDate.Year = year;
 942:.\Generated_Source\PSoC5/RTC.c **** 
 943:.\Generated_Source\PSoC5/RTC.c ****     /* Check year alarm */
 944:.\Generated_Source\PSoC5/RTC.c ****     if(RTC_alarmCfgTimeDate.Year == RTC_currentTimeDate.Year)
ARM GAS  C:\Users\mark6\AppData\Local\Temp\ccQgPzp9.s 			page 18


 945:.\Generated_Source\PSoC5/RTC.c ****     {
 946:.\Generated_Source\PSoC5/RTC.c ****         /* Set year alarm */
 947:.\Generated_Source\PSoC5/RTC.c ****         RTC_alarmCurStatus |= RTC_ALARM_YEAR_MASK;
 948:.\Generated_Source\PSoC5/RTC.c ****     }
 949:.\Generated_Source\PSoC5/RTC.c ****     else /* no year alarm */
 950:.\Generated_Source\PSoC5/RTC.c ****     {
 951:.\Generated_Source\PSoC5/RTC.c ****         /* Set year alarm */
 952:.\Generated_Source\PSoC5/RTC.c ****         RTC_alarmCurStatus &= (uint8)(~RTC_ALARM_YEAR_MASK);
 953:.\Generated_Source\PSoC5/RTC.c ****     }
 954:.\Generated_Source\PSoC5/RTC.c **** }
 955:.\Generated_Source\PSoC5/RTC.c **** 
 956:.\Generated_Source\PSoC5/RTC.c **** 
 957:.\Generated_Source\PSoC5/RTC.c **** /*******************************************************************************
 958:.\Generated_Source\PSoC5/RTC.c **** * Function Name:   RTC_WriteAlarmDayOfWeek
 959:.\Generated_Source\PSoC5/RTC.c **** ********************************************************************************
 960:.\Generated_Source\PSoC5/RTC.c **** *
 961:.\Generated_Source\PSoC5/RTC.c **** * Summary:
 962:.\Generated_Source\PSoC5/RTC.c **** *   Writes Alarm DayOfWeek software register value.
 963:.\Generated_Source\PSoC5/RTC.c **** *   Days values {Sun = 1, Mon = 2, Tue = 3, Wen = 4, Thu = 5, Fri = 6, Sat = 7}
 964:.\Generated_Source\PSoC5/RTC.c **** *
 965:.\Generated_Source\PSoC5/RTC.c **** * Parameters:
 966:.\Generated_Source\PSoC5/RTC.c **** *  dayOfWeek: Alarm day of week value.
 967:.\Generated_Source\PSoC5/RTC.c **** *
 968:.\Generated_Source\PSoC5/RTC.c **** * Return:
 969:.\Generated_Source\PSoC5/RTC.c **** *  None.
 970:.\Generated_Source\PSoC5/RTC.c **** *
 971:.\Generated_Source\PSoC5/RTC.c **** * Global variables:
 972:.\Generated_Source\PSoC5/RTC.c **** *  RTC_currentTimeDate.DayOfWeek: this global variable is used for
 973:.\Generated_Source\PSoC5/RTC.c **** *  comparison while setting and clearing day of week alarm status variable.
 974:.\Generated_Source\PSoC5/RTC.c **** *
 975:.\Generated_Source\PSoC5/RTC.c **** *  RTC_alarmCfgTimeDate.DayOfWeek: this global variable is modified
 976:.\Generated_Source\PSoC5/RTC.c **** *  to store of the new day of week alarm.
 977:.\Generated_Source\PSoC5/RTC.c **** *
 978:.\Generated_Source\PSoC5/RTC.c **** *  RTC_alarmCurStatus: this global variable could be changed if
 979:.\Generated_Source\PSoC5/RTC.c **** *  day of week alarm will be raised.
 980:.\Generated_Source\PSoC5/RTC.c **** *
 981:.\Generated_Source\PSoC5/RTC.c **** * Reentrant:
 982:.\Generated_Source\PSoC5/RTC.c **** *  No.
 983:.\Generated_Source\PSoC5/RTC.c **** *
 984:.\Generated_Source\PSoC5/RTC.c **** *******************************************************************************/
 985:.\Generated_Source\PSoC5/RTC.c **** void RTC_WriteAlarmDayOfWeek(uint8 dayOfWeek) 
 986:.\Generated_Source\PSoC5/RTC.c **** {
 987:.\Generated_Source\PSoC5/RTC.c ****     RTC_alarmCfgTimeDate.DayOfWeek = dayOfWeek;
 988:.\Generated_Source\PSoC5/RTC.c **** 
 989:.\Generated_Source\PSoC5/RTC.c ****     /* Check day of week alarm */
 990:.\Generated_Source\PSoC5/RTC.c ****     if(RTC_alarmCfgTimeDate.DayOfWeek == RTC_currentTimeDate.DayOfWeek)
 991:.\Generated_Source\PSoC5/RTC.c ****     {
 992:.\Generated_Source\PSoC5/RTC.c ****         /* Set day of week alarm */
 993:.\Generated_Source\PSoC5/RTC.c ****         RTC_alarmCurStatus |= RTC_ALARM_DAYOFWEEK_MASK;
 994:.\Generated_Source\PSoC5/RTC.c ****     }
 995:.\Generated_Source\PSoC5/RTC.c ****     else /* no day of week alarm */
 996:.\Generated_Source\PSoC5/RTC.c ****     {
 997:.\Generated_Source\PSoC5/RTC.c ****         /* Set day of week alarm */
 998:.\Generated_Source\PSoC5/RTC.c ****         RTC_alarmCurStatus &= (uint8)(~RTC_ALARM_DAYOFWEEK_MASK);
 999:.\Generated_Source\PSoC5/RTC.c ****     }
1000:.\Generated_Source\PSoC5/RTC.c **** }
1001:.\Generated_Source\PSoC5/RTC.c **** 
ARM GAS  C:\Users\mark6\AppData\Local\Temp\ccQgPzp9.s 			page 19


1002:.\Generated_Source\PSoC5/RTC.c **** 
1003:.\Generated_Source\PSoC5/RTC.c **** /*******************************************************************************
1004:.\Generated_Source\PSoC5/RTC.c **** * Function Name:   RTC_WriteAlarmDayOfYear
1005:.\Generated_Source\PSoC5/RTC.c **** ********************************************************************************
1006:.\Generated_Source\PSoC5/RTC.c **** *
1007:.\Generated_Source\PSoC5/RTC.c **** * Summary:
1008:.\Generated_Source\PSoC5/RTC.c **** *  Writes Alarm DayOfYear software register value.
1009:.\Generated_Source\PSoC5/RTC.c **** *
1010:.\Generated_Source\PSoC5/RTC.c **** * Parameters:
1011:.\Generated_Source\PSoC5/RTC.c **** *  dayOfYear: Alarm day of year value.
1012:.\Generated_Source\PSoC5/RTC.c **** *
1013:.\Generated_Source\PSoC5/RTC.c **** * Return:
1014:.\Generated_Source\PSoC5/RTC.c **** *  None.
1015:.\Generated_Source\PSoC5/RTC.c **** *
1016:.\Generated_Source\PSoC5/RTC.c **** * Global variables:
1017:.\Generated_Source\PSoC5/RTC.c **** *  RTC_currentTimeDate.DayOfYear: this global variable is used for
1018:.\Generated_Source\PSoC5/RTC.c **** *  comparison while setting and clearing day of year alarm status variable.
1019:.\Generated_Source\PSoC5/RTC.c **** *
1020:.\Generated_Source\PSoC5/RTC.c **** *  RTC_alarmCfgTimeDate.DayOfYear: this global variable is modified
1021:.\Generated_Source\PSoC5/RTC.c **** *  to store of the new day of year alarm.
1022:.\Generated_Source\PSoC5/RTC.c **** *
1023:.\Generated_Source\PSoC5/RTC.c **** *  RTC_alarmCurStatus: this global variable could be changed if
1024:.\Generated_Source\PSoC5/RTC.c **** *  day of year alarm will be raised.
1025:.\Generated_Source\PSoC5/RTC.c **** *
1026:.\Generated_Source\PSoC5/RTC.c **** * Reentrant:
1027:.\Generated_Source\PSoC5/RTC.c **** *  No.
1028:.\Generated_Source\PSoC5/RTC.c **** *
1029:.\Generated_Source\PSoC5/RTC.c **** *******************************************************************************/
1030:.\Generated_Source\PSoC5/RTC.c **** void RTC_WriteAlarmDayOfYear(uint16 dayOfYear) 
1031:.\Generated_Source\PSoC5/RTC.c **** {
1032:.\Generated_Source\PSoC5/RTC.c ****   RTC_alarmCfgTimeDate.DayOfYear = dayOfYear;
1033:.\Generated_Source\PSoC5/RTC.c **** 
1034:.\Generated_Source\PSoC5/RTC.c ****     /* Check day of year alarm */
1035:.\Generated_Source\PSoC5/RTC.c ****     if(RTC_alarmCfgTimeDate.DayOfYear == RTC_currentTimeDate.DayOfYear)
1036:.\Generated_Source\PSoC5/RTC.c ****     {
1037:.\Generated_Source\PSoC5/RTC.c ****         /* Set day of year alarm */
1038:.\Generated_Source\PSoC5/RTC.c ****         RTC_alarmCurStatus |= RTC_ALARM_DAYOFYEAR_MASK;
1039:.\Generated_Source\PSoC5/RTC.c ****     }
1040:.\Generated_Source\PSoC5/RTC.c ****     else /* no day of year alarm */
1041:.\Generated_Source\PSoC5/RTC.c ****     {
1042:.\Generated_Source\PSoC5/RTC.c ****         /* Set day of year alarm */
1043:.\Generated_Source\PSoC5/RTC.c ****         RTC_alarmCurStatus &= (uint8)(~RTC_ALARM_DAYOFYEAR_MASK);
1044:.\Generated_Source\PSoC5/RTC.c ****     }
1045:.\Generated_Source\PSoC5/RTC.c **** }
1046:.\Generated_Source\PSoC5/RTC.c **** 
1047:.\Generated_Source\PSoC5/RTC.c **** 
1048:.\Generated_Source\PSoC5/RTC.c **** /*******************************************************************************
1049:.\Generated_Source\PSoC5/RTC.c **** * Function Name:   RTC_ReadSecond
1050:.\Generated_Source\PSoC5/RTC.c **** ********************************************************************************
1051:.\Generated_Source\PSoC5/RTC.c **** *
1052:.\Generated_Source\PSoC5/RTC.c **** * Summary:
1053:.\Generated_Source\PSoC5/RTC.c **** *  Reads Sec software register value.
1054:.\Generated_Source\PSoC5/RTC.c **** *
1055:.\Generated_Source\PSoC5/RTC.c **** * Parameters:
1056:.\Generated_Source\PSoC5/RTC.c **** *  None.
1057:.\Generated_Source\PSoC5/RTC.c **** *
1058:.\Generated_Source\PSoC5/RTC.c **** * Return:
ARM GAS  C:\Users\mark6\AppData\Local\Temp\ccQgPzp9.s 			page 20


1059:.\Generated_Source\PSoC5/RTC.c **** *  Current seconds value.
1060:.\Generated_Source\PSoC5/RTC.c **** *
1061:.\Generated_Source\PSoC5/RTC.c **** * Global variables:
1062:.\Generated_Source\PSoC5/RTC.c **** *  RTC_currentTimeDate.Sec: the current second's value is used.
1063:.\Generated_Source\PSoC5/RTC.c **** *
1064:.\Generated_Source\PSoC5/RTC.c **** *******************************************************************************/
1065:.\Generated_Source\PSoC5/RTC.c **** uint8 RTC_ReadSecond(void) 
1066:.\Generated_Source\PSoC5/RTC.c **** {
1067:.\Generated_Source\PSoC5/RTC.c ****     /* Return current second */
1068:.\Generated_Source\PSoC5/RTC.c ****     return (RTC_currentTimeDate.Sec);
1069:.\Generated_Source\PSoC5/RTC.c **** }
1070:.\Generated_Source\PSoC5/RTC.c **** 
1071:.\Generated_Source\PSoC5/RTC.c **** 
1072:.\Generated_Source\PSoC5/RTC.c **** /*******************************************************************************
1073:.\Generated_Source\PSoC5/RTC.c **** * Function Name:   RTC_ReadMinute
1074:.\Generated_Source\PSoC5/RTC.c **** ********************************************************************************
1075:.\Generated_Source\PSoC5/RTC.c **** *
1076:.\Generated_Source\PSoC5/RTC.c **** * Summary:
1077:.\Generated_Source\PSoC5/RTC.c **** *  Reads Min software register value.
1078:.\Generated_Source\PSoC5/RTC.c **** *
1079:.\Generated_Source\PSoC5/RTC.c **** * Parameters:
1080:.\Generated_Source\PSoC5/RTC.c **** *  None.
1081:.\Generated_Source\PSoC5/RTC.c **** *
1082:.\Generated_Source\PSoC5/RTC.c **** * Return:
1083:.\Generated_Source\PSoC5/RTC.c **** *  Current field's value is returned.
1084:.\Generated_Source\PSoC5/RTC.c **** *
1085:.\Generated_Source\PSoC5/RTC.c **** * Global variables:
1086:.\Generated_Source\PSoC5/RTC.c **** *  RTC_currentTimeDate.Min: the current field's value is used.
1087:.\Generated_Source\PSoC5/RTC.c **** *
1088:.\Generated_Source\PSoC5/RTC.c **** *******************************************************************************/
1089:.\Generated_Source\PSoC5/RTC.c **** uint8 RTC_ReadMinute(void) 
1090:.\Generated_Source\PSoC5/RTC.c **** {
1091:.\Generated_Source\PSoC5/RTC.c ****     /* Return current minute */
1092:.\Generated_Source\PSoC5/RTC.c ****     return (RTC_currentTimeDate.Min);
1093:.\Generated_Source\PSoC5/RTC.c **** }
1094:.\Generated_Source\PSoC5/RTC.c **** 
1095:.\Generated_Source\PSoC5/RTC.c **** 
1096:.\Generated_Source\PSoC5/RTC.c **** /*******************************************************************************
1097:.\Generated_Source\PSoC5/RTC.c **** * Function Name:   RTC_ReadHour
1098:.\Generated_Source\PSoC5/RTC.c **** ********************************************************************************
1099:.\Generated_Source\PSoC5/RTC.c **** *
1100:.\Generated_Source\PSoC5/RTC.c **** * Summary:
1101:.\Generated_Source\PSoC5/RTC.c **** *  Reads Hour software register value.
1102:.\Generated_Source\PSoC5/RTC.c **** *
1103:.\Generated_Source\PSoC5/RTC.c **** * Parameters:
1104:.\Generated_Source\PSoC5/RTC.c **** *  None.
1105:.\Generated_Source\PSoC5/RTC.c **** *
1106:.\Generated_Source\PSoC5/RTC.c **** * Return:
1107:.\Generated_Source\PSoC5/RTC.c **** *  Current hour's value.
1108:.\Generated_Source\PSoC5/RTC.c **** *
1109:.\Generated_Source\PSoC5/RTC.c **** * Global variables:
1110:.\Generated_Source\PSoC5/RTC.c **** *  RTC_currentTimeDate.Hour: the current field's value is used.
1111:.\Generated_Source\PSoC5/RTC.c **** *
1112:.\Generated_Source\PSoC5/RTC.c **** *******************************************************************************/
1113:.\Generated_Source\PSoC5/RTC.c **** uint8 RTC_ReadHour(void) 
1114:.\Generated_Source\PSoC5/RTC.c **** {
1115:.\Generated_Source\PSoC5/RTC.c ****     /* Return current hour */
ARM GAS  C:\Users\mark6\AppData\Local\Temp\ccQgPzp9.s 			page 21


1116:.\Generated_Source\PSoC5/RTC.c ****     return (RTC_currentTimeDate.Hour);
1117:.\Generated_Source\PSoC5/RTC.c **** }
1118:.\Generated_Source\PSoC5/RTC.c **** 
1119:.\Generated_Source\PSoC5/RTC.c **** 
1120:.\Generated_Source\PSoC5/RTC.c **** /*******************************************************************************
1121:.\Generated_Source\PSoC5/RTC.c **** * Function Name:   RTC_ReadDayOfMonth
1122:.\Generated_Source\PSoC5/RTC.c **** ********************************************************************************
1123:.\Generated_Source\PSoC5/RTC.c **** *
1124:.\Generated_Source\PSoC5/RTC.c **** * Summary:
1125:.\Generated_Source\PSoC5/RTC.c **** *  Reads DayOfMonth software register value.
1126:.\Generated_Source\PSoC5/RTC.c **** *
1127:.\Generated_Source\PSoC5/RTC.c **** * Parameters:
1128:.\Generated_Source\PSoC5/RTC.c **** *  None.
1129:.\Generated_Source\PSoC5/RTC.c **** *
1130:.\Generated_Source\PSoC5/RTC.c **** * Return:
1131:.\Generated_Source\PSoC5/RTC.c **** *  Current value of the day of month.
1132:.\Generated_Source\PSoC5/RTC.c **** *  returned.
1133:.\Generated_Source\PSoC5/RTC.c **** *
1134:.\Generated_Source\PSoC5/RTC.c **** * Global variables:
1135:.\Generated_Source\PSoC5/RTC.c **** *  RTC_currentTimeDate.DayOfMonth: the current day of month's
1136:.\Generated_Source\PSoC5/RTC.c **** *  value is used.
1137:.\Generated_Source\PSoC5/RTC.c **** *
1138:.\Generated_Source\PSoC5/RTC.c **** *******************************************************************************/
1139:.\Generated_Source\PSoC5/RTC.c **** uint8 RTC_ReadDayOfMonth(void) 
1140:.\Generated_Source\PSoC5/RTC.c **** {
1141:.\Generated_Source\PSoC5/RTC.c ****     /* Return current day of the month */
1142:.\Generated_Source\PSoC5/RTC.c ****     return (RTC_currentTimeDate.DayOfMonth);
1143:.\Generated_Source\PSoC5/RTC.c **** }
1144:.\Generated_Source\PSoC5/RTC.c **** 
1145:.\Generated_Source\PSoC5/RTC.c **** 
1146:.\Generated_Source\PSoC5/RTC.c **** /*******************************************************************************
1147:.\Generated_Source\PSoC5/RTC.c **** * Function Name:   RTC_ReadMonth
1148:.\Generated_Source\PSoC5/RTC.c **** ********************************************************************************
1149:.\Generated_Source\PSoC5/RTC.c **** *
1150:.\Generated_Source\PSoC5/RTC.c **** * Summary:
1151:.\Generated_Source\PSoC5/RTC.c **** *  Reads Month software register value.
1152:.\Generated_Source\PSoC5/RTC.c **** *
1153:.\Generated_Source\PSoC5/RTC.c **** * Parameters:
1154:.\Generated_Source\PSoC5/RTC.c **** *  None.
1155:.\Generated_Source\PSoC5/RTC.c **** *
1156:.\Generated_Source\PSoC5/RTC.c **** * Return:
1157:.\Generated_Source\PSoC5/RTC.c **** *  Current value of the month.
1158:.\Generated_Source\PSoC5/RTC.c **** *
1159:.\Generated_Source\PSoC5/RTC.c **** * Global variables:
1160:.\Generated_Source\PSoC5/RTC.c **** *  RTC_currentTimeDate.Month: the current month's value is used.
1161:.\Generated_Source\PSoC5/RTC.c **** *
1162:.\Generated_Source\PSoC5/RTC.c **** *******************************************************************************/
1163:.\Generated_Source\PSoC5/RTC.c **** uint8 RTC_ReadMonth(void) 
1164:.\Generated_Source\PSoC5/RTC.c **** {
1165:.\Generated_Source\PSoC5/RTC.c ****     /* Return current month */
1166:.\Generated_Source\PSoC5/RTC.c ****     return (RTC_currentTimeDate.Month);
1167:.\Generated_Source\PSoC5/RTC.c **** }
1168:.\Generated_Source\PSoC5/RTC.c **** 
1169:.\Generated_Source\PSoC5/RTC.c **** 
1170:.\Generated_Source\PSoC5/RTC.c **** /*******************************************************************************
1171:.\Generated_Source\PSoC5/RTC.c **** * Function Name:   RTC_ReadYear
1172:.\Generated_Source\PSoC5/RTC.c **** ********************************************************************************
ARM GAS  C:\Users\mark6\AppData\Local\Temp\ccQgPzp9.s 			page 22


1173:.\Generated_Source\PSoC5/RTC.c **** *
1174:.\Generated_Source\PSoC5/RTC.c **** * Summary:
1175:.\Generated_Source\PSoC5/RTC.c **** *  Reads Year software register value.
1176:.\Generated_Source\PSoC5/RTC.c **** *
1177:.\Generated_Source\PSoC5/RTC.c **** * Parameters:
1178:.\Generated_Source\PSoC5/RTC.c **** *  None.
1179:.\Generated_Source\PSoC5/RTC.c **** *
1180:.\Generated_Source\PSoC5/RTC.c **** * Return:
1181:.\Generated_Source\PSoC5/RTC.c **** *  Current value of the year.
1182:.\Generated_Source\PSoC5/RTC.c **** *
1183:.\Generated_Source\PSoC5/RTC.c **** * Global variables:
1184:.\Generated_Source\PSoC5/RTC.c **** *  RTC_currentTimeDate.Year: the current year's value is used.
1185:.\Generated_Source\PSoC5/RTC.c **** *
1186:.\Generated_Source\PSoC5/RTC.c **** *******************************************************************************/
1187:.\Generated_Source\PSoC5/RTC.c **** uint16 RTC_ReadYear(void) 
1188:.\Generated_Source\PSoC5/RTC.c **** {
1189:.\Generated_Source\PSoC5/RTC.c ****     /* Return current year */
1190:.\Generated_Source\PSoC5/RTC.c ****     return (RTC_currentTimeDate.Year);
1191:.\Generated_Source\PSoC5/RTC.c **** }
1192:.\Generated_Source\PSoC5/RTC.c **** 
1193:.\Generated_Source\PSoC5/RTC.c **** 
1194:.\Generated_Source\PSoC5/RTC.c **** /*******************************************************************************
1195:.\Generated_Source\PSoC5/RTC.c **** * Function Name:   RTC_ReadAlarmSecond
1196:.\Generated_Source\PSoC5/RTC.c **** ********************************************************************************
1197:.\Generated_Source\PSoC5/RTC.c **** *
1198:.\Generated_Source\PSoC5/RTC.c **** * Summary:
1199:.\Generated_Source\PSoC5/RTC.c **** *  Reads Alarm Sec software register value.
1200:.\Generated_Source\PSoC5/RTC.c **** *
1201:.\Generated_Source\PSoC5/RTC.c **** * Parameters:
1202:.\Generated_Source\PSoC5/RTC.c **** *  None.
1203:.\Generated_Source\PSoC5/RTC.c **** *
1204:.\Generated_Source\PSoC5/RTC.c **** * Return:
1205:.\Generated_Source\PSoC5/RTC.c **** *  Current alarm value of the seconds.
1206:.\Generated_Source\PSoC5/RTC.c **** *
1207:.\Generated_Source\PSoC5/RTC.c **** * Global variables:
1208:.\Generated_Source\PSoC5/RTC.c **** *  RTC_alarmCfgTimeDate.Sec: the current second alarm value is
1209:.\Generated_Source\PSoC5/RTC.c **** *  used.
1210:.\Generated_Source\PSoC5/RTC.c **** *
1211:.\Generated_Source\PSoC5/RTC.c **** ********************************************************************************/
1212:.\Generated_Source\PSoC5/RTC.c **** uint8 RTC_ReadAlarmSecond(void) 
1213:.\Generated_Source\PSoC5/RTC.c **** {
1214:.\Generated_Source\PSoC5/RTC.c ****     /* Return current alarm second */
1215:.\Generated_Source\PSoC5/RTC.c ****     return (RTC_alarmCfgTimeDate.Sec);
1216:.\Generated_Source\PSoC5/RTC.c **** }
1217:.\Generated_Source\PSoC5/RTC.c **** 
1218:.\Generated_Source\PSoC5/RTC.c **** 
1219:.\Generated_Source\PSoC5/RTC.c **** /*******************************************************************************
1220:.\Generated_Source\PSoC5/RTC.c **** * Function Name:   RTC_ReadAlarmMinute
1221:.\Generated_Source\PSoC5/RTC.c **** ********************************************************************************
1222:.\Generated_Source\PSoC5/RTC.c **** *
1223:.\Generated_Source\PSoC5/RTC.c **** * Summary:
1224:.\Generated_Source\PSoC5/RTC.c **** *  Reads Alarm Min software register value.
1225:.\Generated_Source\PSoC5/RTC.c **** *
1226:.\Generated_Source\PSoC5/RTC.c **** * Parameters:
1227:.\Generated_Source\PSoC5/RTC.c **** *  None.
1228:.\Generated_Source\PSoC5/RTC.c **** *
1229:.\Generated_Source\PSoC5/RTC.c **** * Return:
ARM GAS  C:\Users\mark6\AppData\Local\Temp\ccQgPzp9.s 			page 23


1230:.\Generated_Source\PSoC5/RTC.c **** *  Current alarm value of the minutes.
1231:.\Generated_Source\PSoC5/RTC.c **** *
1232:.\Generated_Source\PSoC5/RTC.c **** * Global variables:
1233:.\Generated_Source\PSoC5/RTC.c **** *  RTC_alarmCfgTimeDate.Min: the current minute alarm is used.
1234:.\Generated_Source\PSoC5/RTC.c **** *
1235:.\Generated_Source\PSoC5/RTC.c **** *******************************************************************************/
1236:.\Generated_Source\PSoC5/RTC.c **** uint8 RTC_ReadAlarmMinute(void) 
1237:.\Generated_Source\PSoC5/RTC.c **** {
1238:.\Generated_Source\PSoC5/RTC.c ****     /* Return current alarm minute */
1239:.\Generated_Source\PSoC5/RTC.c ****     return (RTC_alarmCfgTimeDate.Min);
1240:.\Generated_Source\PSoC5/RTC.c **** }
1241:.\Generated_Source\PSoC5/RTC.c **** 
1242:.\Generated_Source\PSoC5/RTC.c **** 
1243:.\Generated_Source\PSoC5/RTC.c **** /*******************************************************************************
1244:.\Generated_Source\PSoC5/RTC.c **** * Function Name:   RTC_ReadAlarmHour
1245:.\Generated_Source\PSoC5/RTC.c **** ********************************************************************************
1246:.\Generated_Source\PSoC5/RTC.c **** *
1247:.\Generated_Source\PSoC5/RTC.c **** * Summary:
1248:.\Generated_Source\PSoC5/RTC.c **** *  Reads Alarm Hour software register value.
1249:.\Generated_Source\PSoC5/RTC.c **** *
1250:.\Generated_Source\PSoC5/RTC.c **** * Parameters:
1251:.\Generated_Source\PSoC5/RTC.c **** *  None.
1252:.\Generated_Source\PSoC5/RTC.c **** *
1253:.\Generated_Source\PSoC5/RTC.c **** * Return:
1254:.\Generated_Source\PSoC5/RTC.c **** *  Current alarm value of the hours.
1255:.\Generated_Source\PSoC5/RTC.c **** *
1256:.\Generated_Source\PSoC5/RTC.c **** * Global variables:
1257:.\Generated_Source\PSoC5/RTC.c **** *  RTC_alarmCfgTimeDate.Hour: the current hour alarm value is used.
1258:.\Generated_Source\PSoC5/RTC.c **** *
1259:.\Generated_Source\PSoC5/RTC.c **** *******************************************************************************/
1260:.\Generated_Source\PSoC5/RTC.c **** uint8 RTC_ReadAlarmHour(void) 
1261:.\Generated_Source\PSoC5/RTC.c **** {
1262:.\Generated_Source\PSoC5/RTC.c ****     /* Return current alarm hour */
1263:.\Generated_Source\PSoC5/RTC.c ****     return (RTC_alarmCfgTimeDate.Hour);
1264:.\Generated_Source\PSoC5/RTC.c **** }
1265:.\Generated_Source\PSoC5/RTC.c **** 
1266:.\Generated_Source\PSoC5/RTC.c **** 
1267:.\Generated_Source\PSoC5/RTC.c **** /*******************************************************************************
1268:.\Generated_Source\PSoC5/RTC.c **** * Function Name:   RTC_ReadAlarmDayOfMonth
1269:.\Generated_Source\PSoC5/RTC.c **** ********************************************************************************
1270:.\Generated_Source\PSoC5/RTC.c **** *
1271:.\Generated_Source\PSoC5/RTC.c **** * Summary:
1272:.\Generated_Source\PSoC5/RTC.c **** *  Reads Alarm DayOfMonth software register value.
1273:.\Generated_Source\PSoC5/RTC.c **** *
1274:.\Generated_Source\PSoC5/RTC.c **** * Parameters:
1275:.\Generated_Source\PSoC5/RTC.c **** *  None.
1276:.\Generated_Source\PSoC5/RTC.c **** *
1277:.\Generated_Source\PSoC5/RTC.c **** * Return:
1278:.\Generated_Source\PSoC5/RTC.c **** *  Current alarm value of the day of month.
1279:.\Generated_Source\PSoC5/RTC.c **** *
1280:.\Generated_Source\PSoC5/RTC.c **** * Global variables:
1281:.\Generated_Source\PSoC5/RTC.c **** *  RTC_alarmCfgTimeDate.DayOfMonth: the current day of month alarm
1282:.\Generated_Source\PSoC5/RTC.c **** *  value is used.
1283:.\Generated_Source\PSoC5/RTC.c **** *
1284:.\Generated_Source\PSoC5/RTC.c **** *******************************************************************************/
1285:.\Generated_Source\PSoC5/RTC.c **** uint8 RTC_ReadAlarmDayOfMonth(void) 
1286:.\Generated_Source\PSoC5/RTC.c **** {
ARM GAS  C:\Users\mark6\AppData\Local\Temp\ccQgPzp9.s 			page 24


1287:.\Generated_Source\PSoC5/RTC.c ****     /* Return current alarm day of month */
1288:.\Generated_Source\PSoC5/RTC.c ****     return (RTC_alarmCfgTimeDate.DayOfMonth);
1289:.\Generated_Source\PSoC5/RTC.c **** }
1290:.\Generated_Source\PSoC5/RTC.c **** 
1291:.\Generated_Source\PSoC5/RTC.c **** 
1292:.\Generated_Source\PSoC5/RTC.c **** /*******************************************************************************
1293:.\Generated_Source\PSoC5/RTC.c **** * Function Name:   RTC_ReadAlarmMonth
1294:.\Generated_Source\PSoC5/RTC.c **** ********************************************************************************
1295:.\Generated_Source\PSoC5/RTC.c **** *
1296:.\Generated_Source\PSoC5/RTC.c **** * Summary:
1297:.\Generated_Source\PSoC5/RTC.c **** *  Reads Alarm Month software register value.
1298:.\Generated_Source\PSoC5/RTC.c **** *
1299:.\Generated_Source\PSoC5/RTC.c **** * Parameters:
1300:.\Generated_Source\PSoC5/RTC.c **** *  None.
1301:.\Generated_Source\PSoC5/RTC.c **** *
1302:.\Generated_Source\PSoC5/RTC.c **** * Return:
1303:.\Generated_Source\PSoC5/RTC.c **** *  Current alarm value of the month.
1304:.\Generated_Source\PSoC5/RTC.c **** *
1305:.\Generated_Source\PSoC5/RTC.c **** * Global variables:
1306:.\Generated_Source\PSoC5/RTC.c **** *  RTC_alarmCfgTimeDate.Month: the current month alarm value is
1307:.\Generated_Source\PSoC5/RTC.c **** *  used.
1308:.\Generated_Source\PSoC5/RTC.c **** *
1309:.\Generated_Source\PSoC5/RTC.c **** *******************************************************************************/
1310:.\Generated_Source\PSoC5/RTC.c **** uint8 RTC_ReadAlarmMonth(void) 
1311:.\Generated_Source\PSoC5/RTC.c **** {
1312:.\Generated_Source\PSoC5/RTC.c ****     /* Return current alarm month */
1313:.\Generated_Source\PSoC5/RTC.c ****     return (RTC_alarmCfgTimeDate.Month);
1314:.\Generated_Source\PSoC5/RTC.c **** }
1315:.\Generated_Source\PSoC5/RTC.c **** 
1316:.\Generated_Source\PSoC5/RTC.c **** 
1317:.\Generated_Source\PSoC5/RTC.c **** /*******************************************************************************
1318:.\Generated_Source\PSoC5/RTC.c **** * Function Name:   RTC_ReadAlarmYear
1319:.\Generated_Source\PSoC5/RTC.c **** ********************************************************************************
1320:.\Generated_Source\PSoC5/RTC.c **** *
1321:.\Generated_Source\PSoC5/RTC.c **** * Summary:
1322:.\Generated_Source\PSoC5/RTC.c **** *  Reads Alarm Year software register value.
1323:.\Generated_Source\PSoC5/RTC.c **** *
1324:.\Generated_Source\PSoC5/RTC.c **** * Parameters:
1325:.\Generated_Source\PSoC5/RTC.c **** *  None.
1326:.\Generated_Source\PSoC5/RTC.c **** *
1327:.\Generated_Source\PSoC5/RTC.c **** * Return:
1328:.\Generated_Source\PSoC5/RTC.c **** *  Current alarm value of the years.
1329:.\Generated_Source\PSoC5/RTC.c **** *
1330:.\Generated_Source\PSoC5/RTC.c **** * Global variables:
1331:.\Generated_Source\PSoC5/RTC.c **** *  RTC_alarmCfgTimeDate.Year: the current year alarm value is used.
1332:.\Generated_Source\PSoC5/RTC.c **** *
1333:.\Generated_Source\PSoC5/RTC.c **** *******************************************************************************/
1334:.\Generated_Source\PSoC5/RTC.c **** uint16 RTC_ReadAlarmYear(void) 
1335:.\Generated_Source\PSoC5/RTC.c **** {
1336:.\Generated_Source\PSoC5/RTC.c ****     /* Return current alarm year */
1337:.\Generated_Source\PSoC5/RTC.c ****     return (RTC_alarmCfgTimeDate.Year);
1338:.\Generated_Source\PSoC5/RTC.c **** }
1339:.\Generated_Source\PSoC5/RTC.c **** 
1340:.\Generated_Source\PSoC5/RTC.c **** 
1341:.\Generated_Source\PSoC5/RTC.c **** /*******************************************************************************
1342:.\Generated_Source\PSoC5/RTC.c **** * Function Name:   RTC_ReadAlarmDayOfWeek
1343:.\Generated_Source\PSoC5/RTC.c **** ********************************************************************************
ARM GAS  C:\Users\mark6\AppData\Local\Temp\ccQgPzp9.s 			page 25


1344:.\Generated_Source\PSoC5/RTC.c **** *
1345:.\Generated_Source\PSoC5/RTC.c **** * Summary:
1346:.\Generated_Source\PSoC5/RTC.c **** *  Reads Alarm DayOfWeek software register value.
1347:.\Generated_Source\PSoC5/RTC.c **** *
1348:.\Generated_Source\PSoC5/RTC.c **** * Parameters:
1349:.\Generated_Source\PSoC5/RTC.c **** *  None.
1350:.\Generated_Source\PSoC5/RTC.c **** *
1351:.\Generated_Source\PSoC5/RTC.c **** * Return:
1352:.\Generated_Source\PSoC5/RTC.c **** *  Current alarm value of the day of week.
1353:.\Generated_Source\PSoC5/RTC.c **** *
1354:.\Generated_Source\PSoC5/RTC.c **** * Global variables:
1355:.\Generated_Source\PSoC5/RTC.c **** *  RTC_alarmCfgTimeDate.DayOfWeek: the current day of week alarm
1356:.\Generated_Source\PSoC5/RTC.c **** *  value is used.
1357:.\Generated_Source\PSoC5/RTC.c **** *
1358:.\Generated_Source\PSoC5/RTC.c **** *******************************************************************************/
1359:.\Generated_Source\PSoC5/RTC.c **** uint8 RTC_ReadAlarmDayOfWeek(void) 
1360:.\Generated_Source\PSoC5/RTC.c **** {
1361:.\Generated_Source\PSoC5/RTC.c ****     /* Return current alarm day of the week */
1362:.\Generated_Source\PSoC5/RTC.c ****     return (RTC_alarmCfgTimeDate.DayOfWeek);
1363:.\Generated_Source\PSoC5/RTC.c **** }
1364:.\Generated_Source\PSoC5/RTC.c **** 
1365:.\Generated_Source\PSoC5/RTC.c **** 
1366:.\Generated_Source\PSoC5/RTC.c **** /*******************************************************************************
1367:.\Generated_Source\PSoC5/RTC.c **** * Function Name:   RTC_ReadAlarmDayOfYear
1368:.\Generated_Source\PSoC5/RTC.c **** ********************************************************************************
1369:.\Generated_Source\PSoC5/RTC.c **** *
1370:.\Generated_Source\PSoC5/RTC.c **** * Summary:
1371:.\Generated_Source\PSoC5/RTC.c **** *  Reads Alarm DayOfYear software register value.
1372:.\Generated_Source\PSoC5/RTC.c **** *
1373:.\Generated_Source\PSoC5/RTC.c **** * Parameters:
1374:.\Generated_Source\PSoC5/RTC.c **** *  None.
1375:.\Generated_Source\PSoC5/RTC.c **** *
1376:.\Generated_Source\PSoC5/RTC.c **** * Return:
1377:.\Generated_Source\PSoC5/RTC.c **** *  Current alarm value of the day of year.
1378:.\Generated_Source\PSoC5/RTC.c **** *
1379:.\Generated_Source\PSoC5/RTC.c **** * Global variables:
1380:.\Generated_Source\PSoC5/RTC.c **** *  RTC_alarmCfgTimeDate.DayOfYear: the current day of year alarm
1381:.\Generated_Source\PSoC5/RTC.c **** *  value is used.
1382:.\Generated_Source\PSoC5/RTC.c **** *
1383:.\Generated_Source\PSoC5/RTC.c **** *******************************************************************************/
1384:.\Generated_Source\PSoC5/RTC.c **** uint16 RTC_ReadAlarmDayOfYear(void) 
1385:.\Generated_Source\PSoC5/RTC.c **** {
1386:.\Generated_Source\PSoC5/RTC.c ****     /* Return current alarm day of the year */
1387:.\Generated_Source\PSoC5/RTC.c ****     return  (RTC_alarmCfgTimeDate.DayOfYear);
1388:.\Generated_Source\PSoC5/RTC.c **** }
1389:.\Generated_Source\PSoC5/RTC.c **** 
1390:.\Generated_Source\PSoC5/RTC.c **** 
1391:.\Generated_Source\PSoC5/RTC.c **** /*******************************************************************************
1392:.\Generated_Source\PSoC5/RTC.c **** * Function Name:   RTC_WriteAlarmMask
1393:.\Generated_Source\PSoC5/RTC.c **** ********************************************************************************
1394:.\Generated_Source\PSoC5/RTC.c **** *
1395:.\Generated_Source\PSoC5/RTC.c **** * Summary:
1396:.\Generated_Source\PSoC5/RTC.c **** *  Writes the Alarm Mask software register with 1 bit per time/date entry. Alarm
1397:.\Generated_Source\PSoC5/RTC.c **** *  true when all masked time/date values match Alarm values.
1398:.\Generated_Source\PSoC5/RTC.c **** *
1399:.\Generated_Source\PSoC5/RTC.c **** * Parameters:
1400:.\Generated_Source\PSoC5/RTC.c **** *  mask: Alarm Mask software register value.
ARM GAS  C:\Users\mark6\AppData\Local\Temp\ccQgPzp9.s 			page 26


1401:.\Generated_Source\PSoC5/RTC.c **** *
1402:.\Generated_Source\PSoC5/RTC.c **** * Return:
1403:.\Generated_Source\PSoC5/RTC.c **** *  None.
1404:.\Generated_Source\PSoC5/RTC.c **** *
1405:.\Generated_Source\PSoC5/RTC.c **** * Global variables:
1406:.\Generated_Source\PSoC5/RTC.c **** *  RTC_alarmCfgMask: global variable which stores masks for
1407:.\Generated_Source\PSoC5/RTC.c **** *  time/date alarm configuration is modified.
1408:.\Generated_Source\PSoC5/RTC.c **** *
1409:.\Generated_Source\PSoC5/RTC.c **** * Reentrant:
1410:.\Generated_Source\PSoC5/RTC.c **** *  No.
1411:.\Generated_Source\PSoC5/RTC.c **** *
1412:.\Generated_Source\PSoC5/RTC.c **** *******************************************************************************/
1413:.\Generated_Source\PSoC5/RTC.c **** void RTC_WriteAlarmMask(uint8 mask) 
1414:.\Generated_Source\PSoC5/RTC.c **** {
1415:.\Generated_Source\PSoC5/RTC.c ****     RTC_alarmCfgMask = mask;
1416:.\Generated_Source\PSoC5/RTC.c **** }
1417:.\Generated_Source\PSoC5/RTC.c **** 
1418:.\Generated_Source\PSoC5/RTC.c **** 
1419:.\Generated_Source\PSoC5/RTC.c **** /*******************************************************************************
1420:.\Generated_Source\PSoC5/RTC.c **** * Function Name:   RTC_WriteIntervalMask
1421:.\Generated_Source\PSoC5/RTC.c **** ********************************************************************************
1422:.\Generated_Source\PSoC5/RTC.c **** *
1423:.\Generated_Source\PSoC5/RTC.c **** * Summary:
1424:.\Generated_Source\PSoC5/RTC.c **** *  Writes the Interval Mask software register with 1 bit per time/date entry.
1425:.\Generated_Source\PSoC5/RTC.c **** *  Interrupt true when any masked time/date overflow occur.
1426:.\Generated_Source\PSoC5/RTC.c **** *
1427:.\Generated_Source\PSoC5/RTC.c **** * Parameters:
1428:.\Generated_Source\PSoC5/RTC.c **** *  mask: Alarm Mask software register value.
1429:.\Generated_Source\PSoC5/RTC.c **** *
1430:.\Generated_Source\PSoC5/RTC.c **** * Return:
1431:.\Generated_Source\PSoC5/RTC.c **** *  None.
1432:.\Generated_Source\PSoC5/RTC.c **** *
1433:.\Generated_Source\PSoC5/RTC.c **** * Global variables:
1434:.\Generated_Source\PSoC5/RTC.c **** *  RTC_intervalCfgMask: this global variable is modified - the new
1435:.\Generated_Source\PSoC5/RTC.c **** *  value of interval mask is stored here.
1436:.\Generated_Source\PSoC5/RTC.c **** *
1437:.\Generated_Source\PSoC5/RTC.c **** * Reentrant:
1438:.\Generated_Source\PSoC5/RTC.c **** *  No.
1439:.\Generated_Source\PSoC5/RTC.c **** *
1440:.\Generated_Source\PSoC5/RTC.c **** *******************************************************************************/
1441:.\Generated_Source\PSoC5/RTC.c **** void RTC_WriteIntervalMask(uint8 mask) 
1442:.\Generated_Source\PSoC5/RTC.c **** {
1443:.\Generated_Source\PSoC5/RTC.c ****     RTC_intervalCfgMask = mask;
1444:.\Generated_Source\PSoC5/RTC.c **** }
1445:.\Generated_Source\PSoC5/RTC.c **** 
1446:.\Generated_Source\PSoC5/RTC.c **** 
1447:.\Generated_Source\PSoC5/RTC.c **** /*******************************************************************************
1448:.\Generated_Source\PSoC5/RTC.c **** * Function Name:   RTC_ReadStatus
1449:.\Generated_Source\PSoC5/RTC.c **** ********************************************************************************
1450:.\Generated_Source\PSoC5/RTC.c **** *
1451:.\Generated_Source\PSoC5/RTC.c **** * Summary:
1452:.\Generated_Source\PSoC5/RTC.c **** *  Reads the Status software register which has flags for DST
1453:.\Generated_Source\PSoC5/RTC.c **** *  (DST), Leap Year (LY) and AM/PM (AM_PM), Alarm active (AA).
1454:.\Generated_Source\PSoC5/RTC.c **** *
1455:.\Generated_Source\PSoC5/RTC.c **** * Parameters:
1456:.\Generated_Source\PSoC5/RTC.c **** *  None.
1457:.\Generated_Source\PSoC5/RTC.c **** *
ARM GAS  C:\Users\mark6\AppData\Local\Temp\ccQgPzp9.s 			page 27


1458:.\Generated_Source\PSoC5/RTC.c **** * Return:
1459:.\Generated_Source\PSoC5/RTC.c **** *  None.
1460:.\Generated_Source\PSoC5/RTC.c **** *
1461:.\Generated_Source\PSoC5/RTC.c **** * Global variables:
1462:.\Generated_Source\PSoC5/RTC.c **** *  RTC_statusDateTime: global variable is modified - active alarm
1463:.\Generated_Source\PSoC5/RTC.c **** *  status bit is cleared.
1464:.\Generated_Source\PSoC5/RTC.c **** *
1465:.\Generated_Source\PSoC5/RTC.c **** * Reentrant:
1466:.\Generated_Source\PSoC5/RTC.c **** *  No.
1467:.\Generated_Source\PSoC5/RTC.c **** *
1468:.\Generated_Source\PSoC5/RTC.c **** * Side Effects:
1469:.\Generated_Source\PSoC5/RTC.c **** *  Alarm active(AA) flag clear after read.
1470:.\Generated_Source\PSoC5/RTC.c **** *
1471:.\Generated_Source\PSoC5/RTC.c **** *******************************************************************************/
1472:.\Generated_Source\PSoC5/RTC.c **** uint8 RTC_ReadStatus(void) 
1473:.\Generated_Source\PSoC5/RTC.c **** {
1474:.\Generated_Source\PSoC5/RTC.c ****     uint8 status;
1475:.\Generated_Source\PSoC5/RTC.c **** 
1476:.\Generated_Source\PSoC5/RTC.c ****     /* Save status */
1477:.\Generated_Source\PSoC5/RTC.c ****     status = (uint8)RTC_statusDateTime;
1478:.\Generated_Source\PSoC5/RTC.c **** 
1479:.\Generated_Source\PSoC5/RTC.c ****     /* Clean AA flag after read of Status Register */
1480:.\Generated_Source\PSoC5/RTC.c ****     RTC_statusDateTime &= (uint8)(~RTC_STATUS_AA);
1481:.\Generated_Source\PSoC5/RTC.c **** 
1482:.\Generated_Source\PSoC5/RTC.c ****     return (status);
1483:.\Generated_Source\PSoC5/RTC.c **** }
1484:.\Generated_Source\PSoC5/RTC.c **** 
1485:.\Generated_Source\PSoC5/RTC.c **** 
1486:.\Generated_Source\PSoC5/RTC.c **** /*******************************************************************************
1487:.\Generated_Source\PSoC5/RTC.c **** * Function Name:   RTC_DayOfWeek
1488:.\Generated_Source\PSoC5/RTC.c **** ********************************************************************************
1489:.\Generated_Source\PSoC5/RTC.c **** *
1490:.\Generated_Source\PSoC5/RTC.c **** * Summary:
1491:.\Generated_Source\PSoC5/RTC.c **** *  Calculates Day Of Week value use Zeller's congruence.
1492:.\Generated_Source\PSoC5/RTC.c **** *
1493:.\Generated_Source\PSoC5/RTC.c **** * Parameters:
1494:.\Generated_Source\PSoC5/RTC.c **** *  dayOfMonth: Day Of Month value.
1495:.\Generated_Source\PSoC5/RTC.c **** *  month: Month value.
1496:.\Generated_Source\PSoC5/RTC.c **** *  year: Year value.
1497:.\Generated_Source\PSoC5/RTC.c **** *
1498:.\Generated_Source\PSoC5/RTC.c **** * Return:
1499:.\Generated_Source\PSoC5/RTC.c **** *  Day Of Week value.
1500:.\Generated_Source\PSoC5/RTC.c **** *
1501:.\Generated_Source\PSoC5/RTC.c **** *******************************************************************************/
1502:.\Generated_Source\PSoC5/RTC.c **** static uint8 RTC_DayOfWeek(uint8 dayOfMonth, uint8 month, uint16 year)
1503:.\Generated_Source\PSoC5/RTC.c **** 
1504:.\Generated_Source\PSoC5/RTC.c **** {
  26              		.loc 1 1504 0
  27              		.cfi_startproc
  28              		@ args = 0, pretend = 0, frame = 0
  29              		@ frame_needed = 0, uses_anonymous_args = 0
  30              		@ link register save eliminated.
  31              	.LVL0:
  32 0000 10B4     		push	{r4}
  33              		.cfi_def_cfa_offset 4
  34              		.cfi_offset 4, -4
1505:.\Generated_Source\PSoC5/RTC.c ****     /* Calculated sequence ((31 * month) / 12) mod 7 from the Zeller's congruence */
ARM GAS  C:\Users\mark6\AppData\Local\Temp\ccQgPzp9.s 			page 28


1506:.\Generated_Source\PSoC5/RTC.c ****     static const uint8 CYCODE RTC_monthTemplate[RTC_MONTHS_IN_YEAR] =
1507:.\Generated_Source\PSoC5/RTC.c ****                                                             {0u, 3u, 2u, 5u, 0u, 3u, 5u, 1u, 4u, 6u
1508:.\Generated_Source\PSoC5/RTC.c **** 
1509:.\Generated_Source\PSoC5/RTC.c ****     /* It is simpler to handle the modified year, which is year - 1 during
1510:.\Generated_Source\PSoC5/RTC.c ****     * January and February
1511:.\Generated_Source\PSoC5/RTC.c ****     */
1512:.\Generated_Source\PSoC5/RTC.c ****     if(month < RTC_MARCH)
  35              		.loc 1 1512 0
  36 0002 0229     		cmp	r1, #2
  37 0004 01D8     		bhi	.L2
1513:.\Generated_Source\PSoC5/RTC.c ****     {
1514:.\Generated_Source\PSoC5/RTC.c ****         year = year - 1u;
  38              		.loc 1 1514 0
  39 0006 013A     		subs	r2, r2, #1
  40              	.LVL1:
  41 0008 92B2     		uxth	r2, r2
  42              	.LVL2:
  43              	.L2:
1515:.\Generated_Source\PSoC5/RTC.c ****     }
1516:.\Generated_Source\PSoC5/RTC.c **** 
1517:.\Generated_Source\PSoC5/RTC.c ****     /* For Gregorian calendar: d = (day + y + y/4 - y/100 + y/400 + (31*m)/12) mod 7 */
1518:.\Generated_Source\PSoC5/RTC.c ****     return ((uint8)(((year + (((year/4u) - (year/100u)) + (year/400u))) +
  44              		.loc 1 1518 0
  45 000a 0F4B     		ldr	r3, .L4
  46 000c A3FB0243 		umull	r4, r3, r3, r2
  47 0010 C3F34F14 		ubfx	r4, r3, #5, #16
  48 0014 C4EB9204 		rsb	r4, r4, r2, lsr #2
  49 0018 C3F3CF13 		ubfx	r3, r3, #7, #16
  50 001c 2344     		add	r3, r3, r4
  51 001e 1A44     		add	r2, r2, r3
  52              	.LVL3:
1519:.\Generated_Source\PSoC5/RTC.c ****     (((uint16)RTC_monthTemplate[month - 1u]) + ((uint16) dayOfMonth))) % RTC_DAYS_IN_WEEK));
  53              		.loc 1 1519 0
  54 0020 0139     		subs	r1, r1, #1
  55              	.LVL4:
  56 0022 0A4B     		ldr	r3, .L4+4
  57 0024 5B5C     		ldrb	r3, [r3, r1]	@ zero_extendqisi2
  58 0026 1844     		add	r0, r0, r3
  59              	.LVL5:
1518:.\Generated_Source\PSoC5/RTC.c ****     (((uint16)RTC_monthTemplate[month - 1u]) + ((uint16) dayOfMonth))) % RTC_DAYS_IN_WEEK));
  60              		.loc 1 1518 0
  61 0028 0244     		add	r2, r2, r0
  62              		.loc 1 1519 0
  63 002a 0948     		ldr	r0, .L4+8
  64 002c A2FB0001 		umull	r0, r1, r2, r0
  65 0030 501A     		subs	r0, r2, r1
  66 0032 01EB5000 		add	r0, r1, r0, lsr #1
  67 0036 8008     		lsrs	r0, r0, #2
  68 0038 C0EBC000 		rsb	r0, r0, r0, lsl #3
  69 003c 101A     		subs	r0, r2, r0
1520:.\Generated_Source\PSoC5/RTC.c **** }
  70              		.loc 1 1520 0
  71 003e C0B2     		uxtb	r0, r0
  72 0040 5DF8044B 		ldr	r4, [sp], #4
  73              		.cfi_restore 4
  74              		.cfi_def_cfa_offset 0
  75 0044 7047     		bx	lr
ARM GAS  C:\Users\mark6\AppData\Local\Temp\ccQgPzp9.s 			page 29


  76              	.L5:
  77 0046 00BF     		.align	2
  78              	.L4:
  79 0048 1F85EB51 		.word	1374389535
  80 004c 00000000 		.word	.LANCHOR0
  81 0050 25499224 		.word	613566757
  82              		.cfi_endproc
  83              	.LFE40:
  84              		.size	RTC_DayOfWeek, .-RTC_DayOfWeek
  85              		.section	.text.RTC_DSTDateConversion,"ax",%progbits
  86              		.align	2
  87              		.thumb
  88              		.thumb_func
  89              		.type	RTC_DSTDateConversion, %function
  90              	RTC_DSTDateConversion:
  91              	.LFB4:
 256:.\Generated_Source\PSoC5/RTC.c ****         uint8 week = 1u;
  92              		.loc 1 256 0
  93              		.cfi_startproc
  94              		@ args = 0, pretend = 0, frame = 0
  95              		@ frame_needed = 0, uses_anonymous_args = 0
  96 0000 08B5     		push	{r3, lr}
  97              		.cfi_def_cfa_offset 8
  98              		.cfi_offset 3, -8
  99              		.cfi_offset 14, -4
 100              	.LVL6:
 262:.\Generated_Source\PSoC5/RTC.c ****                                                     RTC_currentTimeDate.Year) + 1u;
 101              		.loc 1 262 0
 102 0002 264B     		ldr	r3, .L18
 103 0004 1979     		ldrb	r1, [r3, #4]	@ zero_extendqisi2
 104 0006 5A8A     		ldrh	r2, [r3, #18]
 105 0008 0120     		movs	r0, #1
 106 000a 92B2     		uxth	r2, r2
 107 000c FFF7FEFF 		bl	RTC_DayOfWeek
 108              	.LVL7:
 109 0010 0130     		adds	r0, r0, #1
 110 0012 C0B2     		uxtb	r0, r0
 111              	.LVL8:
 258:.\Generated_Source\PSoC5/RTC.c ****         uint8 dayOfWeek;
 112              		.loc 1 258 0
 113 0014 0123     		movs	r3, #1
 257:.\Generated_Source\PSoC5/RTC.c ****         uint8 day = 1u;
 114              		.loc 1 257 0
 115 0016 1A46     		mov	r2, r3
 290:.\Generated_Source\PSoC5/RTC.c ****         {
 116              		.loc 1 290 0
 117 0018 08E0     		b	.L7
 118              	.LVL9:
 119              	.L9:
 292:.\Generated_Source\PSoC5/RTC.c ****             dayOfWeek++;
 120              		.loc 1 292 0
 121 001a 0133     		adds	r3, r3, #1
 122              	.LVL10:
 123 001c DBB2     		uxtb	r3, r3
 124              	.LVL11:
 293:.\Generated_Source\PSoC5/RTC.c ****             if(dayOfWeek > RTC_WEEK_ELAPSED)
 125              		.loc 1 293 0
ARM GAS  C:\Users\mark6\AppData\Local\Temp\ccQgPzp9.s 			page 30


 126 001e 0130     		adds	r0, r0, #1
 127              	.LVL12:
 128 0020 C0B2     		uxtb	r0, r0
 129              	.LVL13:
 294:.\Generated_Source\PSoC5/RTC.c ****             {
 130              		.loc 1 294 0
 131 0022 0728     		cmp	r0, #7
 132 0024 02D9     		bls	.L7
 133              	.LVL14:
 297:.\Generated_Source\PSoC5/RTC.c ****             }
 134              		.loc 1 297 0
 135 0026 0132     		adds	r2, r2, #1
 136              	.LVL15:
 137 0028 D2B2     		uxtb	r2, r2
 138              	.LVL16:
 296:.\Generated_Source\PSoC5/RTC.c ****                 week++;
 139              		.loc 1 296 0
 140 002a 0120     		movs	r0, #1
 141              	.LVL17:
 142              	.L7:
 290:.\Generated_Source\PSoC5/RTC.c ****         {
 143              		.loc 1 290 0
 144 002c 1B49     		ldr	r1, .L18
 145 002e 4978     		ldrb	r1, [r1, #1]	@ zero_extendqisi2
 146 0030 C9B2     		uxtb	r1, r1
 147 0032 8142     		cmp	r1, r0
 148 0034 F1D1     		bne	.L9
 149 0036 03E0     		b	.L10
 150              	.L11:
 303:.\Generated_Source\PSoC5/RTC.c ****             week++;
 151              		.loc 1 303 0
 152 0038 0733     		adds	r3, r3, #7
 153              	.LVL18:
 154 003a DBB2     		uxtb	r3, r3
 155              	.LVL19:
 304:.\Generated_Source\PSoC5/RTC.c ****         }
 156              		.loc 1 304 0
 157 003c 0132     		adds	r2, r2, #1
 158              	.LVL20:
 159 003e D2B2     		uxtb	r2, r2
 160              	.LVL21:
 161              	.L10:
 301:.\Generated_Source\PSoC5/RTC.c ****         {
 162              		.loc 1 301 0
 163 0040 1649     		ldr	r1, .L18
 164 0042 8978     		ldrb	r1, [r1, #2]	@ zero_extendqisi2
 165 0044 C9B2     		uxtb	r1, r1
 166 0046 9142     		cmp	r1, r2
 167 0048 F6D1     		bne	.L11
 306:.\Generated_Source\PSoC5/RTC.c **** 
 168              		.loc 1 306 0
 169 004a 144A     		ldr	r2, .L18
 170              	.LVL22:
 171 004c D370     		strb	r3, [r2, #3]
 172              	.LVL23:
 312:.\Generated_Source\PSoC5/RTC.c ****                                                     RTC_currentTimeDate.Year) + 1u;
 173              		.loc 1 312 0
ARM GAS  C:\Users\mark6\AppData\Local\Temp\ccQgPzp9.s 			page 31


 174 004e 117E     		ldrb	r1, [r2, #24]	@ zero_extendqisi2
 175 0050 528A     		ldrh	r2, [r2, #18]
 176 0052 0120     		movs	r0, #1
 177              	.LVL24:
 178 0054 92B2     		uxth	r2, r2
 179 0056 FFF7FEFF 		bl	RTC_DayOfWeek
 180              	.LVL25:
 181 005a 0130     		adds	r0, r0, #1
 182 005c C0B2     		uxtb	r0, r0
 183              	.LVL26:
 310:.\Generated_Source\PSoC5/RTC.c **** 
 184              		.loc 1 310 0
 185 005e 0123     		movs	r3, #1
 309:.\Generated_Source\PSoC5/RTC.c ****         day = 1u;
 186              		.loc 1 309 0
 187 0060 1A46     		mov	r2, r3
 338:.\Generated_Source\PSoC5/RTC.c ****         {
 188              		.loc 1 338 0
 189 0062 08E0     		b	.L12
 190              	.LVL27:
 191              	.L14:
 340:.\Generated_Source\PSoC5/RTC.c ****             dayOfWeek++;
 192              		.loc 1 340 0
 193 0064 0133     		adds	r3, r3, #1
 194              	.LVL28:
 195 0066 DBB2     		uxtb	r3, r3
 196              	.LVL29:
 341:.\Generated_Source\PSoC5/RTC.c ****             if(dayOfWeek > RTC_WEEK_ELAPSED)
 197              		.loc 1 341 0
 198 0068 0130     		adds	r0, r0, #1
 199              	.LVL30:
 200 006a C0B2     		uxtb	r0, r0
 201              	.LVL31:
 342:.\Generated_Source\PSoC5/RTC.c ****             {
 202              		.loc 1 342 0
 203 006c 0728     		cmp	r0, #7
 204 006e 02D9     		bls	.L12
 205              	.LVL32:
 345:.\Generated_Source\PSoC5/RTC.c ****             }
 206              		.loc 1 345 0
 207 0070 0132     		adds	r2, r2, #1
 208              	.LVL33:
 209 0072 D2B2     		uxtb	r2, r2
 210              	.LVL34:
 344:.\Generated_Source\PSoC5/RTC.c ****                 week++;
 211              		.loc 1 344 0
 212 0074 0120     		movs	r0, #1
 213              	.LVL35:
 214              	.L12:
 338:.\Generated_Source\PSoC5/RTC.c ****         {
 215              		.loc 1 338 0
 216 0076 0949     		ldr	r1, .L18
 217 0078 497D     		ldrb	r1, [r1, #21]	@ zero_extendqisi2
 218 007a C9B2     		uxtb	r1, r1
 219 007c 8142     		cmp	r1, r0
 220 007e F1D1     		bne	.L14
 221 0080 03E0     		b	.L15
ARM GAS  C:\Users\mark6\AppData\Local\Temp\ccQgPzp9.s 			page 32


 222              	.L16:
 351:.\Generated_Source\PSoC5/RTC.c ****             week++;
 223              		.loc 1 351 0
 224 0082 0733     		adds	r3, r3, #7
 225              	.LVL36:
 226 0084 DBB2     		uxtb	r3, r3
 227              	.LVL37:
 352:.\Generated_Source\PSoC5/RTC.c ****         }
 228              		.loc 1 352 0
 229 0086 0132     		adds	r2, r2, #1
 230              	.LVL38:
 231 0088 D2B2     		uxtb	r2, r2
 232              	.LVL39:
 233              	.L15:
 349:.\Generated_Source\PSoC5/RTC.c ****         {
 234              		.loc 1 349 0
 235 008a 0449     		ldr	r1, .L18
 236 008c 897D     		ldrb	r1, [r1, #22]	@ zero_extendqisi2
 237 008e C9B2     		uxtb	r1, r1
 238 0090 9142     		cmp	r1, r2
 239 0092 F6D1     		bne	.L16
 355:.\Generated_Source\PSoC5/RTC.c ****     }
 240              		.loc 1 355 0
 241 0094 014A     		ldr	r2, .L18
 242              	.LVL40:
 243 0096 D375     		strb	r3, [r2, #23]
 244 0098 08BD     		pop	{r3, pc}
 245              	.LVL41:
 246              	.L19:
 247 009a 00BF     		.align	2
 248              	.L18:
 249 009c 00000000 		.word	.LANCHOR1
 250              		.cfi_endproc
 251              	.LFE4:
 252              		.size	RTC_DSTDateConversion, .-RTC_DSTDateConversion
 253              		.section	.text.RTC_SetInitValues,"ax",%progbits
 254              		.align	2
 255              		.thumb
 256              		.thumb_func
 257              		.type	RTC_SetInitValues, %function
 258              	RTC_SetInitValues:
 259              	.LFB41:
1521:.\Generated_Source\PSoC5/RTC.c **** 
1522:.\Generated_Source\PSoC5/RTC.c **** 
1523:.\Generated_Source\PSoC5/RTC.c **** /*******************************************************************************
1524:.\Generated_Source\PSoC5/RTC.c **** * Function Name:   RTC_SetInitValues
1525:.\Generated_Source\PSoC5/RTC.c **** ********************************************************************************
1526:.\Generated_Source\PSoC5/RTC.c **** *
1527:.\Generated_Source\PSoC5/RTC.c **** * Summary:
1528:.\Generated_Source\PSoC5/RTC.c **** *    Does all initial calculation.
1529:.\Generated_Source\PSoC5/RTC.c **** *    - Set LP Year flag;
1530:.\Generated_Source\PSoC5/RTC.c **** *    - Set AM/PM flag;
1531:.\Generated_Source\PSoC5/RTC.c **** *    - DayOfWeek;
1532:.\Generated_Source\PSoC5/RTC.c **** *    - DayOfYear;
1533:.\Generated_Source\PSoC5/RTC.c **** *    - Set DST flag;
1534:.\Generated_Source\PSoC5/RTC.c **** *    - Convert relative to absolute date.
1535:.\Generated_Source\PSoC5/RTC.c **** *
ARM GAS  C:\Users\mark6\AppData\Local\Temp\ccQgPzp9.s 			page 33


1536:.\Generated_Source\PSoC5/RTC.c **** * Parameters:
1537:.\Generated_Source\PSoC5/RTC.c **** *  None.
1538:.\Generated_Source\PSoC5/RTC.c **** *
1539:.\Generated_Source\PSoC5/RTC.c **** * Return:
1540:.\Generated_Source\PSoC5/RTC.c **** *  None.
1541:.\Generated_Source\PSoC5/RTC.c **** *
1542:.\Generated_Source\PSoC5/RTC.c **** * Global variables:
1543:.\Generated_Source\PSoC5/RTC.c **** *  RTC_currentTimeDate, RTC_dstTimeDateStart,
1544:.\Generated_Source\PSoC5/RTC.c **** *  RTC_dstTimeDateStop, RTC_dstTimeDateStart,
1545:.\Generated_Source\PSoC5/RTC.c **** *  RTC_alarmCfgTimeDate, RTC_statusDateTime,
1546:.\Generated_Source\PSoC5/RTC.c **** *  RTC_dstStartStatus, RTC_dstStartStatus,
1547:.\Generated_Source\PSoC5/RTC.c **** *  RTC_dstStopStatus, RTC_alarmCurStatus:
1548:.\Generated_Source\PSoC5/RTC.c **** *  global variables are used while the initial calculation.
1549:.\Generated_Source\PSoC5/RTC.c **** *
1550:.\Generated_Source\PSoC5/RTC.c **** * RTC_dstTimeDateStart, RTC_currentTimeDate,
1551:.\Generated_Source\PSoC5/RTC.c **** *  RTC_statusDateTime, RTC_dstStartStatus,
1552:.\Generated_Source\PSoC5/RTC.c **** *  RTC_dstStartStatus, RTC_dstStopStatus,
1553:.\Generated_Source\PSoC5/RTC.c **** *  RTC_alarmCurStatus: global variables are modified with the
1554:.\Generated_Source\PSoC5/RTC.c **** *  initial calculated data.
1555:.\Generated_Source\PSoC5/RTC.c **** *
1556:.\Generated_Source\PSoC5/RTC.c **** * Reentrant:
1557:.\Generated_Source\PSoC5/RTC.c **** *  No.
1558:.\Generated_Source\PSoC5/RTC.c **** *
1559:.\Generated_Source\PSoC5/RTC.c **** *******************************************************************************/
1560:.\Generated_Source\PSoC5/RTC.c **** static void RTC_SetInitValues(void) 
1561:.\Generated_Source\PSoC5/RTC.c **** {
 260              		.loc 1 1561 0
 261              		.cfi_startproc
 262              		@ args = 0, pretend = 0, frame = 0
 263              		@ frame_needed = 0, uses_anonymous_args = 0
1562:.\Generated_Source\PSoC5/RTC.c ****     uint8 i;
1563:.\Generated_Source\PSoC5/RTC.c ****     uint8 RTC_alarmCfgMaskTemp;
1564:.\Generated_Source\PSoC5/RTC.c **** 
1565:.\Generated_Source\PSoC5/RTC.c ****     /* Clears day of month counter */
1566:.\Generated_Source\PSoC5/RTC.c ****     RTC_currentTimeDate.DayOfYear = 0u;
 264              		.loc 1 1566 0
 265 0000 984B     		ldr	r3, .L82
 266 0002 0022     		movs	r2, #0
 267 0004 DA81     		strh	r2, [r3, #14]	@ movhi
1567:.\Generated_Source\PSoC5/RTC.c **** 
1568:.\Generated_Source\PSoC5/RTC.c ****     /* Increments day of year value with day in current month */
1569:.\Generated_Source\PSoC5/RTC.c ****     RTC_currentTimeDate.DayOfYear += RTC_currentTimeDate.DayOfMonth;
 268              		.loc 1 1569 0
 269 0006 197B     		ldrb	r1, [r3, #12]	@ zero_extendqisi2
 270 0008 DA89     		ldrh	r2, [r3, #14]
 271 000a 0A44     		add	r2, r2, r1
 272 000c 92B2     		uxth	r2, r2
 273 000e DA81     		strh	r2, [r3, #14]	@ movhi
1570:.\Generated_Source\PSoC5/RTC.c **** 
1571:.\Generated_Source\PSoC5/RTC.c ****     /* Check leap year */
1572:.\Generated_Source\PSoC5/RTC.c ****     if(1u == RTC_LEAP_YEAR(RTC_currentTimeDate.Year))
 274              		.loc 1 1572 0
 275 0010 5B8A     		ldrh	r3, [r3, #18]
 276 0012 9BB2     		uxth	r3, r3
 277 0014 944A     		ldr	r2, .L82+4
 278 0016 A2FB0312 		umull	r1, r2, r2, r3
 279 001a D209     		lsrs	r2, r2, #7
ARM GAS  C:\Users\mark6\AppData\Local\Temp\ccQgPzp9.s 			page 34


 280 001c 4FF4C871 		mov	r1, #400
 281 0020 01FB1233 		mls	r3, r1, r2, r3
 282 0024 9BB2     		uxth	r3, r3
 283 0026 83B1     		cbz	r3, .L21
 284              		.loc 1 1572 0 is_stmt 0 discriminator 1
 285 0028 8E4B     		ldr	r3, .L82
 286 002a 5B8A     		ldrh	r3, [r3, #18]
 287 002c 13F0030F 		tst	r3, #3
 288 0030 12D1     		bne	.L22
 289              		.loc 1 1572 0 discriminator 2
 290 0032 8C4B     		ldr	r3, .L82
 291 0034 5B8A     		ldrh	r3, [r3, #18]
 292 0036 9BB2     		uxth	r3, r3
 293 0038 8B4A     		ldr	r2, .L82+4
 294 003a A2FB0312 		umull	r1, r2, r2, r3
 295 003e 5209     		lsrs	r2, r2, #5
 296 0040 6421     		movs	r1, #100
 297 0042 01FB1233 		mls	r3, r1, r2, r3
 298 0046 9BB2     		uxth	r3, r3
 299 0048 33B1     		cbz	r3, .L22
 300              	.L21:
1573:.\Generated_Source\PSoC5/RTC.c ****     {
1574:.\Generated_Source\PSoC5/RTC.c ****         /* Set LP Year flag */
1575:.\Generated_Source\PSoC5/RTC.c ****         RTC_statusDateTime |= RTC_STATUS_LY;
 301              		.loc 1 1575 0 is_stmt 1
 302 004a 884A     		ldr	r2, .L82+8
 303 004c 1378     		ldrb	r3, [r2]	@ zero_extendqisi2
 304 004e 43F00203 		orr	r3, r3, #2
 305 0052 1370     		strb	r3, [r2]
 306              	.L24:
1561:.\Generated_Source\PSoC5/RTC.c ****     uint8 i;
 307              		.loc 1 1561 0 discriminator 1
 308 0054 0023     		movs	r3, #0
 309 0056 0FE0     		b	.L23
 310              	.L22:
1576:.\Generated_Source\PSoC5/RTC.c ****     }   /* leap year flag was set */
1577:.\Generated_Source\PSoC5/RTC.c ****     else
1578:.\Generated_Source\PSoC5/RTC.c ****     {
1579:.\Generated_Source\PSoC5/RTC.c ****         /* Clear LP Year flag */
1580:.\Generated_Source\PSoC5/RTC.c ****         RTC_statusDateTime &= (uint8)(~RTC_STATUS_LY);
 311              		.loc 1 1580 0
 312 0058 844A     		ldr	r2, .L82+8
 313 005a 1378     		ldrb	r3, [r2]	@ zero_extendqisi2
 314 005c 03F0FD03 		and	r3, r3, #253
 315 0060 1370     		strb	r3, [r2]
 316 0062 F7E7     		b	.L24
 317              	.LVL42:
 318              	.L25:
1581:.\Generated_Source\PSoC5/RTC.c ****     }   /* leap year flag was cleared */
1582:.\Generated_Source\PSoC5/RTC.c **** 
1583:.\Generated_Source\PSoC5/RTC.c ****     /* Day of Year */
1584:.\Generated_Source\PSoC5/RTC.c ****     for(i = 0u; i < (RTC_currentTimeDate.Month - 1u); i++)
1585:.\Generated_Source\PSoC5/RTC.c ****     {
1586:.\Generated_Source\PSoC5/RTC.c ****         /* Increment on days in passed months */
1587:.\Generated_Source\PSoC5/RTC.c ****         RTC_currentTimeDate.DayOfYear += RTC_daysInMonths[i];
 319              		.loc 1 1587 0 discriminator 3
 320 0064 7F48     		ldr	r0, .L82
ARM GAS  C:\Users\mark6\AppData\Local\Temp\ccQgPzp9.s 			page 35


 321 0066 C289     		ldrh	r2, [r0, #14]
 322 0068 8149     		ldr	r1, .L82+12
 323 006a 1944     		add	r1, r1, r3
 324 006c 097B     		ldrb	r1, [r1, #12]	@ zero_extendqisi2
 325 006e 0A44     		add	r2, r2, r1
 326 0070 92B2     		uxth	r2, r2
 327 0072 C281     		strh	r2, [r0, #14]	@ movhi
1584:.\Generated_Source\PSoC5/RTC.c ****     {
 328              		.loc 1 1584 0 discriminator 3
 329 0074 0133     		adds	r3, r3, #1
 330              	.LVL43:
 331 0076 DBB2     		uxtb	r3, r3
 332              	.LVL44:
 333              	.L23:
1584:.\Generated_Source\PSoC5/RTC.c ****     {
 334              		.loc 1 1584 0 is_stmt 0 discriminator 1
 335 0078 7A4A     		ldr	r2, .L82
 336 007a 127C     		ldrb	r2, [r2, #16]	@ zero_extendqisi2
 337 007c 013A     		subs	r2, r2, #1
 338 007e 9342     		cmp	r3, r2
 339 0080 F0D3     		bcc	.L25
1561:.\Generated_Source\PSoC5/RTC.c ****     uint8 i;
 340              		.loc 1 1561 0 is_stmt 1
 341 0082 10B5     		push	{r4, lr}
 342              		.cfi_def_cfa_offset 8
 343              		.cfi_offset 4, -8
 344              		.cfi_offset 14, -4
1588:.\Generated_Source\PSoC5/RTC.c ****     }   /* day of year is calculated */
1589:.\Generated_Source\PSoC5/RTC.c **** 
1590:.\Generated_Source\PSoC5/RTC.c ****     /* Leap year check */
1591:.\Generated_Source\PSoC5/RTC.c ****     if(0u != RTC_IS_BIT_SET(RTC_statusDateTime, RTC_STATUS_LY))
 345              		.loc 1 1591 0
 346 0084 794B     		ldr	r3, .L82+8
 347              	.LVL45:
 348 0086 1B78     		ldrb	r3, [r3]	@ zero_extendqisi2
 349 0088 13F0020F 		tst	r3, #2
 350 008c 09D0     		beq	.L26
1592:.\Generated_Source\PSoC5/RTC.c ****     {
1593:.\Generated_Source\PSoC5/RTC.c ****         /* Leap day check */
1594:.\Generated_Source\PSoC5/RTC.c ****         if(RTC_currentTimeDate.Month > RTC_FEBRUARY)
 351              		.loc 1 1594 0
 352 008e 754B     		ldr	r3, .L82
 353 0090 1B7C     		ldrb	r3, [r3, #16]	@ zero_extendqisi2
 354 0092 DBB2     		uxtb	r3, r3
 355 0094 022B     		cmp	r3, #2
 356 0096 04D9     		bls	.L26
1595:.\Generated_Source\PSoC5/RTC.c ****         {
1596:.\Generated_Source\PSoC5/RTC.c ****             /* Add leap day */
1597:.\Generated_Source\PSoC5/RTC.c ****             RTC_currentTimeDate.DayOfYear++;
 357              		.loc 1 1597 0
 358 0098 724A     		ldr	r2, .L82
 359 009a D389     		ldrh	r3, [r2, #14]
 360 009c 0133     		adds	r3, r3, #1
 361 009e 9BB2     		uxth	r3, r3
 362 00a0 D381     		strh	r3, [r2, #14]	@ movhi
 363              	.L26:
1598:.\Generated_Source\PSoC5/RTC.c ****         }   /* Do nothing for non leap day */
ARM GAS  C:\Users\mark6\AppData\Local\Temp\ccQgPzp9.s 			page 36


1599:.\Generated_Source\PSoC5/RTC.c ****     }   /* Do nothing for not leap year */
1600:.\Generated_Source\PSoC5/RTC.c **** 
1601:.\Generated_Source\PSoC5/RTC.c ****     /* DayOfWeek */
1602:.\Generated_Source\PSoC5/RTC.c ****     RTC_currentTimeDate.DayOfWeek = RTC_DayOfWeek(
 364              		.loc 1 1602 0
 365 00a2 704C     		ldr	r4, .L82
 366 00a4 207B     		ldrb	r0, [r4, #12]	@ zero_extendqisi2
 367 00a6 217C     		ldrb	r1, [r4, #16]	@ zero_extendqisi2
 368 00a8 628A     		ldrh	r2, [r4, #18]
 369 00aa 92B2     		uxth	r2, r2
 370 00ac FFF7FEFF 		bl	RTC_DayOfWeek
 371              	.LVL46:
 372 00b0 0130     		adds	r0, r0, #1
 373 00b2 C0B2     		uxtb	r0, r0
 374 00b4 E072     		strb	r0, [r4, #11]
1603:.\Generated_Source\PSoC5/RTC.c ****                                                                         RTC_currentTimeDate.DayOfMo
1604:.\Generated_Source\PSoC5/RTC.c ****                                                                         RTC_currentTimeDate.Month,
1605:.\Generated_Source\PSoC5/RTC.c ****                                                                         RTC_currentTimeDate.Year) +
1606:.\Generated_Source\PSoC5/RTC.c **** 
1607:.\Generated_Source\PSoC5/RTC.c ****     if(RTC_currentTimeDate.DayOfWeek > RTC_START_OF_WEEK)
 375              		.loc 1 1607 0
 376 00b6 E37A     		ldrb	r3, [r4, #11]	@ zero_extendqisi2
 377 00b8 13F0FF0F 		tst	r3, #255
 378 00bc 03D0     		beq	.L27
1608:.\Generated_Source\PSoC5/RTC.c ****     {
1609:.\Generated_Source\PSoC5/RTC.c ****         RTC_currentTimeDate.DayOfWeek -= RTC_START_OF_WEEK;
 379              		.loc 1 1609 0
 380 00be E37A     		ldrb	r3, [r4, #11]	@ zero_extendqisi2
 381 00c0 DBB2     		uxtb	r3, r3
 382 00c2 E372     		strb	r3, [r4, #11]
 383 00c4 04E0     		b	.L28
 384              	.L27:
1610:.\Generated_Source\PSoC5/RTC.c ****     }
1611:.\Generated_Source\PSoC5/RTC.c ****     else
1612:.\Generated_Source\PSoC5/RTC.c ****     {
1613:.\Generated_Source\PSoC5/RTC.c ****         RTC_currentTimeDate.DayOfWeek = RTC_DAYS_IN_WEEK -
1614:.\Generated_Source\PSoC5/RTC.c ****                                         (RTC_START_OF_WEEK - RTC_currentTimeDate.DayOfWeek);
 385              		.loc 1 1614 0
 386 00c6 674A     		ldr	r2, .L82
 387 00c8 D37A     		ldrb	r3, [r2, #11]	@ zero_extendqisi2
1613:.\Generated_Source\PSoC5/RTC.c ****                                         (RTC_START_OF_WEEK - RTC_currentTimeDate.DayOfWeek);
 388              		.loc 1 1613 0
 389 00ca 0733     		adds	r3, r3, #7
 390 00cc DBB2     		uxtb	r3, r3
 391 00ce D372     		strb	r3, [r2, #11]
 392              	.L28:
1615:.\Generated_Source\PSoC5/RTC.c ****     }
1616:.\Generated_Source\PSoC5/RTC.c **** 
1617:.\Generated_Source\PSoC5/RTC.c ****     #if (1u == RTC_DST_FUNC_ENABLE)
1618:.\Generated_Source\PSoC5/RTC.c **** 
1619:.\Generated_Source\PSoC5/RTC.c ****         /* If DST values is given in a relative manner, converts to the absolute values */
1620:.\Generated_Source\PSoC5/RTC.c ****         if(0u != RTC_IS_BIT_SET(RTC_dstModeType, RTC_DST_RELDATE))
 393              		.loc 1 1620 0
 394 00d0 664B     		ldr	r3, .L82+8
 395 00d2 5B78     		ldrb	r3, [r3, #1]	@ zero_extendqisi2
 396 00d4 13F0020F 		tst	r3, #2
 397 00d8 01D0     		beq	.L29
ARM GAS  C:\Users\mark6\AppData\Local\Temp\ccQgPzp9.s 			page 37


1621:.\Generated_Source\PSoC5/RTC.c ****         {
1622:.\Generated_Source\PSoC5/RTC.c ****             RTC_DSTDateConversion();
 398              		.loc 1 1622 0
 399 00da FFF7FEFF 		bl	RTC_DSTDateConversion
 400              	.LVL47:
 401              	.L29:
1623:.\Generated_Source\PSoC5/RTC.c ****         }
1624:.\Generated_Source\PSoC5/RTC.c **** 
1625:.\Generated_Source\PSoC5/RTC.c ****         /* Sets DST status respect to the DST start date and time */
1626:.\Generated_Source\PSoC5/RTC.c ****         if(RTC_currentTimeDate.Month > RTC_dstTimeDateStart.Month)
 402              		.loc 1 1626 0
 403 00de 614A     		ldr	r2, .L82
 404 00e0 137C     		ldrb	r3, [r2, #16]	@ zero_extendqisi2
 405 00e2 1279     		ldrb	r2, [r2, #4]	@ zero_extendqisi2
 406 00e4 DBB2     		uxtb	r3, r3
 407 00e6 9342     		cmp	r3, r2
 408 00e8 05D9     		bls	.L30
1627:.\Generated_Source\PSoC5/RTC.c ****         {
1628:.\Generated_Source\PSoC5/RTC.c ****             RTC_statusDateTime |= RTC_STATUS_DST;
 409              		.loc 1 1628 0
 410 00ea 604A     		ldr	r2, .L82+8
 411 00ec 1378     		ldrb	r3, [r2]	@ zero_extendqisi2
 412 00ee 43F00103 		orr	r3, r3, #1
 413 00f2 1370     		strb	r3, [r2]
 414 00f4 22E0     		b	.L31
 415              	.L30:
1629:.\Generated_Source\PSoC5/RTC.c ****         }
1630:.\Generated_Source\PSoC5/RTC.c ****         else if(RTC_currentTimeDate.Month == RTC_dstTimeDateStart.Month)
 416              		.loc 1 1630 0
 417 00f6 5B4A     		ldr	r2, .L82
 418 00f8 137C     		ldrb	r3, [r2, #16]	@ zero_extendqisi2
 419 00fa 1279     		ldrb	r2, [r2, #4]	@ zero_extendqisi2
 420 00fc DBB2     		uxtb	r3, r3
 421 00fe 9342     		cmp	r3, r2
 422 0100 1CD1     		bne	.L31
1631:.\Generated_Source\PSoC5/RTC.c ****         {
1632:.\Generated_Source\PSoC5/RTC.c ****             if(RTC_currentTimeDate.DayOfMonth > RTC_dstTimeDateStart.DayOfMonth)
 423              		.loc 1 1632 0
 424 0102 584A     		ldr	r2, .L82
 425 0104 137B     		ldrb	r3, [r2, #12]	@ zero_extendqisi2
 426 0106 D278     		ldrb	r2, [r2, #3]	@ zero_extendqisi2
 427 0108 DBB2     		uxtb	r3, r3
 428 010a 9342     		cmp	r3, r2
 429 010c 05D9     		bls	.L32
1633:.\Generated_Source\PSoC5/RTC.c ****             {
1634:.\Generated_Source\PSoC5/RTC.c ****                 RTC_statusDateTime |= RTC_STATUS_DST;
 430              		.loc 1 1634 0
 431 010e 574A     		ldr	r2, .L82+8
 432 0110 1378     		ldrb	r3, [r2]	@ zero_extendqisi2
 433 0112 43F00103 		orr	r3, r3, #1
 434 0116 1370     		strb	r3, [r2]
 435 0118 10E0     		b	.L31
 436              	.L32:
1635:.\Generated_Source\PSoC5/RTC.c ****             }
1636:.\Generated_Source\PSoC5/RTC.c ****             else if(RTC_currentTimeDate.DayOfMonth == RTC_dstTimeDateStart.DayOfMonth)
 437              		.loc 1 1636 0
 438 011a 524A     		ldr	r2, .L82
ARM GAS  C:\Users\mark6\AppData\Local\Temp\ccQgPzp9.s 			page 38


 439 011c 137B     		ldrb	r3, [r2, #12]	@ zero_extendqisi2
 440 011e D278     		ldrb	r2, [r2, #3]	@ zero_extendqisi2
 441 0120 DBB2     		uxtb	r3, r3
 442 0122 9342     		cmp	r3, r2
 443 0124 0AD1     		bne	.L31
1637:.\Generated_Source\PSoC5/RTC.c ****             {
1638:.\Generated_Source\PSoC5/RTC.c ****                 if(RTC_currentTimeDate.Hour > RTC_dstTimeDateStart.Hour)
 444              		.loc 1 1638 0
 445 0126 4F4A     		ldr	r2, .L82
 446 0128 937A     		ldrb	r3, [r2, #10]	@ zero_extendqisi2
 447 012a 1278     		ldrb	r2, [r2]	@ zero_extendqisi2
 448 012c DBB2     		uxtb	r3, r3
 449 012e 9342     		cmp	r3, r2
 450 0130 04D9     		bls	.L31
1639:.\Generated_Source\PSoC5/RTC.c ****                 {
1640:.\Generated_Source\PSoC5/RTC.c ****                     RTC_statusDateTime |= RTC_STATUS_DST;
 451              		.loc 1 1640 0
 452 0132 4E4A     		ldr	r2, .L82+8
 453 0134 1378     		ldrb	r3, [r2]	@ zero_extendqisi2
 454 0136 43F00103 		orr	r3, r3, #1
 455 013a 1370     		strb	r3, [r2]
 456              	.L31:
1641:.\Generated_Source\PSoC5/RTC.c ****                 }
1642:.\Generated_Source\PSoC5/RTC.c ****             }
1643:.\Generated_Source\PSoC5/RTC.c ****             else
1644:.\Generated_Source\PSoC5/RTC.c ****             {
1645:.\Generated_Source\PSoC5/RTC.c ****                 /* Do nothing if current day of month is less than DST stop day of month */
1646:.\Generated_Source\PSoC5/RTC.c ****             }
1647:.\Generated_Source\PSoC5/RTC.c ****         }
1648:.\Generated_Source\PSoC5/RTC.c ****         else
1649:.\Generated_Source\PSoC5/RTC.c ****         {
1650:.\Generated_Source\PSoC5/RTC.c ****             /* Do nothing if current month is before than DST stop month */
1651:.\Generated_Source\PSoC5/RTC.c ****         }
1652:.\Generated_Source\PSoC5/RTC.c **** 
1653:.\Generated_Source\PSoC5/RTC.c ****         /* Clears DST status respect to the DST start date and time */
1654:.\Generated_Source\PSoC5/RTC.c ****         if(RTC_currentTimeDate.Month > RTC_dstTimeDateStop.Month)
 457              		.loc 1 1654 0
 458 013c 494A     		ldr	r2, .L82
 459 013e 137C     		ldrb	r3, [r2, #16]	@ zero_extendqisi2
 460 0140 127E     		ldrb	r2, [r2, #24]	@ zero_extendqisi2
 461 0142 DBB2     		uxtb	r3, r3
 462 0144 9342     		cmp	r3, r2
 463 0146 05D9     		bls	.L33
1655:.\Generated_Source\PSoC5/RTC.c ****         {
1656:.\Generated_Source\PSoC5/RTC.c ****             RTC_statusDateTime &= (uint8)(~RTC_STATUS_DST);
 464              		.loc 1 1656 0
 465 0148 484A     		ldr	r2, .L82+8
 466 014a 1378     		ldrb	r3, [r2]	@ zero_extendqisi2
 467 014c 03F0FE03 		and	r3, r3, #254
 468 0150 1370     		strb	r3, [r2]
 469 0152 22E0     		b	.L34
 470              	.L33:
1657:.\Generated_Source\PSoC5/RTC.c ****         }
1658:.\Generated_Source\PSoC5/RTC.c ****         else if(RTC_currentTimeDate.Month == RTC_dstTimeDateStop.Month)
 471              		.loc 1 1658 0
 472 0154 434A     		ldr	r2, .L82
 473 0156 137C     		ldrb	r3, [r2, #16]	@ zero_extendqisi2
ARM GAS  C:\Users\mark6\AppData\Local\Temp\ccQgPzp9.s 			page 39


 474 0158 127E     		ldrb	r2, [r2, #24]	@ zero_extendqisi2
 475 015a DBB2     		uxtb	r3, r3
 476 015c 9342     		cmp	r3, r2
 477 015e 1CD1     		bne	.L34
1659:.\Generated_Source\PSoC5/RTC.c ****         {
1660:.\Generated_Source\PSoC5/RTC.c ****             if(RTC_currentTimeDate.DayOfMonth > RTC_dstTimeDateStop.DayOfMonth)
 478              		.loc 1 1660 0
 479 0160 404A     		ldr	r2, .L82
 480 0162 137B     		ldrb	r3, [r2, #12]	@ zero_extendqisi2
 481 0164 D27D     		ldrb	r2, [r2, #23]	@ zero_extendqisi2
 482 0166 DBB2     		uxtb	r3, r3
 483 0168 9342     		cmp	r3, r2
 484 016a 05D9     		bls	.L35
1661:.\Generated_Source\PSoC5/RTC.c ****             {
1662:.\Generated_Source\PSoC5/RTC.c ****                 RTC_statusDateTime &= (uint8)(~RTC_STATUS_DST);
 485              		.loc 1 1662 0
 486 016c 3F4A     		ldr	r2, .L82+8
 487 016e 1378     		ldrb	r3, [r2]	@ zero_extendqisi2
 488 0170 03F0FE03 		and	r3, r3, #254
 489 0174 1370     		strb	r3, [r2]
 490 0176 10E0     		b	.L34
 491              	.L35:
1663:.\Generated_Source\PSoC5/RTC.c ****             }
1664:.\Generated_Source\PSoC5/RTC.c ****             else if(RTC_currentTimeDate.DayOfMonth == RTC_dstTimeDateStop.DayOfMonth)
 492              		.loc 1 1664 0
 493 0178 3A4A     		ldr	r2, .L82
 494 017a 137B     		ldrb	r3, [r2, #12]	@ zero_extendqisi2
 495 017c D27D     		ldrb	r2, [r2, #23]	@ zero_extendqisi2
 496 017e DBB2     		uxtb	r3, r3
 497 0180 9342     		cmp	r3, r2
 498 0182 0AD1     		bne	.L34
1665:.\Generated_Source\PSoC5/RTC.c ****             {
1666:.\Generated_Source\PSoC5/RTC.c ****                 if(RTC_currentTimeDate.Hour > RTC_dstTimeDateStop.Hour)
 499              		.loc 1 1666 0
 500 0184 374A     		ldr	r2, .L82
 501 0186 937A     		ldrb	r3, [r2, #10]	@ zero_extendqisi2
 502 0188 127D     		ldrb	r2, [r2, #20]	@ zero_extendqisi2
 503 018a DBB2     		uxtb	r3, r3
 504 018c 9342     		cmp	r3, r2
 505 018e 04D9     		bls	.L34
1667:.\Generated_Source\PSoC5/RTC.c ****                 {
1668:.\Generated_Source\PSoC5/RTC.c ****                     RTC_statusDateTime &= (uint8)(~RTC_STATUS_DST);
 506              		.loc 1 1668 0
 507 0190 364A     		ldr	r2, .L82+8
 508 0192 1378     		ldrb	r3, [r2]	@ zero_extendqisi2
 509 0194 03F0FE03 		and	r3, r3, #254
 510 0198 1370     		strb	r3, [r2]
 511              	.L34:
1669:.\Generated_Source\PSoC5/RTC.c ****                 }
1670:.\Generated_Source\PSoC5/RTC.c ****             }
1671:.\Generated_Source\PSoC5/RTC.c ****             else
1672:.\Generated_Source\PSoC5/RTC.c ****             {
1673:.\Generated_Source\PSoC5/RTC.c ****                 /* Do nothing if current day of month is less than DST stop day of month */
1674:.\Generated_Source\PSoC5/RTC.c ****             }
1675:.\Generated_Source\PSoC5/RTC.c ****         }
1676:.\Generated_Source\PSoC5/RTC.c ****         else
1677:.\Generated_Source\PSoC5/RTC.c ****         {
ARM GAS  C:\Users\mark6\AppData\Local\Temp\ccQgPzp9.s 			page 40


1678:.\Generated_Source\PSoC5/RTC.c ****             /* Do nothing if current month is before than DST stop month */
1679:.\Generated_Source\PSoC5/RTC.c ****         }
1680:.\Generated_Source\PSoC5/RTC.c **** 
1681:.\Generated_Source\PSoC5/RTC.c ****         /* Clear DST start/stop statuses */
1682:.\Generated_Source\PSoC5/RTC.c ****         RTC_dstStartStatus = 0u;
 512              		.loc 1 1682 0
 513 019a 344B     		ldr	r3, .L82+8
 514 019c 0022     		movs	r2, #0
 515 019e 9A70     		strb	r2, [r3, #2]
1683:.\Generated_Source\PSoC5/RTC.c ****         RTC_dstStopStatus = 0u;
 516              		.loc 1 1683 0
 517 01a0 DA70     		strb	r2, [r3, #3]
1684:.\Generated_Source\PSoC5/RTC.c **** 
1685:.\Generated_Source\PSoC5/RTC.c ****         /* Sets DST stop status month flag if DST stop month is equal to the
1686:.\Generated_Source\PSoC5/RTC.c ****         * current month, otherwise clears that flag.
1687:.\Generated_Source\PSoC5/RTC.c ****         */
1688:.\Generated_Source\PSoC5/RTC.c ****         if(RTC_dstTimeDateStop.Month == RTC_currentTimeDate.Month)
 518              		.loc 1 1688 0
 519 01a2 304A     		ldr	r2, .L82
 520 01a4 137E     		ldrb	r3, [r2, #24]	@ zero_extendqisi2
 521 01a6 127C     		ldrb	r2, [r2, #16]	@ zero_extendqisi2
 522 01a8 DBB2     		uxtb	r3, r3
 523 01aa 9342     		cmp	r3, r2
 524 01ac 05D1     		bne	.L36
1689:.\Generated_Source\PSoC5/RTC.c ****         {
1690:.\Generated_Source\PSoC5/RTC.c ****             RTC_dstStopStatus |= RTC_DST_MONTH;
 525              		.loc 1 1690 0
 526 01ae 2F4A     		ldr	r2, .L82+8
 527 01b0 D378     		ldrb	r3, [r2, #3]	@ zero_extendqisi2
 528 01b2 43F00403 		orr	r3, r3, #4
 529 01b6 D370     		strb	r3, [r2, #3]
 530 01b8 04E0     		b	.L37
 531              	.L36:
1691:.\Generated_Source\PSoC5/RTC.c ****         }
1692:.\Generated_Source\PSoC5/RTC.c ****         else
1693:.\Generated_Source\PSoC5/RTC.c ****         {
1694:.\Generated_Source\PSoC5/RTC.c ****             RTC_dstStopStatus &= (uint8)(~RTC_DST_MONTH);
 532              		.loc 1 1694 0
 533 01ba 2C4A     		ldr	r2, .L82+8
 534 01bc D378     		ldrb	r3, [r2, #3]	@ zero_extendqisi2
 535 01be 03F0FB03 		and	r3, r3, #251
 536 01c2 D370     		strb	r3, [r2, #3]
 537              	.L37:
1695:.\Generated_Source\PSoC5/RTC.c ****         }
1696:.\Generated_Source\PSoC5/RTC.c **** 
1697:.\Generated_Source\PSoC5/RTC.c ****         /* Sets DST start status month flag if DST start month is equal to the
1698:.\Generated_Source\PSoC5/RTC.c ****         * current month, otherwise clears that flag.
1699:.\Generated_Source\PSoC5/RTC.c ****         */
1700:.\Generated_Source\PSoC5/RTC.c ****         if(RTC_dstTimeDateStart.Month == RTC_currentTimeDate.Month)
 538              		.loc 1 1700 0
 539 01c4 274A     		ldr	r2, .L82
 540 01c6 1379     		ldrb	r3, [r2, #4]	@ zero_extendqisi2
 541 01c8 127C     		ldrb	r2, [r2, #16]	@ zero_extendqisi2
 542 01ca DBB2     		uxtb	r3, r3
 543 01cc 9342     		cmp	r3, r2
 544 01ce 05D1     		bne	.L38
1701:.\Generated_Source\PSoC5/RTC.c ****         {
ARM GAS  C:\Users\mark6\AppData\Local\Temp\ccQgPzp9.s 			page 41


1702:.\Generated_Source\PSoC5/RTC.c ****             RTC_dstStartStatus |= RTC_DST_MONTH;
 545              		.loc 1 1702 0
 546 01d0 264A     		ldr	r2, .L82+8
 547 01d2 9378     		ldrb	r3, [r2, #2]	@ zero_extendqisi2
 548 01d4 43F00403 		orr	r3, r3, #4
 549 01d8 9370     		strb	r3, [r2, #2]
 550 01da 04E0     		b	.L39
 551              	.L38:
1703:.\Generated_Source\PSoC5/RTC.c ****         }
1704:.\Generated_Source\PSoC5/RTC.c ****         else
1705:.\Generated_Source\PSoC5/RTC.c ****         {
1706:.\Generated_Source\PSoC5/RTC.c ****             RTC_dstStartStatus &= (uint8)(~RTC_DST_MONTH);
 552              		.loc 1 1706 0
 553 01dc 234A     		ldr	r2, .L82+8
 554 01de 9378     		ldrb	r3, [r2, #2]	@ zero_extendqisi2
 555 01e0 03F0FB03 		and	r3, r3, #251
 556 01e4 9370     		strb	r3, [r2, #2]
 557              	.L39:
1707:.\Generated_Source\PSoC5/RTC.c ****         }
1708:.\Generated_Source\PSoC5/RTC.c **** 
1709:.\Generated_Source\PSoC5/RTC.c ****         /* Sets DST stop status day of month flag if DST stop day of month is
1710:.\Generated_Source\PSoC5/RTC.c ****         * equal to the current day of month, otherwise clears that flag.
1711:.\Generated_Source\PSoC5/RTC.c ****         */
1712:.\Generated_Source\PSoC5/RTC.c ****         if(RTC_dstTimeDateStop.DayOfMonth == RTC_currentTimeDate.DayOfMonth)
 558              		.loc 1 1712 0
 559 01e6 1F4A     		ldr	r2, .L82
 560 01e8 D37D     		ldrb	r3, [r2, #23]	@ zero_extendqisi2
 561 01ea 127B     		ldrb	r2, [r2, #12]	@ zero_extendqisi2
 562 01ec DBB2     		uxtb	r3, r3
 563 01ee 9342     		cmp	r3, r2
 564 01f0 05D1     		bne	.L40
1713:.\Generated_Source\PSoC5/RTC.c ****         {
1714:.\Generated_Source\PSoC5/RTC.c ****             RTC_dstStopStatus |= RTC_DST_DAYOFMONTH;
 565              		.loc 1 1714 0
 566 01f2 1E4A     		ldr	r2, .L82+8
 567 01f4 D378     		ldrb	r3, [r2, #3]	@ zero_extendqisi2
 568 01f6 43F00203 		orr	r3, r3, #2
 569 01fa D370     		strb	r3, [r2, #3]
 570 01fc 04E0     		b	.L41
 571              	.L40:
1715:.\Generated_Source\PSoC5/RTC.c ****         }
1716:.\Generated_Source\PSoC5/RTC.c ****         else
1717:.\Generated_Source\PSoC5/RTC.c ****         {
1718:.\Generated_Source\PSoC5/RTC.c ****             RTC_dstStopStatus &= (uint8)(~RTC_DST_DAYOFMONTH);
 572              		.loc 1 1718 0
 573 01fe 1B4A     		ldr	r2, .L82+8
 574 0200 D378     		ldrb	r3, [r2, #3]	@ zero_extendqisi2
 575 0202 03F0FD03 		and	r3, r3, #253
 576 0206 D370     		strb	r3, [r2, #3]
 577              	.L41:
1719:.\Generated_Source\PSoC5/RTC.c ****         }
1720:.\Generated_Source\PSoC5/RTC.c **** 
1721:.\Generated_Source\PSoC5/RTC.c ****         /* Sets DST start status day of month flag if DST start day of month is
1722:.\Generated_Source\PSoC5/RTC.c ****         * equal to the current day of month, otherwise clears that flag.
1723:.\Generated_Source\PSoC5/RTC.c ****         */
1724:.\Generated_Source\PSoC5/RTC.c ****         if(RTC_dstTimeDateStart.DayOfMonth == RTC_currentTimeDate.DayOfMonth)
 578              		.loc 1 1724 0
ARM GAS  C:\Users\mark6\AppData\Local\Temp\ccQgPzp9.s 			page 42


 579 0208 164A     		ldr	r2, .L82
 580 020a D378     		ldrb	r3, [r2, #3]	@ zero_extendqisi2
 581 020c 127B     		ldrb	r2, [r2, #12]	@ zero_extendqisi2
 582 020e DBB2     		uxtb	r3, r3
 583 0210 9342     		cmp	r3, r2
 584 0212 05D1     		bne	.L42
1725:.\Generated_Source\PSoC5/RTC.c ****         {
1726:.\Generated_Source\PSoC5/RTC.c ****             RTC_dstStartStatus |= RTC_DST_DAYOFMONTH;
 585              		.loc 1 1726 0
 586 0214 154A     		ldr	r2, .L82+8
 587 0216 9378     		ldrb	r3, [r2, #2]	@ zero_extendqisi2
 588 0218 43F00203 		orr	r3, r3, #2
 589 021c 9370     		strb	r3, [r2, #2]
 590 021e 04E0     		b	.L43
 591              	.L42:
1727:.\Generated_Source\PSoC5/RTC.c ****         }
1728:.\Generated_Source\PSoC5/RTC.c ****         else
1729:.\Generated_Source\PSoC5/RTC.c ****         {
1730:.\Generated_Source\PSoC5/RTC.c ****             RTC_dstStartStatus &= (uint8)(~RTC_DST_DAYOFMONTH);
 592              		.loc 1 1730 0
 593 0220 124A     		ldr	r2, .L82+8
 594 0222 9378     		ldrb	r3, [r2, #2]	@ zero_extendqisi2
 595 0224 03F0FD03 		and	r3, r3, #253
 596 0228 9370     		strb	r3, [r2, #2]
 597              	.L43:
1731:.\Generated_Source\PSoC5/RTC.c ****         }
1732:.\Generated_Source\PSoC5/RTC.c **** 
1733:.\Generated_Source\PSoC5/RTC.c ****         /* Sets DST stop status hour flag if DST stop hour is equal to the
1734:.\Generated_Source\PSoC5/RTC.c ****         * current hour, otherwise clears that flag.
1735:.\Generated_Source\PSoC5/RTC.c ****         */
1736:.\Generated_Source\PSoC5/RTC.c ****         if(RTC_dstTimeDateStop.Hour == RTC_currentTimeDate.Hour)
 598              		.loc 1 1736 0
 599 022a 0E4A     		ldr	r2, .L82
 600 022c 137D     		ldrb	r3, [r2, #20]	@ zero_extendqisi2
 601 022e 927A     		ldrb	r2, [r2, #10]	@ zero_extendqisi2
 602 0230 DBB2     		uxtb	r3, r3
 603 0232 9342     		cmp	r3, r2
 604 0234 05D1     		bne	.L44
1737:.\Generated_Source\PSoC5/RTC.c ****         {
1738:.\Generated_Source\PSoC5/RTC.c ****             RTC_dstStopStatus |= RTC_DST_HOUR;
 605              		.loc 1 1738 0
 606 0236 0D4A     		ldr	r2, .L82+8
 607 0238 D378     		ldrb	r3, [r2, #3]	@ zero_extendqisi2
 608 023a 43F00103 		orr	r3, r3, #1
 609 023e D370     		strb	r3, [r2, #3]
 610 0240 04E0     		b	.L45
 611              	.L44:
1739:.\Generated_Source\PSoC5/RTC.c ****         }
1740:.\Generated_Source\PSoC5/RTC.c ****         else
1741:.\Generated_Source\PSoC5/RTC.c ****         {
1742:.\Generated_Source\PSoC5/RTC.c ****             RTC_dstStopStatus &= (uint8)(~RTC_DST_HOUR);
 612              		.loc 1 1742 0
 613 0242 0A4A     		ldr	r2, .L82+8
 614 0244 D378     		ldrb	r3, [r2, #3]	@ zero_extendqisi2
 615 0246 03F0FE03 		and	r3, r3, #254
 616 024a D370     		strb	r3, [r2, #3]
 617              	.L45:
ARM GAS  C:\Users\mark6\AppData\Local\Temp\ccQgPzp9.s 			page 43


1743:.\Generated_Source\PSoC5/RTC.c ****         }
1744:.\Generated_Source\PSoC5/RTC.c **** 
1745:.\Generated_Source\PSoC5/RTC.c ****         /* Sets DST start status hour flag if DST start hour is equal to the
1746:.\Generated_Source\PSoC5/RTC.c ****         * current hour, otherwise clears that flag.
1747:.\Generated_Source\PSoC5/RTC.c ****         */
1748:.\Generated_Source\PSoC5/RTC.c ****         if(RTC_dstTimeDateStart.Hour == RTC_currentTimeDate.Hour)
 618              		.loc 1 1748 0
 619 024c 054A     		ldr	r2, .L82
 620 024e 1378     		ldrb	r3, [r2]	@ zero_extendqisi2
 621 0250 927A     		ldrb	r2, [r2, #10]	@ zero_extendqisi2
 622 0252 DBB2     		uxtb	r3, r3
 623 0254 9342     		cmp	r3, r2
 624 0256 0DD1     		bne	.L46
1749:.\Generated_Source\PSoC5/RTC.c ****         {
1750:.\Generated_Source\PSoC5/RTC.c ****             RTC_dstStartStatus |= RTC_DST_HOUR;
 625              		.loc 1 1750 0
 626 0258 044A     		ldr	r2, .L82+8
 627 025a 9378     		ldrb	r3, [r2, #2]	@ zero_extendqisi2
 628 025c 43F00103 		orr	r3, r3, #1
 629 0260 9370     		strb	r3, [r2, #2]
 630 0262 0CE0     		b	.L47
 631              	.L83:
 632              		.align	2
 633              	.L82:
 634 0264 00000000 		.word	.LANCHOR1
 635 0268 1F85EB51 		.word	1374389535
 636 026c 00000000 		.word	.LANCHOR2
 637 0270 00000000 		.word	.LANCHOR0
 638              	.L46:
1751:.\Generated_Source\PSoC5/RTC.c ****         }
1752:.\Generated_Source\PSoC5/RTC.c ****         else
1753:.\Generated_Source\PSoC5/RTC.c ****         {
1754:.\Generated_Source\PSoC5/RTC.c ****             RTC_dstStartStatus &= (uint8)(~RTC_DST_HOUR);
 639              		.loc 1 1754 0
 640 0274 9D4A     		ldr	r2, .L84
 641 0276 9378     		ldrb	r3, [r2, #2]	@ zero_extendqisi2
 642 0278 03F0FE03 		and	r3, r3, #254
 643 027c 9370     		strb	r3, [r2, #2]
 644              	.L47:
1755:.\Generated_Source\PSoC5/RTC.c ****         }
1756:.\Generated_Source\PSoC5/RTC.c **** 
1757:.\Generated_Source\PSoC5/RTC.c ****         /* DST Enable ? */
1758:.\Generated_Source\PSoC5/RTC.c ****         if(0u != RTC_IS_BIT_SET(RTC_dstModeType, RTC_DST_ENABLE))
 645              		.loc 1 1758 0
 646 027e 9B4B     		ldr	r3, .L84
 647 0280 5B78     		ldrb	r3, [r3, #1]	@ zero_extendqisi2
 648 0282 13F0010F 		tst	r3, #1
 649 0286 00F04A81 		beq	.L48
1759:.\Generated_Source\PSoC5/RTC.c ****         {
1760:.\Generated_Source\PSoC5/RTC.c ****             if(0u != RTC_IS_BIT_SET(RTC_statusDateTime, RTC_STATUS_DST))
 650              		.loc 1 1760 0
 651 028a 984B     		ldr	r3, .L84
 652 028c 1B78     		ldrb	r3, [r3]	@ zero_extendqisi2
 653 028e 13F0010F 		tst	r3, #1
 654 0292 00F0A380 		beq	.L49
1761:.\Generated_Source\PSoC5/RTC.c ****             {
1762:.\Generated_Source\PSoC5/RTC.c ****                 if(0u != RTC_IS_BIT_SET(RTC_dstStartStatus,
ARM GAS  C:\Users\mark6\AppData\Local\Temp\ccQgPzp9.s 			page 44


 655              		.loc 1 1762 0
 656 0296 954B     		ldr	r3, .L84
 657 0298 9B78     		ldrb	r3, [r3, #2]	@ zero_extendqisi2
 658 029a 03F00703 		and	r3, r3, #7
 659 029e 072B     		cmp	r3, #7
 660 02a0 40F03D81 		bne	.L48
1763:.\Generated_Source\PSoC5/RTC.c ****                         (RTC_DST_HOUR | RTC_DST_DAYOFMONTH | RTC_DST_MONTH)))
1764:.\Generated_Source\PSoC5/RTC.c ****                 {
1765:.\Generated_Source\PSoC5/RTC.c ****                     /* Subtract current minutes value with minutes value, what
1766:.\Generated_Source\PSoC5/RTC.c ****                     *  are out of full hour in DST offset.
1767:.\Generated_Source\PSoC5/RTC.c ****                     */
1768:.\Generated_Source\PSoC5/RTC.c ****                     RTC_currentTimeDate.Min -= RTC_dstOffsetMin %
 661              		.loc 1 1768 0
 662 02a4 914B     		ldr	r3, .L84
 663 02a6 1A79     		ldrb	r2, [r3, #4]	@ zero_extendqisi2
 664 02a8 D2B2     		uxtb	r2, r2
 665 02aa 914B     		ldr	r3, .L84+4
 666 02ac A3FB0213 		umull	r1, r3, r3, r2
 667 02b0 5B09     		lsrs	r3, r3, #5
 668 02b2 C3EB0313 		rsb	r3, r3, r3, lsl #4
 669 02b6 9B00     		lsls	r3, r3, #2
 670 02b8 D31A     		subs	r3, r2, r3
 671 02ba 8E49     		ldr	r1, .L84+8
 672 02bc 4A7A     		ldrb	r2, [r1, #9]	@ zero_extendqisi2
 673 02be D31A     		subs	r3, r2, r3
 674 02c0 03F0FF03 		and	r3, r3, #255
 675 02c4 4B72     		strb	r3, [r1, #9]
1769:.\Generated_Source\PSoC5/RTC.c ****                                                             (RTC_HOUR_ELAPSED + 1u);
1770:.\Generated_Source\PSoC5/RTC.c **** 
1771:.\Generated_Source\PSoC5/RTC.c ****                     /* If current minutes value is greater than number of
1772:.\Generated_Source\PSoC5/RTC.c ****                     * minutes in hour - could be only if hour's value is negative
1773:.\Generated_Source\PSoC5/RTC.c ****                     */
1774:.\Generated_Source\PSoC5/RTC.c ****                     if(RTC_currentTimeDate.Min > RTC_HOUR_ELAPSED)
 676              		.loc 1 1774 0
 677 02c6 4B7A     		ldrb	r3, [r1, #9]	@ zero_extendqisi2
 678 02c8 DBB2     		uxtb	r3, r3
 679 02ca 3B2B     		cmp	r3, #59
 680 02cc 07D9     		bls	.L50
1775:.\Generated_Source\PSoC5/RTC.c ****                     {
1776:.\Generated_Source\PSoC5/RTC.c ****                         /* Adjust current minutes value. Convert to the positive. */
1777:.\Generated_Source\PSoC5/RTC.c ****                         RTC_currentTimeDate.Min = RTC_HOUR_ELAPSED -
1778:.\Generated_Source\PSoC5/RTC.c ****                                                                ((uint8)(~RTC_currentTimeDate.Min));
 681              		.loc 1 1778 0
 682 02ce 4B7A     		ldrb	r3, [r1, #9]	@ zero_extendqisi2
1777:.\Generated_Source\PSoC5/RTC.c ****                                                                ((uint8)(~RTC_currentTimeDate.Min));
 683              		.loc 1 1777 0
 684 02d0 3C33     		adds	r3, r3, #60
 685 02d2 DBB2     		uxtb	r3, r3
 686 02d4 4B72     		strb	r3, [r1, #9]
1779:.\Generated_Source\PSoC5/RTC.c **** 
1780:.\Generated_Source\PSoC5/RTC.c ****                         /* Decrement current hours value. */
1781:.\Generated_Source\PSoC5/RTC.c ****                         RTC_currentTimeDate.Hour--;
 687              		.loc 1 1781 0
 688 02d6 8B7A     		ldrb	r3, [r1, #10]	@ zero_extendqisi2
 689 02d8 013B     		subs	r3, r3, #1
 690 02da DBB2     		uxtb	r3, r3
 691 02dc 8B72     		strb	r3, [r1, #10]
ARM GAS  C:\Users\mark6\AppData\Local\Temp\ccQgPzp9.s 			page 45


 692              	.L50:
1782:.\Generated_Source\PSoC5/RTC.c ****                     }
1783:.\Generated_Source\PSoC5/RTC.c **** 
1784:.\Generated_Source\PSoC5/RTC.c ****                     /* Subtract current hours value with hours value, what
1785:.\Generated_Source\PSoC5/RTC.c ****                     *  are full part of hours in DST offset.
1786:.\Generated_Source\PSoC5/RTC.c ****                     */
1787:.\Generated_Source\PSoC5/RTC.c ****                     RTC_currentTimeDate.Hour -= RTC_dstOffsetMin /
 693              		.loc 1 1787 0
 694 02de 834B     		ldr	r3, .L84
 695 02e0 1B79     		ldrb	r3, [r3, #4]	@ zero_extendqisi2
 696 02e2 DBB2     		uxtb	r3, r3
 697 02e4 824A     		ldr	r2, .L84+4
 698 02e6 A2FB0332 		umull	r3, r2, r2, r3
 699 02ea 8249     		ldr	r1, .L84+8
 700 02ec 8B7A     		ldrb	r3, [r1, #10]	@ zero_extendqisi2
 701 02ee A3EB5213 		sub	r3, r3, r2, lsr #5
 702 02f2 DBB2     		uxtb	r3, r3
 703 02f4 8B72     		strb	r3, [r1, #10]
1788:.\Generated_Source\PSoC5/RTC.c ****                                                              (RTC_HOUR_ELAPSED + 1u);
1789:.\Generated_Source\PSoC5/RTC.c **** 
1790:.\Generated_Source\PSoC5/RTC.c ****                     /* Check if current hour's value is negative */
1791:.\Generated_Source\PSoC5/RTC.c ****                     if(RTC_currentTimeDate.Hour > RTC_DAY_ELAPSED)
 704              		.loc 1 1791 0
 705 02f6 8B7A     		ldrb	r3, [r1, #10]	@ zero_extendqisi2
 706 02f8 DBB2     		uxtb	r3, r3
 707 02fa 172B     		cmp	r3, #23
 708 02fc 66D9     		bls	.L51
1792:.\Generated_Source\PSoC5/RTC.c ****                     {
1793:.\Generated_Source\PSoC5/RTC.c ****                         /* Adjust hour */
1794:.\Generated_Source\PSoC5/RTC.c ****                         RTC_currentTimeDate.Hour = RTC_DAY_ELAPSED -
1795:.\Generated_Source\PSoC5/RTC.c ****                                                                 ((uint8)(~RTC_currentTimeDate.Hour)
 709              		.loc 1 1795 0
 710 02fe 8A7A     		ldrb	r2, [r1, #10]	@ zero_extendqisi2
1794:.\Generated_Source\PSoC5/RTC.c ****                                                                 ((uint8)(~RTC_currentTimeDate.Hour)
 711              		.loc 1 1794 0
 712 0300 1832     		adds	r2, r2, #24
 713 0302 D2B2     		uxtb	r2, r2
 714 0304 8A72     		strb	r2, [r1, #10]
1796:.\Generated_Source\PSoC5/RTC.c **** 
1797:.\Generated_Source\PSoC5/RTC.c ****                         /* Decrement day of month, year and week */
1798:.\Generated_Source\PSoC5/RTC.c ****                         RTC_currentTimeDate.DayOfMonth--;
 715              		.loc 1 1798 0
 716 0306 0A7B     		ldrb	r2, [r1, #12]	@ zero_extendqisi2
 717 0308 013A     		subs	r2, r2, #1
 718 030a D2B2     		uxtb	r2, r2
 719 030c 0A73     		strb	r2, [r1, #12]
1799:.\Generated_Source\PSoC5/RTC.c ****                         RTC_currentTimeDate.DayOfYear--;
 720              		.loc 1 1799 0
 721 030e CA89     		ldrh	r2, [r1, #14]
 722 0310 013A     		subs	r2, r2, #1
 723 0312 92B2     		uxth	r2, r2
 724 0314 CA81     		strh	r2, [r1, #14]	@ movhi
1800:.\Generated_Source\PSoC5/RTC.c ****                         RTC_currentTimeDate.DayOfWeek--;
 725              		.loc 1 1800 0
 726 0316 CA7A     		ldrb	r2, [r1, #11]	@ zero_extendqisi2
 727 0318 013A     		subs	r2, r2, #1
 728 031a D2B2     		uxtb	r2, r2
ARM GAS  C:\Users\mark6\AppData\Local\Temp\ccQgPzp9.s 			page 46


 729 031c CA72     		strb	r2, [r1, #11]
1801:.\Generated_Source\PSoC5/RTC.c **** 
1802:.\Generated_Source\PSoC5/RTC.c ****                         if(0u == RTC_currentTimeDate.DayOfWeek)
 730              		.loc 1 1802 0
 731 031e CB7A     		ldrb	r3, [r1, #11]	@ zero_extendqisi2
 732 0320 13F0FF0F 		tst	r3, #255
 733 0324 01D1     		bne	.L52
1803:.\Generated_Source\PSoC5/RTC.c ****                         {
1804:.\Generated_Source\PSoC5/RTC.c ****                             RTC_currentTimeDate.DayOfWeek = RTC_DAYS_IN_WEEK;
 734              		.loc 1 1804 0
 735 0326 0722     		movs	r2, #7
 736 0328 CA72     		strb	r2, [r1, #11]
 737              	.L52:
1805:.\Generated_Source\PSoC5/RTC.c ****                         }
1806:.\Generated_Source\PSoC5/RTC.c **** 
1807:.\Generated_Source\PSoC5/RTC.c ****                         if(0u == RTC_currentTimeDate.DayOfMonth)
 738              		.loc 1 1807 0
 739 032a 724B     		ldr	r3, .L84+8
 740 032c 1B7B     		ldrb	r3, [r3, #12]	@ zero_extendqisi2
 741 032e 13F0FF0F 		tst	r3, #255
 742 0332 4BD1     		bne	.L51
1808:.\Generated_Source\PSoC5/RTC.c ****                         {
1809:.\Generated_Source\PSoC5/RTC.c ****                             /* Decrement months value */
1810:.\Generated_Source\PSoC5/RTC.c ****                             RTC_currentTimeDate.Month--;
 743              		.loc 1 1810 0
 744 0334 6F4A     		ldr	r2, .L84+8
 745 0336 137C     		ldrb	r3, [r2, #16]	@ zero_extendqisi2
 746 0338 013B     		subs	r3, r3, #1
 747 033a DBB2     		uxtb	r3, r3
 748 033c 1374     		strb	r3, [r2, #16]
1811:.\Generated_Source\PSoC5/RTC.c **** 
1812:.\Generated_Source\PSoC5/RTC.c ****                             /* The current month is month before 1st one. */
1813:.\Generated_Source\PSoC5/RTC.c ****                             if(0u == RTC_currentTimeDate.Month)
 749              		.loc 1 1813 0
 750 033e 137C     		ldrb	r3, [r2, #16]	@ zero_extendqisi2
 751 0340 13F0FF0F 		tst	r3, #255
 752 0344 3CD1     		bne	.L53
1814:.\Generated_Source\PSoC5/RTC.c ****                             {
1815:.\Generated_Source\PSoC5/RTC.c ****                                 /* December is the month before January */
1816:.\Generated_Source\PSoC5/RTC.c ****                                 RTC_currentTimeDate.Month = RTC_DECEMBER;
 753              		.loc 1 1816 0
 754 0346 1346     		mov	r3, r2
 755 0348 0C22     		movs	r2, #12
 756 034a 1A74     		strb	r2, [r3, #16]
1817:.\Generated_Source\PSoC5/RTC.c ****                                 RTC_currentTimeDate.DayOfMonth =
1818:.\Generated_Source\PSoC5/RTC.c ****                                             RTC_daysInMonths[RTC_currentTimeDate.Month - 1u];
 757              		.loc 1 1818 0
 758 034c 197C     		ldrb	r1, [r3, #16]	@ zero_extendqisi2
 759 034e 6A4A     		ldr	r2, .L84+12
 760 0350 0A44     		add	r2, r2, r1
 761 0352 127B     		ldrb	r2, [r2, #12]	@ zero_extendqisi2
1817:.\Generated_Source\PSoC5/RTC.c ****                                 RTC_currentTimeDate.DayOfMonth =
 762              		.loc 1 1817 0
 763 0354 1A73     		strb	r2, [r3, #12]
1819:.\Generated_Source\PSoC5/RTC.c **** 
1820:.\Generated_Source\PSoC5/RTC.c ****                                 /* Decrement years value */
1821:.\Generated_Source\PSoC5/RTC.c ****                                 RTC_currentTimeDate.Year--;
ARM GAS  C:\Users\mark6\AppData\Local\Temp\ccQgPzp9.s 			page 47


 764              		.loc 1 1821 0
 765 0356 5A8A     		ldrh	r2, [r3, #18]
 766 0358 013A     		subs	r2, r2, #1
 767 035a 92B2     		uxth	r2, r2
 768 035c 5A82     		strh	r2, [r3, #18]	@ movhi
1822:.\Generated_Source\PSoC5/RTC.c ****                                 if(1u == RTC_LEAP_YEAR(RTC_currentTimeDate.Year))
 769              		.loc 1 1822 0
 770 035e 5B8A     		ldrh	r3, [r3, #18]
 771 0360 9BB2     		uxth	r3, r3
 772 0362 664A     		ldr	r2, .L84+16
 773 0364 A2FB0312 		umull	r1, r2, r2, r3
 774 0368 D209     		lsrs	r2, r2, #7
 775 036a 4FF4C871 		mov	r1, #400
 776 036e 01FB1233 		mls	r3, r1, r2, r3
 777 0372 9BB2     		uxth	r3, r3
 778 0374 83B1     		cbz	r3, .L54
 779              		.loc 1 1822 0 is_stmt 0 discriminator 1
 780 0376 5F4B     		ldr	r3, .L84+8
 781 0378 5B8A     		ldrh	r3, [r3, #18]
 782 037a 13F0030F 		tst	r3, #3
 783 037e 15D1     		bne	.L55
 784              		.loc 1 1822 0 discriminator 2
 785 0380 5C4B     		ldr	r3, .L84+8
 786 0382 5B8A     		ldrh	r3, [r3, #18]
 787 0384 9BB2     		uxth	r3, r3
 788 0386 5D4A     		ldr	r2, .L84+16
 789 0388 A2FB0312 		umull	r1, r2, r2, r3
 790 038c 5209     		lsrs	r2, r2, #5
 791 038e 6421     		movs	r1, #100
 792 0390 01FB1233 		mls	r3, r1, r2, r3
 793 0394 9BB2     		uxth	r3, r3
 794 0396 4BB1     		cbz	r3, .L55
 795              	.L54:
1823:.\Generated_Source\PSoC5/RTC.c ****                                 {
1824:.\Generated_Source\PSoC5/RTC.c ****                                     /* Set leap year status flag */
1825:.\Generated_Source\PSoC5/RTC.c ****                                     RTC_statusDateTime |= RTC_STATUS_LY;
 796              		.loc 1 1825 0 is_stmt 1
 797 0398 544A     		ldr	r2, .L84
 798 039a 1378     		ldrb	r3, [r2]	@ zero_extendqisi2
 799 039c 43F00203 		orr	r3, r3, #2
 800 03a0 1370     		strb	r3, [r2]
1826:.\Generated_Source\PSoC5/RTC.c ****                                     RTC_currentTimeDate.DayOfYear = RTC_DAYS_IN_LEAP_YEAR;
 801              		.loc 1 1826 0
 802 03a2 4FF4B772 		mov	r2, #366
 803 03a6 534B     		ldr	r3, .L84+8
 804 03a8 DA81     		strh	r2, [r3, #14]	@ movhi
 805 03aa 0FE0     		b	.L51
 806              	.L55:
1827:.\Generated_Source\PSoC5/RTC.c ****                                 }
1828:.\Generated_Source\PSoC5/RTC.c ****                                 else
1829:.\Generated_Source\PSoC5/RTC.c ****                                 {
1830:.\Generated_Source\PSoC5/RTC.c ****                                     /* Clear leap year status flag */
1831:.\Generated_Source\PSoC5/RTC.c ****                                     RTC_statusDateTime &= (uint8)(~RTC_STATUS_LY);
 807              		.loc 1 1831 0
 808 03ac 4F4A     		ldr	r2, .L84
 809 03ae 1378     		ldrb	r3, [r2]	@ zero_extendqisi2
 810 03b0 03F0FD03 		and	r3, r3, #253
ARM GAS  C:\Users\mark6\AppData\Local\Temp\ccQgPzp9.s 			page 48


 811 03b4 1370     		strb	r3, [r2]
1832:.\Generated_Source\PSoC5/RTC.c ****                                     RTC_currentTimeDate.DayOfYear = RTC_DAYS_IN_YEAR;
 812              		.loc 1 1832 0
 813 03b6 40F26D12 		movw	r2, #365
 814 03ba 4E4B     		ldr	r3, .L84+8
 815 03bc DA81     		strh	r2, [r3, #14]	@ movhi
 816 03be 05E0     		b	.L51
 817              	.L53:
1833:.\Generated_Source\PSoC5/RTC.c ****                                 }
1834:.\Generated_Source\PSoC5/RTC.c ****                             }   /* 0u == RTC_currentTimeDate.Month */
1835:.\Generated_Source\PSoC5/RTC.c ****                             else
1836:.\Generated_Source\PSoC5/RTC.c ****                             {
1837:.\Generated_Source\PSoC5/RTC.c ****                                 RTC_currentTimeDate.DayOfMonth =
1838:.\Generated_Source\PSoC5/RTC.c ****                                             RTC_daysInMonths[RTC_currentTimeDate.Month - 1u];
 818              		.loc 1 1838 0
 819 03c0 4C4A     		ldr	r2, .L84+8
 820 03c2 117C     		ldrb	r1, [r2, #16]	@ zero_extendqisi2
 821 03c4 4C4B     		ldr	r3, .L84+12
 822 03c6 0B44     		add	r3, r3, r1
 823 03c8 1B7B     		ldrb	r3, [r3, #12]	@ zero_extendqisi2
1837:.\Generated_Source\PSoC5/RTC.c ****                                             RTC_daysInMonths[RTC_currentTimeDate.Month - 1u];
 824              		.loc 1 1837 0
 825 03ca 1373     		strb	r3, [r2, #12]
 826              	.L51:
1839:.\Generated_Source\PSoC5/RTC.c ****                             }   /* 0u != End of RTC_currentTimeDate.Month */
1840:.\Generated_Source\PSoC5/RTC.c ****                         }   /* 0u == End of RTC_currentTimeDate.DayOfMonth */
1841:.\Generated_Source\PSoC5/RTC.c ****                     }   /* End of RTC_currentTimeDate.Hour > RTC_DAY_ELAPSED */
1842:.\Generated_Source\PSoC5/RTC.c **** 
1843:.\Generated_Source\PSoC5/RTC.c ****                     /* Clear DST status flag */
1844:.\Generated_Source\PSoC5/RTC.c ****                     RTC_statusDateTime &= (uint8)(~RTC_STATUS_DST);
 827              		.loc 1 1844 0
 828 03cc 474B     		ldr	r3, .L84
 829 03ce 1A78     		ldrb	r2, [r3]	@ zero_extendqisi2
 830 03d0 02F0FE02 		and	r2, r2, #254
 831 03d4 1A70     		strb	r2, [r3]
1845:.\Generated_Source\PSoC5/RTC.c ****                     /* Clear DST stop status */
1846:.\Generated_Source\PSoC5/RTC.c ****                     RTC_dstStopStatus = 0u;
 832              		.loc 1 1846 0
 833 03d6 0022     		movs	r2, #0
 834 03d8 DA70     		strb	r2, [r3, #3]
 835 03da A0E0     		b	.L48
 836              	.L49:
1847:.\Generated_Source\PSoC5/RTC.c ****                 }
1848:.\Generated_Source\PSoC5/RTC.c ****             }
1849:.\Generated_Source\PSoC5/RTC.c ****             else    /* Current time and date DO NOT match DST time and date */
1850:.\Generated_Source\PSoC5/RTC.c ****             {
1851:.\Generated_Source\PSoC5/RTC.c ****                 if(0u != RTC_IS_BIT_SET(RTC_dstStartStatus, RTC_DST_HOUR |
 837              		.loc 1 1851 0
 838 03dc 434B     		ldr	r3, .L84
 839 03de 9B78     		ldrb	r3, [r3, #2]	@ zero_extendqisi2
 840 03e0 03F00703 		and	r3, r3, #7
 841 03e4 072B     		cmp	r3, #7
 842 03e6 40F09A80 		bne	.L48
1852:.\Generated_Source\PSoC5/RTC.c ****                                                      RTC_DST_DAYOFMONTH | RTC_DST_MONTH))
1853:.\Generated_Source\PSoC5/RTC.c ****                 {
1854:.\Generated_Source\PSoC5/RTC.c ****                     /* Add Hour and Min */
1855:.\Generated_Source\PSoC5/RTC.c ****                     RTC_currentTimeDate.Min +=
ARM GAS  C:\Users\mark6\AppData\Local\Temp\ccQgPzp9.s 			page 49


1856:.\Generated_Source\PSoC5/RTC.c ****                                                 RTC_dstOffsetMin % (RTC_HOUR_ELAPSED + 1u);
 843              		.loc 1 1856 0
 844 03ea 404B     		ldr	r3, .L84
 845 03ec 1A79     		ldrb	r2, [r3, #4]	@ zero_extendqisi2
 846 03ee D2B2     		uxtb	r2, r2
 847 03f0 3F4B     		ldr	r3, .L84+4
 848 03f2 A3FB0213 		umull	r1, r3, r3, r2
 849 03f6 5B09     		lsrs	r3, r3, #5
 850 03f8 C3EB0313 		rsb	r3, r3, r3, lsl #4
 851 03fc 9B00     		lsls	r3, r3, #2
 852 03fe D31A     		subs	r3, r2, r3
1855:.\Generated_Source\PSoC5/RTC.c ****                                                 RTC_dstOffsetMin % (RTC_HOUR_ELAPSED + 1u);
 853              		.loc 1 1855 0
 854 0400 3C49     		ldr	r1, .L84+8
 855 0402 4A7A     		ldrb	r2, [r1, #9]	@ zero_extendqisi2
 856 0404 1344     		add	r3, r3, r2
 857 0406 03F0FF03 		and	r3, r3, #255
 858 040a 4B72     		strb	r3, [r1, #9]
1857:.\Generated_Source\PSoC5/RTC.c **** 
1858:.\Generated_Source\PSoC5/RTC.c ****                     if(RTC_currentTimeDate.Min > RTC_HOUR_ELAPSED)
 859              		.loc 1 1858 0
 860 040c 4B7A     		ldrb	r3, [r1, #9]	@ zero_extendqisi2
 861 040e DBB2     		uxtb	r3, r3
 862 0410 3B2B     		cmp	r3, #59
 863 0412 07D9     		bls	.L56
1859:.\Generated_Source\PSoC5/RTC.c ****                     {
1860:.\Generated_Source\PSoC5/RTC.c ****                         /* Adjust Min */
1861:.\Generated_Source\PSoC5/RTC.c ****                         RTC_currentTimeDate.Min -= (RTC_HOUR_ELAPSED + 1u);
 864              		.loc 1 1861 0
 865 0414 4B7A     		ldrb	r3, [r1, #9]	@ zero_extendqisi2
 866 0416 3C3B     		subs	r3, r3, #60
 867 0418 DBB2     		uxtb	r3, r3
 868 041a 4B72     		strb	r3, [r1, #9]
1862:.\Generated_Source\PSoC5/RTC.c ****                         RTC_currentTimeDate.Hour++;
 869              		.loc 1 1862 0
 870 041c 8B7A     		ldrb	r3, [r1, #10]	@ zero_extendqisi2
 871 041e 0133     		adds	r3, r3, #1
 872 0420 DBB2     		uxtb	r3, r3
 873 0422 8B72     		strb	r3, [r1, #10]
 874              	.L56:
1863:.\Generated_Source\PSoC5/RTC.c ****                     }
1864:.\Generated_Source\PSoC5/RTC.c **** 
1865:.\Generated_Source\PSoC5/RTC.c ****                     RTC_currentTimeDate.Hour +=
1866:.\Generated_Source\PSoC5/RTC.c ****                                                 RTC_dstOffsetMin / (RTC_HOUR_ELAPSED + 1u);
 875              		.loc 1 1866 0
 876 0424 314B     		ldr	r3, .L84
 877 0426 1B79     		ldrb	r3, [r3, #4]	@ zero_extendqisi2
 878 0428 DBB2     		uxtb	r3, r3
 879 042a 314A     		ldr	r2, .L84+4
 880 042c A2FB0332 		umull	r3, r2, r2, r3
1865:.\Generated_Source\PSoC5/RTC.c ****                                                 RTC_dstOffsetMin / (RTC_HOUR_ELAPSED + 1u);
 881              		.loc 1 1865 0
 882 0430 3049     		ldr	r1, .L84+8
 883 0432 8B7A     		ldrb	r3, [r1, #10]	@ zero_extendqisi2
 884 0434 03EB5213 		add	r3, r3, r2, lsr #5
 885 0438 DBB2     		uxtb	r3, r3
 886 043a 8B72     		strb	r3, [r1, #10]
ARM GAS  C:\Users\mark6\AppData\Local\Temp\ccQgPzp9.s 			page 50


1867:.\Generated_Source\PSoC5/RTC.c ****                     if(RTC_currentTimeDate.Hour > RTC_DAY_ELAPSED)
 887              		.loc 1 1867 0
 888 043c 8B7A     		ldrb	r3, [r1, #10]	@ zero_extendqisi2
 889 043e DBB2     		uxtb	r3, r3
 890 0440 172B     		cmp	r3, #23
 891 0442 65D9     		bls	.L57
1868:.\Generated_Source\PSoC5/RTC.c ****                     {
1869:.\Generated_Source\PSoC5/RTC.c ****                         /* Adjust hour, add day */
1870:.\Generated_Source\PSoC5/RTC.c ****                         RTC_currentTimeDate.Hour -= (RTC_DAY_ELAPSED + 1u);
 892              		.loc 1 1870 0
 893 0444 8A7A     		ldrb	r2, [r1, #10]	@ zero_extendqisi2
 894 0446 183A     		subs	r2, r2, #24
 895 0448 D2B2     		uxtb	r2, r2
 896 044a 8A72     		strb	r2, [r1, #10]
1871:.\Generated_Source\PSoC5/RTC.c ****                         RTC_currentTimeDate.DayOfMonth++;
 897              		.loc 1 1871 0
 898 044c 0A7B     		ldrb	r2, [r1, #12]	@ zero_extendqisi2
 899 044e 0132     		adds	r2, r2, #1
 900 0450 D2B2     		uxtb	r2, r2
 901 0452 0A73     		strb	r2, [r1, #12]
1872:.\Generated_Source\PSoC5/RTC.c ****                         RTC_currentTimeDate.DayOfYear++;
 902              		.loc 1 1872 0
 903 0454 CA89     		ldrh	r2, [r1, #14]
 904 0456 0132     		adds	r2, r2, #1
 905 0458 92B2     		uxth	r2, r2
 906 045a CA81     		strh	r2, [r1, #14]	@ movhi
1873:.\Generated_Source\PSoC5/RTC.c ****                         RTC_currentTimeDate.DayOfWeek++;
 907              		.loc 1 1873 0
 908 045c CA7A     		ldrb	r2, [r1, #11]	@ zero_extendqisi2
 909 045e 0132     		adds	r2, r2, #1
 910 0460 D2B2     		uxtb	r2, r2
 911 0462 CA72     		strb	r2, [r1, #11]
1874:.\Generated_Source\PSoC5/RTC.c **** 
1875:.\Generated_Source\PSoC5/RTC.c ****                         if(RTC_currentTimeDate.DayOfWeek > RTC_WEEK_ELAPSED)
 912              		.loc 1 1875 0
 913 0464 CB7A     		ldrb	r3, [r1, #11]	@ zero_extendqisi2
 914 0466 DBB2     		uxtb	r3, r3
 915 0468 072B     		cmp	r3, #7
 916 046a 01D9     		bls	.L58
1876:.\Generated_Source\PSoC5/RTC.c ****                         {
1877:.\Generated_Source\PSoC5/RTC.c ****                             RTC_currentTimeDate.DayOfWeek = 1u;
 917              		.loc 1 1877 0
 918 046c 0122     		movs	r2, #1
 919 046e CA72     		strb	r2, [r1, #11]
 920              	.L58:
1878:.\Generated_Source\PSoC5/RTC.c ****                         }
1879:.\Generated_Source\PSoC5/RTC.c **** 
1880:.\Generated_Source\PSoC5/RTC.c ****                         if(RTC_currentTimeDate.DayOfMonth >
 921              		.loc 1 1880 0
 922 0470 204A     		ldr	r2, .L84+8
 923 0472 137B     		ldrb	r3, [r2, #12]	@ zero_extendqisi2
 924 0474 DBB2     		uxtb	r3, r3
1881:.\Generated_Source\PSoC5/RTC.c ****                                             RTC_daysInMonths[RTC_currentTimeDate.Month - 1u])
 925              		.loc 1 1881 0
 926 0476 117C     		ldrb	r1, [r2, #16]	@ zero_extendqisi2
 927 0478 1F4A     		ldr	r2, .L84+12
 928 047a 0A44     		add	r2, r2, r1
ARM GAS  C:\Users\mark6\AppData\Local\Temp\ccQgPzp9.s 			page 51


 929 047c 127B     		ldrb	r2, [r2, #12]	@ zero_extendqisi2
1880:.\Generated_Source\PSoC5/RTC.c ****                                             RTC_daysInMonths[RTC_currentTimeDate.Month - 1u])
 930              		.loc 1 1880 0
 931 047e 9342     		cmp	r3, r2
 932 0480 46D9     		bls	.L57
1882:.\Generated_Source\PSoC5/RTC.c ****                         {
1883:.\Generated_Source\PSoC5/RTC.c ****                             RTC_currentTimeDate.Month++;
 933              		.loc 1 1883 0
 934 0482 1C4A     		ldr	r2, .L84+8
 935 0484 137C     		ldrb	r3, [r2, #16]	@ zero_extendqisi2
 936 0486 0133     		adds	r3, r3, #1
 937 0488 DBB2     		uxtb	r3, r3
 938 048a 1374     		strb	r3, [r2, #16]
1884:.\Generated_Source\PSoC5/RTC.c ****                             RTC_currentTimeDate.DayOfMonth = 1u;
 939              		.loc 1 1884 0
 940 048c 0123     		movs	r3, #1
 941 048e 1373     		strb	r3, [r2, #12]
1885:.\Generated_Source\PSoC5/RTC.c **** 
1886:.\Generated_Source\PSoC5/RTC.c ****                             /* Has new year come? */
1887:.\Generated_Source\PSoC5/RTC.c ****                             if(RTC_currentTimeDate.Month > RTC_YEAR_ELAPSED)
 942              		.loc 1 1887 0
 943 0490 137C     		ldrb	r3, [r2, #16]	@ zero_extendqisi2
 944 0492 DBB2     		uxtb	r3, r3
 945 0494 0C2B     		cmp	r3, #12
 946 0496 3BD9     		bls	.L57
1888:.\Generated_Source\PSoC5/RTC.c ****                             {
1889:.\Generated_Source\PSoC5/RTC.c ****                                 /* Set first month of the year */
1890:.\Generated_Source\PSoC5/RTC.c ****                                 RTC_currentTimeDate.Month = RTC_JANUARY;
 947              		.loc 1 1890 0
 948 0498 0123     		movs	r3, #1
 949 049a 1374     		strb	r3, [r2, #16]
1891:.\Generated_Source\PSoC5/RTC.c **** 
1892:.\Generated_Source\PSoC5/RTC.c ****                                 /* Increment year */
1893:.\Generated_Source\PSoC5/RTC.c ****                                 RTC_currentTimeDate.Year++;
 950              		.loc 1 1893 0
 951 049c 538A     		ldrh	r3, [r2, #18]
 952 049e 0133     		adds	r3, r3, #1
 953 04a0 9BB2     		uxth	r3, r3
 954 04a2 5382     		strh	r3, [r2, #18]	@ movhi
1894:.\Generated_Source\PSoC5/RTC.c **** 
1895:.\Generated_Source\PSoC5/RTC.c ****                                 /* Update leap year status */
1896:.\Generated_Source\PSoC5/RTC.c ****                                 if(1u == RTC_LEAP_YEAR(RTC_currentTimeDate.Year))
 955              		.loc 1 1896 0
 956 04a4 538A     		ldrh	r3, [r2, #18]
 957 04a6 9BB2     		uxth	r3, r3
 958 04a8 144A     		ldr	r2, .L84+16
 959 04aa A2FB0312 		umull	r1, r2, r2, r3
 960 04ae D209     		lsrs	r2, r2, #7
 961 04b0 4FF4C871 		mov	r1, #400
 962 04b4 01FB1233 		mls	r3, r1, r2, r3
 963 04b8 9BB2     		uxth	r3, r3
 964 04ba 83B1     		cbz	r3, .L59
 965              		.loc 1 1896 0 is_stmt 0 discriminator 1
 966 04bc 0D4B     		ldr	r3, .L84+8
 967 04be 5B8A     		ldrh	r3, [r3, #18]
 968 04c0 13F0030F 		tst	r3, #3
 969 04c4 1CD1     		bne	.L60
ARM GAS  C:\Users\mark6\AppData\Local\Temp\ccQgPzp9.s 			page 52


 970              		.loc 1 1896 0 discriminator 2
 971 04c6 0B4B     		ldr	r3, .L84+8
 972 04c8 5B8A     		ldrh	r3, [r3, #18]
 973 04ca 9BB2     		uxth	r3, r3
 974 04cc 0B4A     		ldr	r2, .L84+16
 975 04ce A2FB0312 		umull	r1, r2, r2, r3
 976 04d2 5209     		lsrs	r2, r2, #5
 977 04d4 6421     		movs	r1, #100
 978 04d6 01FB1233 		mls	r3, r1, r2, r3
 979 04da 9BB2     		uxth	r3, r3
 980 04dc 83B1     		cbz	r3, .L60
 981              	.L59:
1897:.\Generated_Source\PSoC5/RTC.c ****                                 {
1898:.\Generated_Source\PSoC5/RTC.c ****                                     /* LP - true, else - false */
1899:.\Generated_Source\PSoC5/RTC.c ****                                     RTC_statusDateTime |= RTC_STATUS_LY;
 982              		.loc 1 1899 0 is_stmt 1
 983 04de 034A     		ldr	r2, .L84
 984 04e0 1378     		ldrb	r3, [r2]	@ zero_extendqisi2
 985 04e2 43F00203 		orr	r3, r3, #2
 986 04e6 1370     		strb	r3, [r2]
 987 04e8 0FE0     		b	.L61
 988              	.L85:
 989 04ea 00BF     		.align	2
 990              	.L84:
 991 04ec 00000000 		.word	.LANCHOR2
 992 04f0 89888888 		.word	-2004318071
 993 04f4 00000000 		.word	.LANCHOR1
 994 04f8 FFFFFFFF 		.word	.LANCHOR0-1
 995 04fc 1F85EB51 		.word	1374389535
 996              	.L60:
1900:.\Generated_Source\PSoC5/RTC.c ****                                 }
1901:.\Generated_Source\PSoC5/RTC.c ****                                 else
1902:.\Generated_Source\PSoC5/RTC.c ****                                 {
1903:.\Generated_Source\PSoC5/RTC.c ****                                     RTC_statusDateTime &= (uint8)(~RTC_STATUS_LY);
 997              		.loc 1 1903 0
 998 0500 724A     		ldr	r2, .L86
 999 0502 1378     		ldrb	r3, [r2]	@ zero_extendqisi2
 1000 0504 03F0FD03 		and	r3, r3, #253
 1001 0508 1370     		strb	r3, [r2]
 1002              	.L61:
1904:.\Generated_Source\PSoC5/RTC.c ****                                 }
1905:.\Generated_Source\PSoC5/RTC.c **** 
1906:.\Generated_Source\PSoC5/RTC.c ****                                 /* Set day of year to the first one */
1907:.\Generated_Source\PSoC5/RTC.c ****                                 RTC_currentTimeDate.DayOfYear = 1u;
 1003              		.loc 1 1907 0
 1004 050a 0122     		movs	r2, #1
 1005 050c 704B     		ldr	r3, .L86+4
 1006 050e DA81     		strh	r2, [r3, #14]	@ movhi
 1007              	.L57:
1908:.\Generated_Source\PSoC5/RTC.c ****                             }
1909:.\Generated_Source\PSoC5/RTC.c ****                         }
1910:.\Generated_Source\PSoC5/RTC.c ****                     }
1911:.\Generated_Source\PSoC5/RTC.c ****                     RTC_statusDateTime |= RTC_STATUS_DST;
 1008              		.loc 1 1911 0
 1009 0510 6E4B     		ldr	r3, .L86
 1010 0512 1A78     		ldrb	r2, [r3]	@ zero_extendqisi2
 1011 0514 42F00102 		orr	r2, r2, #1
ARM GAS  C:\Users\mark6\AppData\Local\Temp\ccQgPzp9.s 			page 53


 1012 0518 1A70     		strb	r2, [r3]
1912:.\Generated_Source\PSoC5/RTC.c ****                     RTC_dstStartStatus = 0u;
 1013              		.loc 1 1912 0
 1014 051a 0022     		movs	r2, #0
 1015 051c 9A70     		strb	r2, [r3, #2]
 1016              	.L48:
1913:.\Generated_Source\PSoC5/RTC.c ****                 }
1914:.\Generated_Source\PSoC5/RTC.c ****             }
1915:.\Generated_Source\PSoC5/RTC.c ****         }
1916:.\Generated_Source\PSoC5/RTC.c ****     #endif /* 1u == RTC_DST_FUNC_ENABLE */
1917:.\Generated_Source\PSoC5/RTC.c **** 
1918:.\Generated_Source\PSoC5/RTC.c ****     /* Set AM/PM flag */
1919:.\Generated_Source\PSoC5/RTC.c ****     if(RTC_currentTimeDate.Hour < RTC_HALF_OF_DAY_ELAPSED)
 1017              		.loc 1 1919 0
 1018 051e 6C4B     		ldr	r3, .L86+4
 1019 0520 9B7A     		ldrb	r3, [r3, #10]	@ zero_extendqisi2
 1020 0522 DBB2     		uxtb	r3, r3
 1021 0524 0B2B     		cmp	r3, #11
 1022 0526 05D8     		bhi	.L62
1920:.\Generated_Source\PSoC5/RTC.c ****     {
1921:.\Generated_Source\PSoC5/RTC.c ****         /* AM Hour 00:00-11:59, flag zero */
1922:.\Generated_Source\PSoC5/RTC.c ****         RTC_statusDateTime &= (uint8)(~RTC_STATUS_AM_PM);
 1023              		.loc 1 1922 0
 1024 0528 684A     		ldr	r2, .L86
 1025 052a 1378     		ldrb	r3, [r2]	@ zero_extendqisi2
 1026 052c 03F0FB03 		and	r3, r3, #251
 1027 0530 1370     		strb	r3, [r2]
 1028 0532 04E0     		b	.L63
 1029              	.L62:
1923:.\Generated_Source\PSoC5/RTC.c ****     }
1924:.\Generated_Source\PSoC5/RTC.c ****     else
1925:.\Generated_Source\PSoC5/RTC.c ****     {
1926:.\Generated_Source\PSoC5/RTC.c ****         /* PM Hour 12:00 - 23:59, flag set */
1927:.\Generated_Source\PSoC5/RTC.c ****         RTC_statusDateTime |= RTC_STATUS_AM_PM;
 1030              		.loc 1 1927 0
 1031 0534 654A     		ldr	r2, .L86
 1032 0536 1378     		ldrb	r3, [r2]	@ zero_extendqisi2
 1033 0538 43F00403 		orr	r3, r3, #4
 1034 053c 1370     		strb	r3, [r2]
 1035              	.L63:
1928:.\Generated_Source\PSoC5/RTC.c ****     }
1929:.\Generated_Source\PSoC5/RTC.c **** 
1930:.\Generated_Source\PSoC5/RTC.c ****     /* Alarm calculation */
1931:.\Generated_Source\PSoC5/RTC.c **** 
1932:.\Generated_Source\PSoC5/RTC.c ****     /* Alarm SEC */
1933:.\Generated_Source\PSoC5/RTC.c ****     if(0u != RTC_IS_BIT_SET(RTC_alarmCfgMask, RTC_ALARM_SEC_MASK))
 1036              		.loc 1 1933 0
 1037 053e 634B     		ldr	r3, .L86
 1038 0540 5B79     		ldrb	r3, [r3, #5]	@ zero_extendqisi2
 1039 0542 13F0010F 		tst	r3, #1
 1040 0546 10D0     		beq	.L64
1934:.\Generated_Source\PSoC5/RTC.c ****     {
1935:.\Generated_Source\PSoC5/RTC.c ****         if(RTC_alarmCfgTimeDate.Sec == RTC_currentTimeDate.Sec)
 1041              		.loc 1 1935 0
 1042 0548 614A     		ldr	r2, .L86+4
 1043 054a 137F     		ldrb	r3, [r2, #28]	@ zero_extendqisi2
 1044 054c 127A     		ldrb	r2, [r2, #8]	@ zero_extendqisi2
ARM GAS  C:\Users\mark6\AppData\Local\Temp\ccQgPzp9.s 			page 54


 1045 054e DBB2     		uxtb	r3, r3
 1046 0550 9342     		cmp	r3, r2
 1047 0552 05D1     		bne	.L65
1936:.\Generated_Source\PSoC5/RTC.c ****         {
1937:.\Generated_Source\PSoC5/RTC.c ****             /* Set second alarm */
1938:.\Generated_Source\PSoC5/RTC.c ****             RTC_alarmCurStatus |= RTC_ALARM_SEC_MASK;
 1048              		.loc 1 1938 0
 1049 0554 5D4A     		ldr	r2, .L86
 1050 0556 9379     		ldrb	r3, [r2, #6]	@ zero_extendqisi2
 1051 0558 43F00103 		orr	r3, r3, #1
 1052 055c 9371     		strb	r3, [r2, #6]
 1053 055e 04E0     		b	.L64
 1054              	.L65:
1939:.\Generated_Source\PSoC5/RTC.c ****         }
1940:.\Generated_Source\PSoC5/RTC.c ****         else
1941:.\Generated_Source\PSoC5/RTC.c ****         {
1942:.\Generated_Source\PSoC5/RTC.c ****             /* Clear second alarm */
1943:.\Generated_Source\PSoC5/RTC.c ****             RTC_alarmCurStatus &= (uint8)(~RTC_ALARM_SEC_MASK);
 1055              		.loc 1 1943 0
 1056 0560 5A4A     		ldr	r2, .L86
 1057 0562 9379     		ldrb	r3, [r2, #6]	@ zero_extendqisi2
 1058 0564 03F0FE03 		and	r3, r3, #254
 1059 0568 9371     		strb	r3, [r2, #6]
 1060              	.L64:
1944:.\Generated_Source\PSoC5/RTC.c ****         }
1945:.\Generated_Source\PSoC5/RTC.c ****     }
1946:.\Generated_Source\PSoC5/RTC.c **** 
1947:.\Generated_Source\PSoC5/RTC.c ****     /* Alarm MIN */
1948:.\Generated_Source\PSoC5/RTC.c ****     if(0u != RTC_IS_BIT_SET(RTC_alarmCfgMask, RTC_ALARM_MIN_MASK))
 1061              		.loc 1 1948 0
 1062 056a 584B     		ldr	r3, .L86
 1063 056c 5B79     		ldrb	r3, [r3, #5]	@ zero_extendqisi2
 1064 056e 13F0020F 		tst	r3, #2
 1065 0572 10D0     		beq	.L66
1949:.\Generated_Source\PSoC5/RTC.c ****     {
1950:.\Generated_Source\PSoC5/RTC.c ****         if(RTC_alarmCfgTimeDate.Min == RTC_currentTimeDate.Min)
 1066              		.loc 1 1950 0
 1067 0574 564A     		ldr	r2, .L86+4
 1068 0576 537F     		ldrb	r3, [r2, #29]	@ zero_extendqisi2
 1069 0578 527A     		ldrb	r2, [r2, #9]	@ zero_extendqisi2
 1070 057a DBB2     		uxtb	r3, r3
 1071 057c 9342     		cmp	r3, r2
 1072 057e 05D1     		bne	.L67
1951:.\Generated_Source\PSoC5/RTC.c ****         {
1952:.\Generated_Source\PSoC5/RTC.c ****             /* Set minute alarm */
1953:.\Generated_Source\PSoC5/RTC.c ****             RTC_alarmCurStatus |= RTC_ALARM_MIN_MASK;
 1073              		.loc 1 1953 0
 1074 0580 524A     		ldr	r2, .L86
 1075 0582 9379     		ldrb	r3, [r2, #6]	@ zero_extendqisi2
 1076 0584 43F00203 		orr	r3, r3, #2
 1077 0588 9371     		strb	r3, [r2, #6]
 1078 058a 04E0     		b	.L66
 1079              	.L67:
1954:.\Generated_Source\PSoC5/RTC.c ****         }
1955:.\Generated_Source\PSoC5/RTC.c ****         else
1956:.\Generated_Source\PSoC5/RTC.c ****         {
1957:.\Generated_Source\PSoC5/RTC.c ****             /* Clear minute alarm */
ARM GAS  C:\Users\mark6\AppData\Local\Temp\ccQgPzp9.s 			page 55


1958:.\Generated_Source\PSoC5/RTC.c ****             RTC_alarmCurStatus &= (uint8)(~RTC_ALARM_MIN_MASK);
 1080              		.loc 1 1958 0
 1081 058c 4F4A     		ldr	r2, .L86
 1082 058e 9379     		ldrb	r3, [r2, #6]	@ zero_extendqisi2
 1083 0590 03F0FD03 		and	r3, r3, #253
 1084 0594 9371     		strb	r3, [r2, #6]
 1085              	.L66:
1959:.\Generated_Source\PSoC5/RTC.c ****         }
1960:.\Generated_Source\PSoC5/RTC.c ****     }
1961:.\Generated_Source\PSoC5/RTC.c **** 
1962:.\Generated_Source\PSoC5/RTC.c ****     /* Alarm HOUR */
1963:.\Generated_Source\PSoC5/RTC.c ****     if(0u != RTC_IS_BIT_SET(RTC_alarmCfgMask, RTC_ALARM_HOUR_MASK))
 1086              		.loc 1 1963 0
 1087 0596 4D4B     		ldr	r3, .L86
 1088 0598 5B79     		ldrb	r3, [r3, #5]	@ zero_extendqisi2
 1089 059a 13F0040F 		tst	r3, #4
 1090 059e 10D0     		beq	.L68
1964:.\Generated_Source\PSoC5/RTC.c ****     {
1965:.\Generated_Source\PSoC5/RTC.c ****         if(RTC_alarmCfgTimeDate.Hour == RTC_currentTimeDate.Hour)
 1091              		.loc 1 1965 0
 1092 05a0 4B4A     		ldr	r2, .L86+4
 1093 05a2 937F     		ldrb	r3, [r2, #30]	@ zero_extendqisi2
 1094 05a4 927A     		ldrb	r2, [r2, #10]	@ zero_extendqisi2
 1095 05a6 DBB2     		uxtb	r3, r3
 1096 05a8 9342     		cmp	r3, r2
 1097 05aa 05D1     		bne	.L69
1966:.\Generated_Source\PSoC5/RTC.c ****         {
1967:.\Generated_Source\PSoC5/RTC.c ****             /* Set hour alarm */
1968:.\Generated_Source\PSoC5/RTC.c ****             RTC_alarmCurStatus |= RTC_ALARM_HOUR_MASK;
 1098              		.loc 1 1968 0
 1099 05ac 474A     		ldr	r2, .L86
 1100 05ae 9379     		ldrb	r3, [r2, #6]	@ zero_extendqisi2
 1101 05b0 43F00403 		orr	r3, r3, #4
 1102 05b4 9371     		strb	r3, [r2, #6]
 1103 05b6 04E0     		b	.L68
 1104              	.L69:
1969:.\Generated_Source\PSoC5/RTC.c ****         }
1970:.\Generated_Source\PSoC5/RTC.c ****         else
1971:.\Generated_Source\PSoC5/RTC.c ****         {
1972:.\Generated_Source\PSoC5/RTC.c ****             /* Clear hour alarm */
1973:.\Generated_Source\PSoC5/RTC.c ****             RTC_alarmCurStatus &= (uint8)(~RTC_ALARM_HOUR_MASK);
 1105              		.loc 1 1973 0
 1106 05b8 444A     		ldr	r2, .L86
 1107 05ba 9379     		ldrb	r3, [r2, #6]	@ zero_extendqisi2
 1108 05bc 03F0FB03 		and	r3, r3, #251
 1109 05c0 9371     		strb	r3, [r2, #6]
 1110              	.L68:
1974:.\Generated_Source\PSoC5/RTC.c ****         }
1975:.\Generated_Source\PSoC5/RTC.c ****     }
1976:.\Generated_Source\PSoC5/RTC.c **** 
1977:.\Generated_Source\PSoC5/RTC.c ****     /* Alarm DAYOFWEEK */
1978:.\Generated_Source\PSoC5/RTC.c ****     if(0u != RTC_IS_BIT_SET(RTC_alarmCfgMask, RTC_ALARM_DAYOFWEEK_MASK))
 1111              		.loc 1 1978 0
 1112 05c2 424B     		ldr	r3, .L86
 1113 05c4 5B79     		ldrb	r3, [r3, #5]	@ zero_extendqisi2
 1114 05c6 13F0080F 		tst	r3, #8
 1115 05ca 10D0     		beq	.L70
ARM GAS  C:\Users\mark6\AppData\Local\Temp\ccQgPzp9.s 			page 56


1979:.\Generated_Source\PSoC5/RTC.c ****     {
1980:.\Generated_Source\PSoC5/RTC.c ****         if(RTC_alarmCfgTimeDate.DayOfWeek == RTC_currentTimeDate.DayOfWeek)
 1116              		.loc 1 1980 0
 1117 05cc 404A     		ldr	r2, .L86+4
 1118 05ce D37F     		ldrb	r3, [r2, #31]	@ zero_extendqisi2
 1119 05d0 D27A     		ldrb	r2, [r2, #11]	@ zero_extendqisi2
 1120 05d2 DBB2     		uxtb	r3, r3
 1121 05d4 9342     		cmp	r3, r2
 1122 05d6 05D1     		bne	.L71
1981:.\Generated_Source\PSoC5/RTC.c ****         {
1982:.\Generated_Source\PSoC5/RTC.c ****             /* Set day of week alarm */
1983:.\Generated_Source\PSoC5/RTC.c ****             RTC_alarmCurStatus |= RTC_ALARM_DAYOFWEEK_MASK;
 1123              		.loc 1 1983 0
 1124 05d8 3C4A     		ldr	r2, .L86
 1125 05da 9379     		ldrb	r3, [r2, #6]	@ zero_extendqisi2
 1126 05dc 43F00803 		orr	r3, r3, #8
 1127 05e0 9371     		strb	r3, [r2, #6]
 1128 05e2 04E0     		b	.L70
 1129              	.L71:
1984:.\Generated_Source\PSoC5/RTC.c ****         }
1985:.\Generated_Source\PSoC5/RTC.c ****         else
1986:.\Generated_Source\PSoC5/RTC.c ****         {
1987:.\Generated_Source\PSoC5/RTC.c ****             /* Clear day of week alarm */
1988:.\Generated_Source\PSoC5/RTC.c ****             RTC_alarmCurStatus &= (uint8)(~RTC_ALARM_DAYOFWEEK_MASK);
 1130              		.loc 1 1988 0
 1131 05e4 394A     		ldr	r2, .L86
 1132 05e6 9379     		ldrb	r3, [r2, #6]	@ zero_extendqisi2
 1133 05e8 03F0F703 		and	r3, r3, #247
 1134 05ec 9371     		strb	r3, [r2, #6]
 1135              	.L70:
1989:.\Generated_Source\PSoC5/RTC.c ****         }
1990:.\Generated_Source\PSoC5/RTC.c ****     }
1991:.\Generated_Source\PSoC5/RTC.c **** 
1992:.\Generated_Source\PSoC5/RTC.c ****     /* Alarm DAYOFYEAR */
1993:.\Generated_Source\PSoC5/RTC.c ****     if(0u != RTC_IS_BIT_SET(RTC_alarmCfgMask, RTC_ALARM_DAYOFYEAR_MASK))
 1136              		.loc 1 1993 0
 1137 05ee 374B     		ldr	r3, .L86
 1138 05f0 5B79     		ldrb	r3, [r3, #5]	@ zero_extendqisi2
 1139 05f2 13F0200F 		tst	r3, #32
 1140 05f6 11D0     		beq	.L72
1994:.\Generated_Source\PSoC5/RTC.c ****     {
1995:.\Generated_Source\PSoC5/RTC.c ****         if(RTC_alarmCfgTimeDate.DayOfYear == RTC_currentTimeDate.DayOfYear)
 1141              		.loc 1 1995 0
 1142 05f8 354B     		ldr	r3, .L86+4
 1143 05fa 5A8C     		ldrh	r2, [r3, #34]
 1144 05fc 92B2     		uxth	r2, r2
 1145 05fe DB89     		ldrh	r3, [r3, #14]
 1146 0600 9BB2     		uxth	r3, r3
 1147 0602 9A42     		cmp	r2, r3
 1148 0604 05D1     		bne	.L73
1996:.\Generated_Source\PSoC5/RTC.c ****         {
1997:.\Generated_Source\PSoC5/RTC.c ****             /* Set day of year alarm */
1998:.\Generated_Source\PSoC5/RTC.c ****             RTC_alarmCurStatus |= RTC_ALARM_DAYOFYEAR_MASK;
 1149              		.loc 1 1998 0
 1150 0606 314A     		ldr	r2, .L86
 1151 0608 9379     		ldrb	r3, [r2, #6]	@ zero_extendqisi2
 1152 060a 43F02003 		orr	r3, r3, #32
ARM GAS  C:\Users\mark6\AppData\Local\Temp\ccQgPzp9.s 			page 57


 1153 060e 9371     		strb	r3, [r2, #6]
 1154 0610 04E0     		b	.L72
 1155              	.L73:
1999:.\Generated_Source\PSoC5/RTC.c ****         }
2000:.\Generated_Source\PSoC5/RTC.c ****         else
2001:.\Generated_Source\PSoC5/RTC.c ****         {
2002:.\Generated_Source\PSoC5/RTC.c ****             /* Clear day of year alarm */
2003:.\Generated_Source\PSoC5/RTC.c ****             RTC_alarmCurStatus &= (uint8)(~RTC_ALARM_DAYOFYEAR_MASK);
 1156              		.loc 1 2003 0
 1157 0612 2E4A     		ldr	r2, .L86
 1158 0614 9379     		ldrb	r3, [r2, #6]	@ zero_extendqisi2
 1159 0616 03F0DF03 		and	r3, r3, #223
 1160 061a 9371     		strb	r3, [r2, #6]
 1161              	.L72:
2004:.\Generated_Source\PSoC5/RTC.c ****         }
2005:.\Generated_Source\PSoC5/RTC.c ****     }
2006:.\Generated_Source\PSoC5/RTC.c **** 
2007:.\Generated_Source\PSoC5/RTC.c ****     /* Alarm DAYOFMONTH */
2008:.\Generated_Source\PSoC5/RTC.c ****     if(0u != RTC_IS_BIT_SET(RTC_alarmCfgMask, RTC_ALARM_DAYOFMONTH_MASK))
 1162              		.loc 1 2008 0
 1163 061c 2B4B     		ldr	r3, .L86
 1164 061e 5B79     		ldrb	r3, [r3, #5]	@ zero_extendqisi2
 1165 0620 13F0100F 		tst	r3, #16
 1166 0624 11D0     		beq	.L74
2009:.\Generated_Source\PSoC5/RTC.c ****     {
2010:.\Generated_Source\PSoC5/RTC.c ****         if(RTC_alarmCfgTimeDate.DayOfMonth == RTC_currentTimeDate.DayOfMonth)
 1167              		.loc 1 2010 0
 1168 0626 2A4A     		ldr	r2, .L86+4
 1169 0628 92F82030 		ldrb	r3, [r2, #32]	@ zero_extendqisi2
 1170 062c 127B     		ldrb	r2, [r2, #12]	@ zero_extendqisi2
 1171 062e DBB2     		uxtb	r3, r3
 1172 0630 9342     		cmp	r3, r2
 1173 0632 05D1     		bne	.L75
2011:.\Generated_Source\PSoC5/RTC.c ****         {
2012:.\Generated_Source\PSoC5/RTC.c ****             /* Set day of month alarm */
2013:.\Generated_Source\PSoC5/RTC.c ****             RTC_alarmCurStatus |= RTC_ALARM_DAYOFMONTH_MASK;
 1174              		.loc 1 2013 0
 1175 0634 254A     		ldr	r2, .L86
 1176 0636 9379     		ldrb	r3, [r2, #6]	@ zero_extendqisi2
 1177 0638 43F01003 		orr	r3, r3, #16
 1178 063c 9371     		strb	r3, [r2, #6]
 1179 063e 04E0     		b	.L74
 1180              	.L75:
2014:.\Generated_Source\PSoC5/RTC.c ****         }
2015:.\Generated_Source\PSoC5/RTC.c ****            else
2016:.\Generated_Source\PSoC5/RTC.c ****         {
2017:.\Generated_Source\PSoC5/RTC.c ****             /* Clear day of month alarm */
2018:.\Generated_Source\PSoC5/RTC.c ****             RTC_alarmCurStatus &= (uint8)(~RTC_ALARM_DAYOFMONTH_MASK);
 1181              		.loc 1 2018 0
 1182 0640 224A     		ldr	r2, .L86
 1183 0642 9379     		ldrb	r3, [r2, #6]	@ zero_extendqisi2
 1184 0644 03F0EF03 		and	r3, r3, #239
 1185 0648 9371     		strb	r3, [r2, #6]
 1186              	.L74:
2019:.\Generated_Source\PSoC5/RTC.c ****         }
2020:.\Generated_Source\PSoC5/RTC.c ****     }
2021:.\Generated_Source\PSoC5/RTC.c **** 
ARM GAS  C:\Users\mark6\AppData\Local\Temp\ccQgPzp9.s 			page 58


2022:.\Generated_Source\PSoC5/RTC.c ****     /* Alarm MONTH */
2023:.\Generated_Source\PSoC5/RTC.c ****     if(0u != RTC_IS_BIT_SET(RTC_alarmCfgMask, RTC_ALARM_MONTH_MASK))
 1187              		.loc 1 2023 0
 1188 064a 204B     		ldr	r3, .L86
 1189 064c 5B79     		ldrb	r3, [r3, #5]	@ zero_extendqisi2
 1190 064e 13F0400F 		tst	r3, #64
 1191 0652 11D0     		beq	.L76
2024:.\Generated_Source\PSoC5/RTC.c ****     {
2025:.\Generated_Source\PSoC5/RTC.c ****         if(RTC_alarmCfgTimeDate.Month == RTC_currentTimeDate.Month)
 1192              		.loc 1 2025 0
 1193 0654 1E4A     		ldr	r2, .L86+4
 1194 0656 92F82430 		ldrb	r3, [r2, #36]	@ zero_extendqisi2
 1195 065a 127C     		ldrb	r2, [r2, #16]	@ zero_extendqisi2
 1196 065c DBB2     		uxtb	r3, r3
 1197 065e 9342     		cmp	r3, r2
 1198 0660 05D1     		bne	.L77
2026:.\Generated_Source\PSoC5/RTC.c ****         {
2027:.\Generated_Source\PSoC5/RTC.c ****             /* Set month alarm */
2028:.\Generated_Source\PSoC5/RTC.c ****             RTC_alarmCurStatus |= RTC_ALARM_MONTH_MASK;
 1199              		.loc 1 2028 0
 1200 0662 1A4A     		ldr	r2, .L86
 1201 0664 9379     		ldrb	r3, [r2, #6]	@ zero_extendqisi2
 1202 0666 43F04003 		orr	r3, r3, #64
 1203 066a 9371     		strb	r3, [r2, #6]
 1204 066c 04E0     		b	.L76
 1205              	.L77:
2029:.\Generated_Source\PSoC5/RTC.c ****         }
2030:.\Generated_Source\PSoC5/RTC.c ****         else
2031:.\Generated_Source\PSoC5/RTC.c ****         {
2032:.\Generated_Source\PSoC5/RTC.c ****             /* Clear month alarm */
2033:.\Generated_Source\PSoC5/RTC.c ****             RTC_alarmCurStatus &= (uint8)(~RTC_ALARM_MONTH_MASK);
 1206              		.loc 1 2033 0
 1207 066e 174A     		ldr	r2, .L86
 1208 0670 9379     		ldrb	r3, [r2, #6]	@ zero_extendqisi2
 1209 0672 03F0BF03 		and	r3, r3, #191
 1210 0676 9371     		strb	r3, [r2, #6]
 1211              	.L76:
2034:.\Generated_Source\PSoC5/RTC.c ****         }
2035:.\Generated_Source\PSoC5/RTC.c ****     }
2036:.\Generated_Source\PSoC5/RTC.c **** 
2037:.\Generated_Source\PSoC5/RTC.c ****     /* Alarm YEAR */
2038:.\Generated_Source\PSoC5/RTC.c ****     if(0u != RTC_IS_BIT_SET(RTC_alarmCfgMask, RTC_ALARM_YEAR_MASK))
 1212              		.loc 1 2038 0
 1213 0678 144B     		ldr	r3, .L86
 1214 067a 5B79     		ldrb	r3, [r3, #5]	@ zero_extendqisi2
 1215 067c 13F0800F 		tst	r3, #128
 1216 0680 11D0     		beq	.L78
2039:.\Generated_Source\PSoC5/RTC.c ****     {
2040:.\Generated_Source\PSoC5/RTC.c ****         if(RTC_alarmCfgTimeDate.Year == RTC_currentTimeDate.Year)
 1217              		.loc 1 2040 0
 1218 0682 134B     		ldr	r3, .L86+4
 1219 0684 DA8C     		ldrh	r2, [r3, #38]
 1220 0686 92B2     		uxth	r2, r2
 1221 0688 5B8A     		ldrh	r3, [r3, #18]
 1222 068a 9BB2     		uxth	r3, r3
 1223 068c 9A42     		cmp	r2, r3
 1224 068e 05D1     		bne	.L79
ARM GAS  C:\Users\mark6\AppData\Local\Temp\ccQgPzp9.s 			page 59


2041:.\Generated_Source\PSoC5/RTC.c ****         {
2042:.\Generated_Source\PSoC5/RTC.c ****             /* Set year alarm */
2043:.\Generated_Source\PSoC5/RTC.c ****             RTC_alarmCurStatus |= RTC_ALARM_YEAR_MASK;
 1225              		.loc 1 2043 0
 1226 0690 0E4A     		ldr	r2, .L86
 1227 0692 9379     		ldrb	r3, [r2, #6]	@ zero_extendqisi2
 1228 0694 43F08003 		orr	r3, r3, #128
 1229 0698 9371     		strb	r3, [r2, #6]
 1230 069a 04E0     		b	.L78
 1231              	.L79:
2044:.\Generated_Source\PSoC5/RTC.c ****         }
2045:.\Generated_Source\PSoC5/RTC.c ****         else
2046:.\Generated_Source\PSoC5/RTC.c ****         {
2047:.\Generated_Source\PSoC5/RTC.c ****             /* Clear year alarm */
2048:.\Generated_Source\PSoC5/RTC.c ****             RTC_alarmCurStatus &= (uint8)(~RTC_ALARM_YEAR_MASK);
 1232              		.loc 1 2048 0
 1233 069c 0B4A     		ldr	r2, .L86
 1234 069e 9379     		ldrb	r3, [r2, #6]	@ zero_extendqisi2
 1235 06a0 03F07F03 		and	r3, r3, #127
 1236 06a4 9371     		strb	r3, [r2, #6]
 1237              	.L78:
2049:.\Generated_Source\PSoC5/RTC.c ****         }
2050:.\Generated_Source\PSoC5/RTC.c ****     }
2051:.\Generated_Source\PSoC5/RTC.c **** 
2052:.\Generated_Source\PSoC5/RTC.c ****     RTC_alarmCfgMaskTemp = RTC_alarmCfgMask;
 1238              		.loc 1 2052 0
 1239 06a6 094B     		ldr	r3, .L86
 1240 06a8 5B79     		ldrb	r3, [r3, #5]	@ zero_extendqisi2
 1241              	.LVL48:
2053:.\Generated_Source\PSoC5/RTC.c ****     /* Set Alarm flag event */
2054:.\Generated_Source\PSoC5/RTC.c ****     RTC_SET_ALARM(RTC_alarmCfgMaskTemp,
 1242              		.loc 1 2054 0
 1243 06aa 03F0FF02 		and	r2, r3, #255
 1244 06ae 5BB1     		cbz	r3, .L20
 1245              		.loc 1 2054 0 is_stmt 0 discriminator 1
 1246 06b0 064B     		ldr	r3, .L86
 1247              	.LVL49:
 1248 06b2 9B79     		ldrb	r3, [r3, #6]	@ zero_extendqisi2
 1249 06b4 1340     		ands	r3, r3, r2
 1250 06b6 9342     		cmp	r3, r2
 1251 06b8 06D1     		bne	.L20
 1252              		.loc 1 2054 0 discriminator 2
 1253 06ba 044B     		ldr	r3, .L86
 1254 06bc 1A78     		ldrb	r2, [r3]	@ zero_extendqisi2
 1255 06be 42F00802 		orr	r2, r2, #8
 1256 06c2 1A70     		strb	r2, [r3]
 1257 06c4 0022     		movs	r2, #0
 1258 06c6 9A71     		strb	r2, [r3, #6]
 1259              	.L20:
 1260 06c8 10BD     		pop	{r4, pc}
 1261              	.L87:
 1262 06ca 00BF     		.align	2
 1263              	.L86:
 1264 06cc 00000000 		.word	.LANCHOR2
 1265 06d0 00000000 		.word	.LANCHOR1
 1266              		.cfi_endproc
 1267              	.LFE41:
ARM GAS  C:\Users\mark6\AppData\Local\Temp\ccQgPzp9.s 			page 60


 1268              		.size	RTC_SetInitValues, .-RTC_SetInitValues
 1269              		.section	.text.RTC_Stop,"ax",%progbits
 1270              		.align	2
 1271              		.global	RTC_Stop
 1272              		.thumb
 1273              		.thumb_func
 1274              		.type	RTC_Stop, %function
 1275              	RTC_Stop:
 1276              	.LFB1:
 164:.\Generated_Source\PSoC5/RTC.c ****     uint8 interruptState;
 1277              		.loc 1 164 0 is_stmt 1
 1278              		.cfi_startproc
 1279              		@ args = 0, pretend = 0, frame = 0
 1280              		@ frame_needed = 0, uses_anonymous_args = 0
 1281 0000 08B5     		push	{r3, lr}
 1282              		.cfi_def_cfa_offset 8
 1283              		.cfi_offset 3, -8
 1284              		.cfi_offset 14, -4
 168:.\Generated_Source\PSoC5/RTC.c **** 
 1285              		.loc 1 168 0
 1286 0002 1022     		movs	r2, #16
 1287 0004 054B     		ldr	r3, .L90
 1288 0006 1A60     		str	r2, [r3]
 171:.\Generated_Source\PSoC5/RTC.c **** 
 1289              		.loc 1 171 0
 1290 0008 FFF7FEFF 		bl	CyEnterCriticalSection
 1291              	.LVL50:
 174:.\Generated_Source\PSoC5/RTC.c **** 
 1292              		.loc 1 174 0
 1293 000c 044A     		ldr	r2, .L90+4
 1294 000e 1378     		ldrb	r3, [r2]	@ zero_extendqisi2
 1295 0010 03F0CF03 		and	r3, r3, #207
 1296 0014 1370     		strb	r3, [r2]
 177:.\Generated_Source\PSoC5/RTC.c **** }
 1297              		.loc 1 177 0
 1298 0016 FFF7FEFF 		bl	CyExitCriticalSection
 1299              	.LVL51:
 1300 001a 08BD     		pop	{r3, pc}
 1301              	.L91:
 1302              		.align	2
 1303              	.L90:
 1304 001c 80E100E0 		.word	-536813184
 1305 0020 82430040 		.word	1073759106
 1306              		.cfi_endproc
 1307              	.LFE1:
 1308              		.size	RTC_Stop, .-RTC_Stop
 1309              		.section	.text.RTC_EnableInt,"ax",%progbits
 1310              		.align	2
 1311              		.global	RTC_EnableInt
 1312              		.thumb
 1313              		.thumb_func
 1314              		.type	RTC_EnableInt, %function
 1315              	RTC_EnableInt:
 1316              	.LFB2:
 196:.\Generated_Source\PSoC5/RTC.c ****     /* Enable the interrupt */
 1317              		.loc 1 196 0
 1318              		.cfi_startproc
ARM GAS  C:\Users\mark6\AppData\Local\Temp\ccQgPzp9.s 			page 61


 1319              		@ args = 0, pretend = 0, frame = 0
 1320              		@ frame_needed = 0, uses_anonymous_args = 0
 1321              		@ link register save eliminated.
 198:.\Generated_Source\PSoC5/RTC.c **** }
 1322              		.loc 1 198 0
 1323 0000 1022     		movs	r2, #16
 1324 0002 014B     		ldr	r3, .L93
 1325 0004 1A60     		str	r2, [r3]
 1326 0006 7047     		bx	lr
 1327              	.L94:
 1328              		.align	2
 1329              	.L93:
 1330 0008 00E100E0 		.word	-536813312
 1331              		.cfi_endproc
 1332              	.LFE2:
 1333              		.size	RTC_EnableInt, .-RTC_EnableInt
 1334              		.section	.text.RTC_DisableInt,"ax",%progbits
 1335              		.align	2
 1336              		.global	RTC_DisableInt
 1337              		.thumb
 1338              		.thumb_func
 1339              		.type	RTC_DisableInt, %function
 1340              	RTC_DisableInt:
 1341              	.LFB3:
 217:.\Generated_Source\PSoC5/RTC.c ****     /* Disable the interrupt. */
 1342              		.loc 1 217 0
 1343              		.cfi_startproc
 1344              		@ args = 0, pretend = 0, frame = 0
 1345              		@ frame_needed = 0, uses_anonymous_args = 0
 1346              		@ link register save eliminated.
 219:.\Generated_Source\PSoC5/RTC.c **** }
 1347              		.loc 1 219 0
 1348 0000 1022     		movs	r2, #16
 1349 0002 014B     		ldr	r3, .L96
 1350 0004 1A60     		str	r2, [r3]
 1351 0006 7047     		bx	lr
 1352              	.L97:
 1353              		.align	2
 1354              	.L96:
 1355 0008 80E100E0 		.word	-536813184
 1356              		.cfi_endproc
 1357              	.LFE3:
 1358              		.size	RTC_DisableInt, .-RTC_DisableInt
 1359              		.section	.text.RTC_Init,"ax",%progbits
 1360              		.align	2
 1361              		.global	RTC_Init
 1362              		.thumb
 1363              		.thumb_func
 1364              		.type	RTC_Init, %function
 1365              	RTC_Init:
 1366              	.LFB5:
 392:.\Generated_Source\PSoC5/RTC.c ****     /* Start calculation of required date and flags */
 1367              		.loc 1 392 0
 1368              		.cfi_startproc
 1369              		@ args = 0, pretend = 0, frame = 0
 1370              		@ frame_needed = 0, uses_anonymous_args = 0
 1371 0000 08B5     		push	{r3, lr}
ARM GAS  C:\Users\mark6\AppData\Local\Temp\ccQgPzp9.s 			page 62


 1372              		.cfi_def_cfa_offset 8
 1373              		.cfi_offset 3, -8
 1374              		.cfi_offset 14, -4
 394:.\Generated_Source\PSoC5/RTC.c **** 
 1375              		.loc 1 394 0
 1376 0002 FFF7FEFF 		bl	RTC_SetInitValues
 1377              	.LVL52:
 397:.\Generated_Source\PSoC5/RTC.c **** 
 1378              		.loc 1 397 0
 1379 0006 1022     		movs	r2, #16
 1380 0008 054B     		ldr	r3, .L100
 1381 000a 1A60     		str	r2, [r3]
 400:.\Generated_Source\PSoC5/RTC.c **** 
 1382              		.loc 1 400 0
 1383 000c 0420     		movs	r0, #4
 1384 000e 0549     		ldr	r1, .L100+4
 1385 0010 FFF7FEFF 		bl	CyIntSetVector
 1386              	.LVL53:
 403:.\Generated_Source\PSoC5/RTC.c **** }
 1387              		.loc 1 403 0
 1388 0014 0420     		movs	r0, #4
 1389 0016 0721     		movs	r1, #7
 1390 0018 FFF7FEFF 		bl	CyIntSetPriority
 1391              	.LVL54:
 1392 001c 08BD     		pop	{r3, pc}
 1393              	.L101:
 1394 001e 00BF     		.align	2
 1395              	.L100:
 1396 0020 80E100E0 		.word	-536813184
 1397 0024 00000000 		.word	RTC_ISR
 1398              		.cfi_endproc
 1399              	.LFE5:
 1400              		.size	RTC_Init, .-RTC_Init
 1401              		.section	.text.RTC_Enable,"ax",%progbits
 1402              		.align	2
 1403              		.global	RTC_Enable
 1404              		.thumb
 1405              		.thumb_func
 1406              		.type	RTC_Enable, %function
 1407              	RTC_Enable:
 1408              	.LFB6:
 428:.\Generated_Source\PSoC5/RTC.c ****     uint8 interruptState;
 1409              		.loc 1 428 0
 1410              		.cfi_startproc
 1411              		@ args = 0, pretend = 0, frame = 0
 1412              		@ frame_needed = 0, uses_anonymous_args = 0
 1413 0000 08B5     		push	{r3, lr}
 1414              		.cfi_def_cfa_offset 8
 1415              		.cfi_offset 3, -8
 1416              		.cfi_offset 14, -4
 432:.\Generated_Source\PSoC5/RTC.c **** 
 1417              		.loc 1 432 0
 1418 0002 FFF7FEFF 		bl	CyEnterCriticalSection
 1419              	.LVL55:
 435:.\Generated_Source\PSoC5/RTC.c **** 
 1420              		.loc 1 435 0
 1421 0006 054A     		ldr	r2, .L104
ARM GAS  C:\Users\mark6\AppData\Local\Temp\ccQgPzp9.s 			page 63


 1422 0008 1378     		ldrb	r3, [r2]	@ zero_extendqisi2
 1423 000a 43F03003 		orr	r3, r3, #48
 1424 000e 1370     		strb	r3, [r2]
 438:.\Generated_Source\PSoC5/RTC.c **** 
 1425              		.loc 1 438 0
 1426 0010 FFF7FEFF 		bl	CyExitCriticalSection
 1427              	.LVL56:
 441:.\Generated_Source\PSoC5/RTC.c **** }
 1428              		.loc 1 441 0
 1429 0014 1022     		movs	r2, #16
 1430 0016 024B     		ldr	r3, .L104+4
 1431 0018 1A60     		str	r2, [r3]
 1432 001a 08BD     		pop	{r3, pc}
 1433              	.L105:
 1434              		.align	2
 1435              	.L104:
 1436 001c 82430040 		.word	1073759106
 1437 0020 00E100E0 		.word	-536813312
 1438              		.cfi_endproc
 1439              	.LFE6:
 1440              		.size	RTC_Enable, .-RTC_Enable
 1441              		.section	.text.RTC_Start,"ax",%progbits
 1442              		.align	2
 1443              		.global	RTC_Start
 1444              		.thumb
 1445              		.thumb_func
 1446              		.type	RTC_Start, %function
 1447              	RTC_Start:
 1448              	.LFB0:
 130:.\Generated_Source\PSoC5/RTC.c ****     /* Execute once in normal flow */
 1449              		.loc 1 130 0
 1450              		.cfi_startproc
 1451              		@ args = 0, pretend = 0, frame = 0
 1452              		@ frame_needed = 0, uses_anonymous_args = 0
 1453 0000 08B5     		push	{r3, lr}
 1454              		.cfi_def_cfa_offset 8
 1455              		.cfi_offset 3, -8
 1456              		.cfi_offset 14, -4
 132:.\Generated_Source\PSoC5/RTC.c ****     {
 1457              		.loc 1 132 0
 1458 0002 054B     		ldr	r3, .L109
 1459 0004 DB79     		ldrb	r3, [r3, #7]	@ zero_extendqisi2
 1460 0006 23B9     		cbnz	r3, .L107
 134:.\Generated_Source\PSoC5/RTC.c ****         RTC_initVar = 1u;
 1461              		.loc 1 134 0
 1462 0008 FFF7FEFF 		bl	RTC_Init
 1463              	.LVL57:
 135:.\Generated_Source\PSoC5/RTC.c ****     }
 1464              		.loc 1 135 0
 1465 000c 0122     		movs	r2, #1
 1466 000e 024B     		ldr	r3, .L109
 1467 0010 DA71     		strb	r2, [r3, #7]
 1468              	.L107:
 139:.\Generated_Source\PSoC5/RTC.c **** }
 1469              		.loc 1 139 0
 1470 0012 FFF7FEFF 		bl	RTC_Enable
 1471              	.LVL58:
ARM GAS  C:\Users\mark6\AppData\Local\Temp\ccQgPzp9.s 			page 64


 1472 0016 08BD     		pop	{r3, pc}
 1473              	.L110:
 1474              		.align	2
 1475              	.L109:
 1476 0018 00000000 		.word	.LANCHOR2
 1477              		.cfi_endproc
 1478              	.LFE0:
 1479              		.size	RTC_Start, .-RTC_Start
 1480              		.section	.text.RTC_ReadTime,"ax",%progbits
 1481              		.align	2
 1482              		.global	RTC_ReadTime
 1483              		.thumb
 1484              		.thumb_func
 1485              		.type	RTC_ReadTime, %function
 1486              	RTC_ReadTime:
 1487              	.LFB7:
 470:.\Generated_Source\PSoC5/RTC.c ****     /* Returns a pointer to the current time and date structure */
 1488              		.loc 1 470 0
 1489              		.cfi_startproc
 1490              		@ args = 0, pretend = 0, frame = 0
 1491              		@ frame_needed = 0, uses_anonymous_args = 0
 1492              		@ link register save eliminated.
 473:.\Generated_Source\PSoC5/RTC.c **** 
 1493              		.loc 1 473 0
 1494 0000 0048     		ldr	r0, .L112
 1495 0002 7047     		bx	lr
 1496              	.L113:
 1497              		.align	2
 1498              	.L112:
 1499 0004 08000000 		.word	.LANCHOR1+8
 1500              		.cfi_endproc
 1501              	.LFE7:
 1502              		.size	RTC_ReadTime, .-RTC_ReadTime
 1503              		.section	.text.RTC_WriteTime,"ax",%progbits
 1504              		.align	2
 1505              		.global	RTC_WriteTime
 1506              		.thumb
 1507              		.thumb_func
 1508              		.type	RTC_WriteTime, %function
 1509              	RTC_WriteTime:
 1510              	.LFB8:
 502:.\Generated_Source\PSoC5/RTC.c ****     /* Disable Interrupt of RTC Component */
 1511              		.loc 1 502 0
 1512              		.cfi_startproc
 1513              		@ args = 0, pretend = 0, frame = 0
 1514              		@ frame_needed = 0, uses_anonymous_args = 0
 1515              	.LVL59:
 1516 0000 10B5     		push	{r4, lr}
 1517              		.cfi_def_cfa_offset 8
 1518              		.cfi_offset 4, -8
 1519              		.cfi_offset 14, -4
 1520 0002 0446     		mov	r4, r0
 504:.\Generated_Source\PSoC5/RTC.c **** 
 1521              		.loc 1 504 0
 1522 0004 FFF7FEFF 		bl	RTC_DisableInt
 1523              	.LVL60:
 507:.\Generated_Source\PSoC5/RTC.c ****     RTC_currentTimeDate.Min = timeDate->Min;
ARM GAS  C:\Users\mark6\AppData\Local\Temp\ccQgPzp9.s 			page 65


 1524              		.loc 1 507 0
 1525 0008 2278     		ldrb	r2, [r4]	@ zero_extendqisi2
 1526 000a D2B2     		uxtb	r2, r2
 1527 000c 094B     		ldr	r3, .L116
 1528 000e 1A72     		strb	r2, [r3, #8]
 508:.\Generated_Source\PSoC5/RTC.c ****     RTC_currentTimeDate.Hour = timeDate->Hour;
 1529              		.loc 1 508 0
 1530 0010 6278     		ldrb	r2, [r4, #1]	@ zero_extendqisi2
 1531 0012 D2B2     		uxtb	r2, r2
 1532 0014 5A72     		strb	r2, [r3, #9]
 509:.\Generated_Source\PSoC5/RTC.c ****     RTC_currentTimeDate.DayOfMonth = timeDate->DayOfMonth;
 1533              		.loc 1 509 0
 1534 0016 A278     		ldrb	r2, [r4, #2]	@ zero_extendqisi2
 1535 0018 D2B2     		uxtb	r2, r2
 1536 001a 9A72     		strb	r2, [r3, #10]
 510:.\Generated_Source\PSoC5/RTC.c ****     RTC_currentTimeDate.Month = timeDate->Month;
 1537              		.loc 1 510 0
 1538 001c 2279     		ldrb	r2, [r4, #4]	@ zero_extendqisi2
 1539 001e D2B2     		uxtb	r2, r2
 1540 0020 1A73     		strb	r2, [r3, #12]
 511:.\Generated_Source\PSoC5/RTC.c ****     RTC_currentTimeDate.Year = timeDate->Year;
 1541              		.loc 1 511 0
 1542 0022 227A     		ldrb	r2, [r4, #8]	@ zero_extendqisi2
 1543 0024 D2B2     		uxtb	r2, r2
 1544 0026 1A74     		strb	r2, [r3, #16]
 512:.\Generated_Source\PSoC5/RTC.c **** 
 1545              		.loc 1 512 0
 1546 0028 6289     		ldrh	r2, [r4, #10]
 1547 002a 92B2     		uxth	r2, r2
 1548 002c 5A82     		strh	r2, [r3, #18]	@ movhi
 515:.\Generated_Source\PSoC5/RTC.c **** }
 1549              		.loc 1 515 0
 1550 002e FFF7FEFF 		bl	RTC_EnableInt
 1551              	.LVL61:
 1552 0032 10BD     		pop	{r4, pc}
 1553              	.LVL62:
 1554              	.L117:
 1555              		.align	2
 1556              	.L116:
 1557 0034 00000000 		.word	.LANCHOR1
 1558              		.cfi_endproc
 1559              	.LFE8:
 1560              		.size	RTC_WriteTime, .-RTC_WriteTime
 1561              		.section	.text.RTC_WriteSecond,"ax",%progbits
 1562              		.align	2
 1563              		.global	RTC_WriteSecond
 1564              		.thumb
 1565              		.thumb_func
 1566              		.type	RTC_WriteSecond, %function
 1567              	RTC_WriteSecond:
 1568              	.LFB9:
 541:.\Generated_Source\PSoC5/RTC.c ****     /* Save seconds to the current time and date structure */
 1569              		.loc 1 541 0
 1570              		.cfi_startproc
 1571              		@ args = 0, pretend = 0, frame = 0
 1572              		@ frame_needed = 0, uses_anonymous_args = 0
 1573              		@ link register save eliminated.
ARM GAS  C:\Users\mark6\AppData\Local\Temp\ccQgPzp9.s 			page 66


 1574              	.LVL63:
 543:.\Generated_Source\PSoC5/RTC.c **** }
 1575              		.loc 1 543 0
 1576 0000 014B     		ldr	r3, .L119
 1577 0002 1872     		strb	r0, [r3, #8]
 1578 0004 7047     		bx	lr
 1579              	.L120:
 1580 0006 00BF     		.align	2
 1581              	.L119:
 1582 0008 00000000 		.word	.LANCHOR1
 1583              		.cfi_endproc
 1584              	.LFE9:
 1585              		.size	RTC_WriteSecond, .-RTC_WriteSecond
 1586              		.section	.text.RTC_WriteMinute,"ax",%progbits
 1587              		.align	2
 1588              		.global	RTC_WriteMinute
 1589              		.thumb
 1590              		.thumb_func
 1591              		.type	RTC_WriteMinute, %function
 1592              	RTC_WriteMinute:
 1593              	.LFB10:
 569:.\Generated_Source\PSoC5/RTC.c ****     /* Save minutes to the current time and date structure */
 1594              		.loc 1 569 0
 1595              		.cfi_startproc
 1596              		@ args = 0, pretend = 0, frame = 0
 1597              		@ frame_needed = 0, uses_anonymous_args = 0
 1598              		@ link register save eliminated.
 1599              	.LVL64:
 571:.\Generated_Source\PSoC5/RTC.c **** }
 1600              		.loc 1 571 0
 1601 0000 014B     		ldr	r3, .L122
 1602 0002 5872     		strb	r0, [r3, #9]
 1603 0004 7047     		bx	lr
 1604              	.L123:
 1605 0006 00BF     		.align	2
 1606              	.L122:
 1607 0008 00000000 		.word	.LANCHOR1
 1608              		.cfi_endproc
 1609              	.LFE10:
 1610              		.size	RTC_WriteMinute, .-RTC_WriteMinute
 1611              		.section	.text.RTC_WriteHour,"ax",%progbits
 1612              		.align	2
 1613              		.global	RTC_WriteHour
 1614              		.thumb
 1615              		.thumb_func
 1616              		.type	RTC_WriteHour, %function
 1617              	RTC_WriteHour:
 1618              	.LFB11:
 597:.\Generated_Source\PSoC5/RTC.c ****     /* Save hours to the current time and date structure */
 1619              		.loc 1 597 0
 1620              		.cfi_startproc
 1621              		@ args = 0, pretend = 0, frame = 0
 1622              		@ frame_needed = 0, uses_anonymous_args = 0
 1623              		@ link register save eliminated.
 1624              	.LVL65:
 599:.\Generated_Source\PSoC5/RTC.c **** }
 1625              		.loc 1 599 0
ARM GAS  C:\Users\mark6\AppData\Local\Temp\ccQgPzp9.s 			page 67


 1626 0000 014B     		ldr	r3, .L125
 1627 0002 9872     		strb	r0, [r3, #10]
 1628 0004 7047     		bx	lr
 1629              	.L126:
 1630 0006 00BF     		.align	2
 1631              	.L125:
 1632 0008 00000000 		.word	.LANCHOR1
 1633              		.cfi_endproc
 1634              	.LFE11:
 1635              		.size	RTC_WriteHour, .-RTC_WriteHour
 1636              		.section	.text.RTC_WriteDayOfMonth,"ax",%progbits
 1637              		.align	2
 1638              		.global	RTC_WriteDayOfMonth
 1639              		.thumb
 1640              		.thumb_func
 1641              		.type	RTC_WriteDayOfMonth, %function
 1642              	RTC_WriteDayOfMonth:
 1643              	.LFB12:
 625:.\Generated_Source\PSoC5/RTC.c ****     /* Save day of month to the current time and date structure */
 1644              		.loc 1 625 0
 1645              		.cfi_startproc
 1646              		@ args = 0, pretend = 0, frame = 0
 1647              		@ frame_needed = 0, uses_anonymous_args = 0
 1648              		@ link register save eliminated.
 1649              	.LVL66:
 627:.\Generated_Source\PSoC5/RTC.c **** }
 1650              		.loc 1 627 0
 1651 0000 014B     		ldr	r3, .L128
 1652 0002 1873     		strb	r0, [r3, #12]
 1653 0004 7047     		bx	lr
 1654              	.L129:
 1655 0006 00BF     		.align	2
 1656              	.L128:
 1657 0008 00000000 		.word	.LANCHOR1
 1658              		.cfi_endproc
 1659              	.LFE12:
 1660              		.size	RTC_WriteDayOfMonth, .-RTC_WriteDayOfMonth
 1661              		.section	.text.RTC_WriteMonth,"ax",%progbits
 1662              		.align	2
 1663              		.global	RTC_WriteMonth
 1664              		.thumb
 1665              		.thumb_func
 1666              		.type	RTC_WriteMonth, %function
 1667              	RTC_WriteMonth:
 1668              	.LFB13:
 653:.\Generated_Source\PSoC5/RTC.c ****     /* Save months to the current time and date structure */
 1669              		.loc 1 653 0
 1670              		.cfi_startproc
 1671              		@ args = 0, pretend = 0, frame = 0
 1672              		@ frame_needed = 0, uses_anonymous_args = 0
 1673              		@ link register save eliminated.
 1674              	.LVL67:
 655:.\Generated_Source\PSoC5/RTC.c **** }
 1675              		.loc 1 655 0
 1676 0000 014B     		ldr	r3, .L131
 1677 0002 1874     		strb	r0, [r3, #16]
 1678 0004 7047     		bx	lr
ARM GAS  C:\Users\mark6\AppData\Local\Temp\ccQgPzp9.s 			page 68


 1679              	.L132:
 1680 0006 00BF     		.align	2
 1681              	.L131:
 1682 0008 00000000 		.word	.LANCHOR1
 1683              		.cfi_endproc
 1684              	.LFE13:
 1685              		.size	RTC_WriteMonth, .-RTC_WriteMonth
 1686              		.section	.text.RTC_WriteYear,"ax",%progbits
 1687              		.align	2
 1688              		.global	RTC_WriteYear
 1689              		.thumb
 1690              		.thumb_func
 1691              		.type	RTC_WriteYear, %function
 1692              	RTC_WriteYear:
 1693              	.LFB14:
 681:.\Generated_Source\PSoC5/RTC.c ****     /* Save years to the current time and date structure */
 1694              		.loc 1 681 0
 1695              		.cfi_startproc
 1696              		@ args = 0, pretend = 0, frame = 0
 1697              		@ frame_needed = 0, uses_anonymous_args = 0
 1698              		@ link register save eliminated.
 1699              	.LVL68:
 683:.\Generated_Source\PSoC5/RTC.c **** }
 1700              		.loc 1 683 0
 1701 0000 014B     		ldr	r3, .L134
 1702 0002 5882     		strh	r0, [r3, #18]	@ movhi
 1703 0004 7047     		bx	lr
 1704              	.L135:
 1705 0006 00BF     		.align	2
 1706              	.L134:
 1707 0008 00000000 		.word	.LANCHOR1
 1708              		.cfi_endproc
 1709              	.LFE14:
 1710              		.size	RTC_WriteYear, .-RTC_WriteYear
 1711              		.section	.text.RTC_WriteAlarmSecond,"ax",%progbits
 1712              		.align	2
 1713              		.global	RTC_WriteAlarmSecond
 1714              		.thumb
 1715              		.thumb_func
 1716              		.type	RTC_WriteAlarmSecond, %function
 1717              	RTC_WriteAlarmSecond:
 1718              	.LFB15:
 715:.\Generated_Source\PSoC5/RTC.c ****     RTC_alarmCfgTimeDate.Sec = second;
 1719              		.loc 1 715 0
 1720              		.cfi_startproc
 1721              		@ args = 0, pretend = 0, frame = 0
 1722              		@ frame_needed = 0, uses_anonymous_args = 0
 1723              		@ link register save eliminated.
 1724              	.LVL69:
 716:.\Generated_Source\PSoC5/RTC.c **** 
 1725              		.loc 1 716 0
 1726 0000 094A     		ldr	r2, .L139
 1727 0002 1077     		strb	r0, [r2, #28]
 719:.\Generated_Source\PSoC5/RTC.c ****     {
 1728              		.loc 1 719 0
 1729 0004 137F     		ldrb	r3, [r2, #28]	@ zero_extendqisi2
 1730 0006 127A     		ldrb	r2, [r2, #8]	@ zero_extendqisi2
ARM GAS  C:\Users\mark6\AppData\Local\Temp\ccQgPzp9.s 			page 69


 1731 0008 DBB2     		uxtb	r3, r3
 1732 000a 9342     		cmp	r3, r2
 1733 000c 05D1     		bne	.L137
 722:.\Generated_Source\PSoC5/RTC.c ****     }
 1734              		.loc 1 722 0
 1735 000e 074A     		ldr	r2, .L139+4
 1736 0010 9379     		ldrb	r3, [r2, #6]	@ zero_extendqisi2
 1737 0012 43F00103 		orr	r3, r3, #1
 1738 0016 9371     		strb	r3, [r2, #6]
 1739 0018 7047     		bx	lr
 1740              	.L137:
 727:.\Generated_Source\PSoC5/RTC.c ****     }
 1741              		.loc 1 727 0
 1742 001a 044A     		ldr	r2, .L139+4
 1743 001c 9379     		ldrb	r3, [r2, #6]	@ zero_extendqisi2
 1744 001e 03F0FE03 		and	r3, r3, #254
 1745 0022 9371     		strb	r3, [r2, #6]
 1746 0024 7047     		bx	lr
 1747              	.L140:
 1748 0026 00BF     		.align	2
 1749              	.L139:
 1750 0028 00000000 		.word	.LANCHOR1
 1751 002c 00000000 		.word	.LANCHOR2
 1752              		.cfi_endproc
 1753              	.LFE15:
 1754              		.size	RTC_WriteAlarmSecond, .-RTC_WriteAlarmSecond
 1755              		.section	.text.RTC_WriteAlarmMinute,"ax",%progbits
 1756              		.align	2
 1757              		.global	RTC_WriteAlarmMinute
 1758              		.thumb
 1759              		.thumb_func
 1760              		.type	RTC_WriteAlarmMinute, %function
 1761              	RTC_WriteAlarmMinute:
 1762              	.LFB16:
 760:.\Generated_Source\PSoC5/RTC.c ****     RTC_alarmCfgTimeDate.Min = minute;
 1763              		.loc 1 760 0
 1764              		.cfi_startproc
 1765              		@ args = 0, pretend = 0, frame = 0
 1766              		@ frame_needed = 0, uses_anonymous_args = 0
 1767              		@ link register save eliminated.
 1768              	.LVL70:
 761:.\Generated_Source\PSoC5/RTC.c **** 
 1769              		.loc 1 761 0
 1770 0000 094A     		ldr	r2, .L144
 1771 0002 5077     		strb	r0, [r2, #29]
 764:.\Generated_Source\PSoC5/RTC.c ****     {
 1772              		.loc 1 764 0
 1773 0004 537F     		ldrb	r3, [r2, #29]	@ zero_extendqisi2
 1774 0006 527A     		ldrb	r2, [r2, #9]	@ zero_extendqisi2
 1775 0008 DBB2     		uxtb	r3, r3
 1776 000a 9342     		cmp	r3, r2
 1777 000c 05D1     		bne	.L142
 767:.\Generated_Source\PSoC5/RTC.c ****     }
 1778              		.loc 1 767 0
 1779 000e 074A     		ldr	r2, .L144+4
 1780 0010 9379     		ldrb	r3, [r2, #6]	@ zero_extendqisi2
 1781 0012 43F00203 		orr	r3, r3, #2
ARM GAS  C:\Users\mark6\AppData\Local\Temp\ccQgPzp9.s 			page 70


 1782 0016 9371     		strb	r3, [r2, #6]
 1783 0018 7047     		bx	lr
 1784              	.L142:
 772:.\Generated_Source\PSoC5/RTC.c ****     }
 1785              		.loc 1 772 0
 1786 001a 044A     		ldr	r2, .L144+4
 1787 001c 9379     		ldrb	r3, [r2, #6]	@ zero_extendqisi2
 1788 001e 03F0FD03 		and	r3, r3, #253
 1789 0022 9371     		strb	r3, [r2, #6]
 1790 0024 7047     		bx	lr
 1791              	.L145:
 1792 0026 00BF     		.align	2
 1793              	.L144:
 1794 0028 00000000 		.word	.LANCHOR1
 1795 002c 00000000 		.word	.LANCHOR2
 1796              		.cfi_endproc
 1797              	.LFE16:
 1798              		.size	RTC_WriteAlarmMinute, .-RTC_WriteAlarmMinute
 1799              		.section	.text.RTC_WriteAlarmHour,"ax",%progbits
 1800              		.align	2
 1801              		.global	RTC_WriteAlarmHour
 1802              		.thumb
 1803              		.thumb_func
 1804              		.type	RTC_WriteAlarmHour, %function
 1805              	RTC_WriteAlarmHour:
 1806              	.LFB17:
 805:.\Generated_Source\PSoC5/RTC.c ****     RTC_alarmCfgTimeDate.Hour = hour;
 1807              		.loc 1 805 0
 1808              		.cfi_startproc
 1809              		@ args = 0, pretend = 0, frame = 0
 1810              		@ frame_needed = 0, uses_anonymous_args = 0
 1811              		@ link register save eliminated.
 1812              	.LVL71:
 806:.\Generated_Source\PSoC5/RTC.c **** 
 1813              		.loc 1 806 0
 1814 0000 094A     		ldr	r2, .L149
 1815 0002 9077     		strb	r0, [r2, #30]
 809:.\Generated_Source\PSoC5/RTC.c ****     {
 1816              		.loc 1 809 0
 1817 0004 937F     		ldrb	r3, [r2, #30]	@ zero_extendqisi2
 1818 0006 927A     		ldrb	r2, [r2, #10]	@ zero_extendqisi2
 1819 0008 DBB2     		uxtb	r3, r3
 1820 000a 9342     		cmp	r3, r2
 1821 000c 05D1     		bne	.L147
 812:.\Generated_Source\PSoC5/RTC.c ****     }
 1822              		.loc 1 812 0
 1823 000e 074A     		ldr	r2, .L149+4
 1824 0010 9379     		ldrb	r3, [r2, #6]	@ zero_extendqisi2
 1825 0012 43F00403 		orr	r3, r3, #4
 1826 0016 9371     		strb	r3, [r2, #6]
 1827 0018 7047     		bx	lr
 1828              	.L147:
 817:.\Generated_Source\PSoC5/RTC.c ****     }
 1829              		.loc 1 817 0
 1830 001a 044A     		ldr	r2, .L149+4
 1831 001c 9379     		ldrb	r3, [r2, #6]	@ zero_extendqisi2
 1832 001e 03F0FB03 		and	r3, r3, #251
ARM GAS  C:\Users\mark6\AppData\Local\Temp\ccQgPzp9.s 			page 71


 1833 0022 9371     		strb	r3, [r2, #6]
 1834 0024 7047     		bx	lr
 1835              	.L150:
 1836 0026 00BF     		.align	2
 1837              	.L149:
 1838 0028 00000000 		.word	.LANCHOR1
 1839 002c 00000000 		.word	.LANCHOR2
 1840              		.cfi_endproc
 1841              	.LFE17:
 1842              		.size	RTC_WriteAlarmHour, .-RTC_WriteAlarmHour
 1843              		.section	.text.RTC_WriteAlarmDayOfMonth,"ax",%progbits
 1844              		.align	2
 1845              		.global	RTC_WriteAlarmDayOfMonth
 1846              		.thumb
 1847              		.thumb_func
 1848              		.type	RTC_WriteAlarmDayOfMonth, %function
 1849              	RTC_WriteAlarmDayOfMonth:
 1850              	.LFB18:
 850:.\Generated_Source\PSoC5/RTC.c ****     RTC_alarmCfgTimeDate.DayOfMonth = dayOfMonth;
 1851              		.loc 1 850 0
 1852              		.cfi_startproc
 1853              		@ args = 0, pretend = 0, frame = 0
 1854              		@ frame_needed = 0, uses_anonymous_args = 0
 1855              		@ link register save eliminated.
 1856              	.LVL72:
 851:.\Generated_Source\PSoC5/RTC.c **** 
 1857              		.loc 1 851 0
 1858 0000 0A4A     		ldr	r2, .L154
 1859 0002 82F82000 		strb	r0, [r2, #32]
 854:.\Generated_Source\PSoC5/RTC.c ****     {
 1860              		.loc 1 854 0
 1861 0006 92F82030 		ldrb	r3, [r2, #32]	@ zero_extendqisi2
 1862 000a 127B     		ldrb	r2, [r2, #12]	@ zero_extendqisi2
 1863 000c DBB2     		uxtb	r3, r3
 1864 000e 9342     		cmp	r3, r2
 1865 0010 05D1     		bne	.L152
 857:.\Generated_Source\PSoC5/RTC.c ****     }
 1866              		.loc 1 857 0
 1867 0012 074A     		ldr	r2, .L154+4
 1868 0014 9379     		ldrb	r3, [r2, #6]	@ zero_extendqisi2
 1869 0016 43F01003 		orr	r3, r3, #16
 1870 001a 9371     		strb	r3, [r2, #6]
 1871 001c 7047     		bx	lr
 1872              	.L152:
 862:.\Generated_Source\PSoC5/RTC.c ****     }
 1873              		.loc 1 862 0
 1874 001e 044A     		ldr	r2, .L154+4
 1875 0020 9379     		ldrb	r3, [r2, #6]	@ zero_extendqisi2
 1876 0022 03F0EF03 		and	r3, r3, #239
 1877 0026 9371     		strb	r3, [r2, #6]
 1878 0028 7047     		bx	lr
 1879              	.L155:
 1880 002a 00BF     		.align	2
 1881              	.L154:
 1882 002c 00000000 		.word	.LANCHOR1
 1883 0030 00000000 		.word	.LANCHOR2
 1884              		.cfi_endproc
ARM GAS  C:\Users\mark6\AppData\Local\Temp\ccQgPzp9.s 			page 72


 1885              	.LFE18:
 1886              		.size	RTC_WriteAlarmDayOfMonth, .-RTC_WriteAlarmDayOfMonth
 1887              		.section	.text.RTC_WriteAlarmMonth,"ax",%progbits
 1888              		.align	2
 1889              		.global	RTC_WriteAlarmMonth
 1890              		.thumb
 1891              		.thumb_func
 1892              		.type	RTC_WriteAlarmMonth, %function
 1893              	RTC_WriteAlarmMonth:
 1894              	.LFB19:
 895:.\Generated_Source\PSoC5/RTC.c ****     RTC_alarmCfgTimeDate.Month = month;
 1895              		.loc 1 895 0
 1896              		.cfi_startproc
 1897              		@ args = 0, pretend = 0, frame = 0
 1898              		@ frame_needed = 0, uses_anonymous_args = 0
 1899              		@ link register save eliminated.
 1900              	.LVL73:
 896:.\Generated_Source\PSoC5/RTC.c **** 
 1901              		.loc 1 896 0
 1902 0000 0A4A     		ldr	r2, .L159
 1903 0002 82F82400 		strb	r0, [r2, #36]
 899:.\Generated_Source\PSoC5/RTC.c ****     {
 1904              		.loc 1 899 0
 1905 0006 92F82430 		ldrb	r3, [r2, #36]	@ zero_extendqisi2
 1906 000a 127C     		ldrb	r2, [r2, #16]	@ zero_extendqisi2
 1907 000c DBB2     		uxtb	r3, r3
 1908 000e 9342     		cmp	r3, r2
 1909 0010 05D1     		bne	.L157
 902:.\Generated_Source\PSoC5/RTC.c ****     }
 1910              		.loc 1 902 0
 1911 0012 074A     		ldr	r2, .L159+4
 1912 0014 9379     		ldrb	r3, [r2, #6]	@ zero_extendqisi2
 1913 0016 43F04003 		orr	r3, r3, #64
 1914 001a 9371     		strb	r3, [r2, #6]
 1915 001c 7047     		bx	lr
 1916              	.L157:
 907:.\Generated_Source\PSoC5/RTC.c ****     }
 1917              		.loc 1 907 0
 1918 001e 044A     		ldr	r2, .L159+4
 1919 0020 9379     		ldrb	r3, [r2, #6]	@ zero_extendqisi2
 1920 0022 03F0BF03 		and	r3, r3, #191
 1921 0026 9371     		strb	r3, [r2, #6]
 1922 0028 7047     		bx	lr
 1923              	.L160:
 1924 002a 00BF     		.align	2
 1925              	.L159:
 1926 002c 00000000 		.word	.LANCHOR1
 1927 0030 00000000 		.word	.LANCHOR2
 1928              		.cfi_endproc
 1929              	.LFE19:
 1930              		.size	RTC_WriteAlarmMonth, .-RTC_WriteAlarmMonth
 1931              		.section	.text.RTC_WriteAlarmYear,"ax",%progbits
 1932              		.align	2
 1933              		.global	RTC_WriteAlarmYear
 1934              		.thumb
 1935              		.thumb_func
 1936              		.type	RTC_WriteAlarmYear, %function
ARM GAS  C:\Users\mark6\AppData\Local\Temp\ccQgPzp9.s 			page 73


 1937              	RTC_WriteAlarmYear:
 1938              	.LFB20:
 940:.\Generated_Source\PSoC5/RTC.c ****    RTC_alarmCfgTimeDate.Year = year;
 1939              		.loc 1 940 0
 1940              		.cfi_startproc
 1941              		@ args = 0, pretend = 0, frame = 0
 1942              		@ frame_needed = 0, uses_anonymous_args = 0
 1943              		@ link register save eliminated.
 1944              	.LVL74:
 941:.\Generated_Source\PSoC5/RTC.c **** 
 1945              		.loc 1 941 0
 1946 0000 094B     		ldr	r3, .L164
 1947 0002 D884     		strh	r0, [r3, #38]	@ movhi
 944:.\Generated_Source\PSoC5/RTC.c ****     {
 1948              		.loc 1 944 0
 1949 0004 DA8C     		ldrh	r2, [r3, #38]
 1950 0006 92B2     		uxth	r2, r2
 1951 0008 5B8A     		ldrh	r3, [r3, #18]
 1952 000a 9BB2     		uxth	r3, r3
 1953 000c 9A42     		cmp	r2, r3
 1954 000e 05D1     		bne	.L162
 947:.\Generated_Source\PSoC5/RTC.c ****     }
 1955              		.loc 1 947 0
 1956 0010 064A     		ldr	r2, .L164+4
 1957 0012 9379     		ldrb	r3, [r2, #6]	@ zero_extendqisi2
 1958 0014 43F08003 		orr	r3, r3, #128
 1959 0018 9371     		strb	r3, [r2, #6]
 1960 001a 7047     		bx	lr
 1961              	.L162:
 952:.\Generated_Source\PSoC5/RTC.c ****     }
 1962              		.loc 1 952 0
 1963 001c 034A     		ldr	r2, .L164+4
 1964 001e 9379     		ldrb	r3, [r2, #6]	@ zero_extendqisi2
 1965 0020 03F07F03 		and	r3, r3, #127
 1966 0024 9371     		strb	r3, [r2, #6]
 1967 0026 7047     		bx	lr
 1968              	.L165:
 1969              		.align	2
 1970              	.L164:
 1971 0028 00000000 		.word	.LANCHOR1
 1972 002c 00000000 		.word	.LANCHOR2
 1973              		.cfi_endproc
 1974              	.LFE20:
 1975              		.size	RTC_WriteAlarmYear, .-RTC_WriteAlarmYear
 1976              		.section	.text.RTC_WriteAlarmDayOfWeek,"ax",%progbits
 1977              		.align	2
 1978              		.global	RTC_WriteAlarmDayOfWeek
 1979              		.thumb
 1980              		.thumb_func
 1981              		.type	RTC_WriteAlarmDayOfWeek, %function
 1982              	RTC_WriteAlarmDayOfWeek:
 1983              	.LFB21:
 986:.\Generated_Source\PSoC5/RTC.c ****     RTC_alarmCfgTimeDate.DayOfWeek = dayOfWeek;
 1984              		.loc 1 986 0
 1985              		.cfi_startproc
 1986              		@ args = 0, pretend = 0, frame = 0
 1987              		@ frame_needed = 0, uses_anonymous_args = 0
ARM GAS  C:\Users\mark6\AppData\Local\Temp\ccQgPzp9.s 			page 74


 1988              		@ link register save eliminated.
 1989              	.LVL75:
 987:.\Generated_Source\PSoC5/RTC.c **** 
 1990              		.loc 1 987 0
 1991 0000 094A     		ldr	r2, .L169
 1992 0002 D077     		strb	r0, [r2, #31]
 990:.\Generated_Source\PSoC5/RTC.c ****     {
 1993              		.loc 1 990 0
 1994 0004 D37F     		ldrb	r3, [r2, #31]	@ zero_extendqisi2
 1995 0006 D27A     		ldrb	r2, [r2, #11]	@ zero_extendqisi2
 1996 0008 DBB2     		uxtb	r3, r3
 1997 000a 9342     		cmp	r3, r2
 1998 000c 05D1     		bne	.L167
 993:.\Generated_Source\PSoC5/RTC.c ****     }
 1999              		.loc 1 993 0
 2000 000e 074A     		ldr	r2, .L169+4
 2001 0010 9379     		ldrb	r3, [r2, #6]	@ zero_extendqisi2
 2002 0012 43F00803 		orr	r3, r3, #8
 2003 0016 9371     		strb	r3, [r2, #6]
 2004 0018 7047     		bx	lr
 2005              	.L167:
 998:.\Generated_Source\PSoC5/RTC.c ****     }
 2006              		.loc 1 998 0
 2007 001a 044A     		ldr	r2, .L169+4
 2008 001c 9379     		ldrb	r3, [r2, #6]	@ zero_extendqisi2
 2009 001e 03F0F703 		and	r3, r3, #247
 2010 0022 9371     		strb	r3, [r2, #6]
 2011 0024 7047     		bx	lr
 2012              	.L170:
 2013 0026 00BF     		.align	2
 2014              	.L169:
 2015 0028 00000000 		.word	.LANCHOR1
 2016 002c 00000000 		.word	.LANCHOR2
 2017              		.cfi_endproc
 2018              	.LFE21:
 2019              		.size	RTC_WriteAlarmDayOfWeek, .-RTC_WriteAlarmDayOfWeek
 2020              		.section	.text.RTC_WriteAlarmDayOfYear,"ax",%progbits
 2021              		.align	2
 2022              		.global	RTC_WriteAlarmDayOfYear
 2023              		.thumb
 2024              		.thumb_func
 2025              		.type	RTC_WriteAlarmDayOfYear, %function
 2026              	RTC_WriteAlarmDayOfYear:
 2027              	.LFB22:
1031:.\Generated_Source\PSoC5/RTC.c ****   RTC_alarmCfgTimeDate.DayOfYear = dayOfYear;
 2028              		.loc 1 1031 0
 2029              		.cfi_startproc
 2030              		@ args = 0, pretend = 0, frame = 0
 2031              		@ frame_needed = 0, uses_anonymous_args = 0
 2032              		@ link register save eliminated.
 2033              	.LVL76:
1032:.\Generated_Source\PSoC5/RTC.c **** 
 2034              		.loc 1 1032 0
 2035 0000 094B     		ldr	r3, .L174
 2036 0002 5884     		strh	r0, [r3, #34]	@ movhi
1035:.\Generated_Source\PSoC5/RTC.c ****     {
 2037              		.loc 1 1035 0
ARM GAS  C:\Users\mark6\AppData\Local\Temp\ccQgPzp9.s 			page 75


 2038 0004 5A8C     		ldrh	r2, [r3, #34]
 2039 0006 92B2     		uxth	r2, r2
 2040 0008 DB89     		ldrh	r3, [r3, #14]
 2041 000a 9BB2     		uxth	r3, r3
 2042 000c 9A42     		cmp	r2, r3
 2043 000e 05D1     		bne	.L172
1038:.\Generated_Source\PSoC5/RTC.c ****     }
 2044              		.loc 1 1038 0
 2045 0010 064A     		ldr	r2, .L174+4
 2046 0012 9379     		ldrb	r3, [r2, #6]	@ zero_extendqisi2
 2047 0014 43F02003 		orr	r3, r3, #32
 2048 0018 9371     		strb	r3, [r2, #6]
 2049 001a 7047     		bx	lr
 2050              	.L172:
1043:.\Generated_Source\PSoC5/RTC.c ****     }
 2051              		.loc 1 1043 0
 2052 001c 034A     		ldr	r2, .L174+4
 2053 001e 9379     		ldrb	r3, [r2, #6]	@ zero_extendqisi2
 2054 0020 03F0DF03 		and	r3, r3, #223
 2055 0024 9371     		strb	r3, [r2, #6]
 2056 0026 7047     		bx	lr
 2057              	.L175:
 2058              		.align	2
 2059              	.L174:
 2060 0028 00000000 		.word	.LANCHOR1
 2061 002c 00000000 		.word	.LANCHOR2
 2062              		.cfi_endproc
 2063              	.LFE22:
 2064              		.size	RTC_WriteAlarmDayOfYear, .-RTC_WriteAlarmDayOfYear
 2065              		.section	.text.RTC_ReadSecond,"ax",%progbits
 2066              		.align	2
 2067              		.global	RTC_ReadSecond
 2068              		.thumb
 2069              		.thumb_func
 2070              		.type	RTC_ReadSecond, %function
 2071              	RTC_ReadSecond:
 2072              	.LFB23:
1066:.\Generated_Source\PSoC5/RTC.c ****     /* Return current second */
 2073              		.loc 1 1066 0
 2074              		.cfi_startproc
 2075              		@ args = 0, pretend = 0, frame = 0
 2076              		@ frame_needed = 0, uses_anonymous_args = 0
 2077              		@ link register save eliminated.
1068:.\Generated_Source\PSoC5/RTC.c **** }
 2078              		.loc 1 1068 0
 2079 0000 014B     		ldr	r3, .L177
 2080 0002 187A     		ldrb	r0, [r3, #8]	@ zero_extendqisi2
1069:.\Generated_Source\PSoC5/RTC.c **** 
 2081              		.loc 1 1069 0
 2082 0004 7047     		bx	lr
 2083              	.L178:
 2084 0006 00BF     		.align	2
 2085              	.L177:
 2086 0008 00000000 		.word	.LANCHOR1
 2087              		.cfi_endproc
 2088              	.LFE23:
 2089              		.size	RTC_ReadSecond, .-RTC_ReadSecond
ARM GAS  C:\Users\mark6\AppData\Local\Temp\ccQgPzp9.s 			page 76


 2090              		.section	.text.RTC_ReadMinute,"ax",%progbits
 2091              		.align	2
 2092              		.global	RTC_ReadMinute
 2093              		.thumb
 2094              		.thumb_func
 2095              		.type	RTC_ReadMinute, %function
 2096              	RTC_ReadMinute:
 2097              	.LFB24:
1090:.\Generated_Source\PSoC5/RTC.c ****     /* Return current minute */
 2098              		.loc 1 1090 0
 2099              		.cfi_startproc
 2100              		@ args = 0, pretend = 0, frame = 0
 2101              		@ frame_needed = 0, uses_anonymous_args = 0
 2102              		@ link register save eliminated.
1092:.\Generated_Source\PSoC5/RTC.c **** }
 2103              		.loc 1 1092 0
 2104 0000 014B     		ldr	r3, .L180
 2105 0002 587A     		ldrb	r0, [r3, #9]	@ zero_extendqisi2
1093:.\Generated_Source\PSoC5/RTC.c **** 
 2106              		.loc 1 1093 0
 2107 0004 7047     		bx	lr
 2108              	.L181:
 2109 0006 00BF     		.align	2
 2110              	.L180:
 2111 0008 00000000 		.word	.LANCHOR1
 2112              		.cfi_endproc
 2113              	.LFE24:
 2114              		.size	RTC_ReadMinute, .-RTC_ReadMinute
 2115              		.section	.text.RTC_ReadHour,"ax",%progbits
 2116              		.align	2
 2117              		.global	RTC_ReadHour
 2118              		.thumb
 2119              		.thumb_func
 2120              		.type	RTC_ReadHour, %function
 2121              	RTC_ReadHour:
 2122              	.LFB25:
1114:.\Generated_Source\PSoC5/RTC.c ****     /* Return current hour */
 2123              		.loc 1 1114 0
 2124              		.cfi_startproc
 2125              		@ args = 0, pretend = 0, frame = 0
 2126              		@ frame_needed = 0, uses_anonymous_args = 0
 2127              		@ link register save eliminated.
1116:.\Generated_Source\PSoC5/RTC.c **** }
 2128              		.loc 1 1116 0
 2129 0000 014B     		ldr	r3, .L183
 2130 0002 987A     		ldrb	r0, [r3, #10]	@ zero_extendqisi2
1117:.\Generated_Source\PSoC5/RTC.c **** 
 2131              		.loc 1 1117 0
 2132 0004 7047     		bx	lr
 2133              	.L184:
 2134 0006 00BF     		.align	2
 2135              	.L183:
 2136 0008 00000000 		.word	.LANCHOR1
 2137              		.cfi_endproc
 2138              	.LFE25:
 2139              		.size	RTC_ReadHour, .-RTC_ReadHour
 2140              		.section	.text.RTC_ReadDayOfMonth,"ax",%progbits
ARM GAS  C:\Users\mark6\AppData\Local\Temp\ccQgPzp9.s 			page 77


 2141              		.align	2
 2142              		.global	RTC_ReadDayOfMonth
 2143              		.thumb
 2144              		.thumb_func
 2145              		.type	RTC_ReadDayOfMonth, %function
 2146              	RTC_ReadDayOfMonth:
 2147              	.LFB26:
1140:.\Generated_Source\PSoC5/RTC.c ****     /* Return current day of the month */
 2148              		.loc 1 1140 0
 2149              		.cfi_startproc
 2150              		@ args = 0, pretend = 0, frame = 0
 2151              		@ frame_needed = 0, uses_anonymous_args = 0
 2152              		@ link register save eliminated.
1142:.\Generated_Source\PSoC5/RTC.c **** }
 2153              		.loc 1 1142 0
 2154 0000 014B     		ldr	r3, .L186
 2155 0002 187B     		ldrb	r0, [r3, #12]	@ zero_extendqisi2
1143:.\Generated_Source\PSoC5/RTC.c **** 
 2156              		.loc 1 1143 0
 2157 0004 7047     		bx	lr
 2158              	.L187:
 2159 0006 00BF     		.align	2
 2160              	.L186:
 2161 0008 00000000 		.word	.LANCHOR1
 2162              		.cfi_endproc
 2163              	.LFE26:
 2164              		.size	RTC_ReadDayOfMonth, .-RTC_ReadDayOfMonth
 2165              		.section	.text.RTC_ReadMonth,"ax",%progbits
 2166              		.align	2
 2167              		.global	RTC_ReadMonth
 2168              		.thumb
 2169              		.thumb_func
 2170              		.type	RTC_ReadMonth, %function
 2171              	RTC_ReadMonth:
 2172              	.LFB27:
1164:.\Generated_Source\PSoC5/RTC.c ****     /* Return current month */
 2173              		.loc 1 1164 0
 2174              		.cfi_startproc
 2175              		@ args = 0, pretend = 0, frame = 0
 2176              		@ frame_needed = 0, uses_anonymous_args = 0
 2177              		@ link register save eliminated.
1166:.\Generated_Source\PSoC5/RTC.c **** }
 2178              		.loc 1 1166 0
 2179 0000 014B     		ldr	r3, .L189
 2180 0002 187C     		ldrb	r0, [r3, #16]	@ zero_extendqisi2
1167:.\Generated_Source\PSoC5/RTC.c **** 
 2181              		.loc 1 1167 0
 2182 0004 7047     		bx	lr
 2183              	.L190:
 2184 0006 00BF     		.align	2
 2185              	.L189:
 2186 0008 00000000 		.word	.LANCHOR1
 2187              		.cfi_endproc
 2188              	.LFE27:
 2189              		.size	RTC_ReadMonth, .-RTC_ReadMonth
 2190              		.section	.text.RTC_ReadYear,"ax",%progbits
 2191              		.align	2
ARM GAS  C:\Users\mark6\AppData\Local\Temp\ccQgPzp9.s 			page 78


 2192              		.global	RTC_ReadYear
 2193              		.thumb
 2194              		.thumb_func
 2195              		.type	RTC_ReadYear, %function
 2196              	RTC_ReadYear:
 2197              	.LFB28:
1188:.\Generated_Source\PSoC5/RTC.c ****     /* Return current year */
 2198              		.loc 1 1188 0
 2199              		.cfi_startproc
 2200              		@ args = 0, pretend = 0, frame = 0
 2201              		@ frame_needed = 0, uses_anonymous_args = 0
 2202              		@ link register save eliminated.
1190:.\Generated_Source\PSoC5/RTC.c **** }
 2203              		.loc 1 1190 0
 2204 0000 014B     		ldr	r3, .L192
 2205 0002 588A     		ldrh	r0, [r3, #18]
1191:.\Generated_Source\PSoC5/RTC.c **** 
 2206              		.loc 1 1191 0
 2207 0004 80B2     		uxth	r0, r0
 2208 0006 7047     		bx	lr
 2209              	.L193:
 2210              		.align	2
 2211              	.L192:
 2212 0008 00000000 		.word	.LANCHOR1
 2213              		.cfi_endproc
 2214              	.LFE28:
 2215              		.size	RTC_ReadYear, .-RTC_ReadYear
 2216              		.section	.text.RTC_ReadAlarmSecond,"ax",%progbits
 2217              		.align	2
 2218              		.global	RTC_ReadAlarmSecond
 2219              		.thumb
 2220              		.thumb_func
 2221              		.type	RTC_ReadAlarmSecond, %function
 2222              	RTC_ReadAlarmSecond:
 2223              	.LFB29:
1213:.\Generated_Source\PSoC5/RTC.c ****     /* Return current alarm second */
 2224              		.loc 1 1213 0
 2225              		.cfi_startproc
 2226              		@ args = 0, pretend = 0, frame = 0
 2227              		@ frame_needed = 0, uses_anonymous_args = 0
 2228              		@ link register save eliminated.
1215:.\Generated_Source\PSoC5/RTC.c **** }
 2229              		.loc 1 1215 0
 2230 0000 014B     		ldr	r3, .L195
 2231 0002 187F     		ldrb	r0, [r3, #28]	@ zero_extendqisi2
1216:.\Generated_Source\PSoC5/RTC.c **** 
 2232              		.loc 1 1216 0
 2233 0004 7047     		bx	lr
 2234              	.L196:
 2235 0006 00BF     		.align	2
 2236              	.L195:
 2237 0008 00000000 		.word	.LANCHOR1
 2238              		.cfi_endproc
 2239              	.LFE29:
 2240              		.size	RTC_ReadAlarmSecond, .-RTC_ReadAlarmSecond
 2241              		.section	.text.RTC_ReadAlarmMinute,"ax",%progbits
 2242              		.align	2
ARM GAS  C:\Users\mark6\AppData\Local\Temp\ccQgPzp9.s 			page 79


 2243              		.global	RTC_ReadAlarmMinute
 2244              		.thumb
 2245              		.thumb_func
 2246              		.type	RTC_ReadAlarmMinute, %function
 2247              	RTC_ReadAlarmMinute:
 2248              	.LFB30:
1237:.\Generated_Source\PSoC5/RTC.c ****     /* Return current alarm minute */
 2249              		.loc 1 1237 0
 2250              		.cfi_startproc
 2251              		@ args = 0, pretend = 0, frame = 0
 2252              		@ frame_needed = 0, uses_anonymous_args = 0
 2253              		@ link register save eliminated.
1239:.\Generated_Source\PSoC5/RTC.c **** }
 2254              		.loc 1 1239 0
 2255 0000 014B     		ldr	r3, .L198
 2256 0002 587F     		ldrb	r0, [r3, #29]	@ zero_extendqisi2
1240:.\Generated_Source\PSoC5/RTC.c **** 
 2257              		.loc 1 1240 0
 2258 0004 7047     		bx	lr
 2259              	.L199:
 2260 0006 00BF     		.align	2
 2261              	.L198:
 2262 0008 00000000 		.word	.LANCHOR1
 2263              		.cfi_endproc
 2264              	.LFE30:
 2265              		.size	RTC_ReadAlarmMinute, .-RTC_ReadAlarmMinute
 2266              		.section	.text.RTC_ReadAlarmHour,"ax",%progbits
 2267              		.align	2
 2268              		.global	RTC_ReadAlarmHour
 2269              		.thumb
 2270              		.thumb_func
 2271              		.type	RTC_ReadAlarmHour, %function
 2272              	RTC_ReadAlarmHour:
 2273              	.LFB31:
1261:.\Generated_Source\PSoC5/RTC.c ****     /* Return current alarm hour */
 2274              		.loc 1 1261 0
 2275              		.cfi_startproc
 2276              		@ args = 0, pretend = 0, frame = 0
 2277              		@ frame_needed = 0, uses_anonymous_args = 0
 2278              		@ link register save eliminated.
1263:.\Generated_Source\PSoC5/RTC.c **** }
 2279              		.loc 1 1263 0
 2280 0000 014B     		ldr	r3, .L201
 2281 0002 987F     		ldrb	r0, [r3, #30]	@ zero_extendqisi2
1264:.\Generated_Source\PSoC5/RTC.c **** 
 2282              		.loc 1 1264 0
 2283 0004 7047     		bx	lr
 2284              	.L202:
 2285 0006 00BF     		.align	2
 2286              	.L201:
 2287 0008 00000000 		.word	.LANCHOR1
 2288              		.cfi_endproc
 2289              	.LFE31:
 2290              		.size	RTC_ReadAlarmHour, .-RTC_ReadAlarmHour
 2291              		.section	.text.RTC_ReadAlarmDayOfMonth,"ax",%progbits
 2292              		.align	2
 2293              		.global	RTC_ReadAlarmDayOfMonth
ARM GAS  C:\Users\mark6\AppData\Local\Temp\ccQgPzp9.s 			page 80


 2294              		.thumb
 2295              		.thumb_func
 2296              		.type	RTC_ReadAlarmDayOfMonth, %function
 2297              	RTC_ReadAlarmDayOfMonth:
 2298              	.LFB32:
1286:.\Generated_Source\PSoC5/RTC.c ****     /* Return current alarm day of month */
 2299              		.loc 1 1286 0
 2300              		.cfi_startproc
 2301              		@ args = 0, pretend = 0, frame = 0
 2302              		@ frame_needed = 0, uses_anonymous_args = 0
 2303              		@ link register save eliminated.
1288:.\Generated_Source\PSoC5/RTC.c **** }
 2304              		.loc 1 1288 0
 2305 0000 014B     		ldr	r3, .L204
 2306 0002 93F82000 		ldrb	r0, [r3, #32]	@ zero_extendqisi2
1289:.\Generated_Source\PSoC5/RTC.c **** 
 2307              		.loc 1 1289 0
 2308 0006 7047     		bx	lr
 2309              	.L205:
 2310              		.align	2
 2311              	.L204:
 2312 0008 00000000 		.word	.LANCHOR1
 2313              		.cfi_endproc
 2314              	.LFE32:
 2315              		.size	RTC_ReadAlarmDayOfMonth, .-RTC_ReadAlarmDayOfMonth
 2316              		.section	.text.RTC_ReadAlarmMonth,"ax",%progbits
 2317              		.align	2
 2318              		.global	RTC_ReadAlarmMonth
 2319              		.thumb
 2320              		.thumb_func
 2321              		.type	RTC_ReadAlarmMonth, %function
 2322              	RTC_ReadAlarmMonth:
 2323              	.LFB33:
1311:.\Generated_Source\PSoC5/RTC.c ****     /* Return current alarm month */
 2324              		.loc 1 1311 0
 2325              		.cfi_startproc
 2326              		@ args = 0, pretend = 0, frame = 0
 2327              		@ frame_needed = 0, uses_anonymous_args = 0
 2328              		@ link register save eliminated.
1313:.\Generated_Source\PSoC5/RTC.c **** }
 2329              		.loc 1 1313 0
 2330 0000 014B     		ldr	r3, .L207
 2331 0002 93F82400 		ldrb	r0, [r3, #36]	@ zero_extendqisi2
1314:.\Generated_Source\PSoC5/RTC.c **** 
 2332              		.loc 1 1314 0
 2333 0006 7047     		bx	lr
 2334              	.L208:
 2335              		.align	2
 2336              	.L207:
 2337 0008 00000000 		.word	.LANCHOR1
 2338              		.cfi_endproc
 2339              	.LFE33:
 2340              		.size	RTC_ReadAlarmMonth, .-RTC_ReadAlarmMonth
 2341              		.section	.text.RTC_ReadAlarmYear,"ax",%progbits
 2342              		.align	2
 2343              		.global	RTC_ReadAlarmYear
 2344              		.thumb
ARM GAS  C:\Users\mark6\AppData\Local\Temp\ccQgPzp9.s 			page 81


 2345              		.thumb_func
 2346              		.type	RTC_ReadAlarmYear, %function
 2347              	RTC_ReadAlarmYear:
 2348              	.LFB34:
1335:.\Generated_Source\PSoC5/RTC.c ****     /* Return current alarm year */
 2349              		.loc 1 1335 0
 2350              		.cfi_startproc
 2351              		@ args = 0, pretend = 0, frame = 0
 2352              		@ frame_needed = 0, uses_anonymous_args = 0
 2353              		@ link register save eliminated.
1337:.\Generated_Source\PSoC5/RTC.c **** }
 2354              		.loc 1 1337 0
 2355 0000 014B     		ldr	r3, .L210
 2356 0002 D88C     		ldrh	r0, [r3, #38]
1338:.\Generated_Source\PSoC5/RTC.c **** 
 2357              		.loc 1 1338 0
 2358 0004 80B2     		uxth	r0, r0
 2359 0006 7047     		bx	lr
 2360              	.L211:
 2361              		.align	2
 2362              	.L210:
 2363 0008 00000000 		.word	.LANCHOR1
 2364              		.cfi_endproc
 2365              	.LFE34:
 2366              		.size	RTC_ReadAlarmYear, .-RTC_ReadAlarmYear
 2367              		.section	.text.RTC_ReadAlarmDayOfWeek,"ax",%progbits
 2368              		.align	2
 2369              		.global	RTC_ReadAlarmDayOfWeek
 2370              		.thumb
 2371              		.thumb_func
 2372              		.type	RTC_ReadAlarmDayOfWeek, %function
 2373              	RTC_ReadAlarmDayOfWeek:
 2374              	.LFB35:
1360:.\Generated_Source\PSoC5/RTC.c ****     /* Return current alarm day of the week */
 2375              		.loc 1 1360 0
 2376              		.cfi_startproc
 2377              		@ args = 0, pretend = 0, frame = 0
 2378              		@ frame_needed = 0, uses_anonymous_args = 0
 2379              		@ link register save eliminated.
1362:.\Generated_Source\PSoC5/RTC.c **** }
 2380              		.loc 1 1362 0
 2381 0000 014B     		ldr	r3, .L213
 2382 0002 D87F     		ldrb	r0, [r3, #31]	@ zero_extendqisi2
1363:.\Generated_Source\PSoC5/RTC.c **** 
 2383              		.loc 1 1363 0
 2384 0004 7047     		bx	lr
 2385              	.L214:
 2386 0006 00BF     		.align	2
 2387              	.L213:
 2388 0008 00000000 		.word	.LANCHOR1
 2389              		.cfi_endproc
 2390              	.LFE35:
 2391              		.size	RTC_ReadAlarmDayOfWeek, .-RTC_ReadAlarmDayOfWeek
 2392              		.section	.text.RTC_ReadAlarmDayOfYear,"ax",%progbits
 2393              		.align	2
 2394              		.global	RTC_ReadAlarmDayOfYear
 2395              		.thumb
ARM GAS  C:\Users\mark6\AppData\Local\Temp\ccQgPzp9.s 			page 82


 2396              		.thumb_func
 2397              		.type	RTC_ReadAlarmDayOfYear, %function
 2398              	RTC_ReadAlarmDayOfYear:
 2399              	.LFB36:
1385:.\Generated_Source\PSoC5/RTC.c ****     /* Return current alarm day of the year */
 2400              		.loc 1 1385 0
 2401              		.cfi_startproc
 2402              		@ args = 0, pretend = 0, frame = 0
 2403              		@ frame_needed = 0, uses_anonymous_args = 0
 2404              		@ link register save eliminated.
1387:.\Generated_Source\PSoC5/RTC.c **** }
 2405              		.loc 1 1387 0
 2406 0000 014B     		ldr	r3, .L216
 2407 0002 588C     		ldrh	r0, [r3, #34]
1388:.\Generated_Source\PSoC5/RTC.c **** 
 2408              		.loc 1 1388 0
 2409 0004 80B2     		uxth	r0, r0
 2410 0006 7047     		bx	lr
 2411              	.L217:
 2412              		.align	2
 2413              	.L216:
 2414 0008 00000000 		.word	.LANCHOR1
 2415              		.cfi_endproc
 2416              	.LFE36:
 2417              		.size	RTC_ReadAlarmDayOfYear, .-RTC_ReadAlarmDayOfYear
 2418              		.section	.text.RTC_WriteAlarmMask,"ax",%progbits
 2419              		.align	2
 2420              		.global	RTC_WriteAlarmMask
 2421              		.thumb
 2422              		.thumb_func
 2423              		.type	RTC_WriteAlarmMask, %function
 2424              	RTC_WriteAlarmMask:
 2425              	.LFB37:
1414:.\Generated_Source\PSoC5/RTC.c ****     RTC_alarmCfgMask = mask;
 2426              		.loc 1 1414 0
 2427              		.cfi_startproc
 2428              		@ args = 0, pretend = 0, frame = 0
 2429              		@ frame_needed = 0, uses_anonymous_args = 0
 2430              		@ link register save eliminated.
 2431              	.LVL77:
1415:.\Generated_Source\PSoC5/RTC.c **** }
 2432              		.loc 1 1415 0
 2433 0000 014B     		ldr	r3, .L219
 2434 0002 5871     		strb	r0, [r3, #5]
 2435 0004 7047     		bx	lr
 2436              	.L220:
 2437 0006 00BF     		.align	2
 2438              	.L219:
 2439 0008 00000000 		.word	.LANCHOR2
 2440              		.cfi_endproc
 2441              	.LFE37:
 2442              		.size	RTC_WriteAlarmMask, .-RTC_WriteAlarmMask
 2443              		.section	.text.RTC_WriteIntervalMask,"ax",%progbits
 2444              		.align	2
 2445              		.global	RTC_WriteIntervalMask
 2446              		.thumb
 2447              		.thumb_func
ARM GAS  C:\Users\mark6\AppData\Local\Temp\ccQgPzp9.s 			page 83


 2448              		.type	RTC_WriteIntervalMask, %function
 2449              	RTC_WriteIntervalMask:
 2450              	.LFB38:
1442:.\Generated_Source\PSoC5/RTC.c ****     RTC_intervalCfgMask = mask;
 2451              		.loc 1 1442 0
 2452              		.cfi_startproc
 2453              		@ args = 0, pretend = 0, frame = 0
 2454              		@ frame_needed = 0, uses_anonymous_args = 0
 2455              		@ link register save eliminated.
 2456              	.LVL78:
1443:.\Generated_Source\PSoC5/RTC.c **** }
 2457              		.loc 1 1443 0
 2458 0000 014B     		ldr	r3, .L222
 2459 0002 1872     		strb	r0, [r3, #8]
 2460 0004 7047     		bx	lr
 2461              	.L223:
 2462 0006 00BF     		.align	2
 2463              	.L222:
 2464 0008 00000000 		.word	.LANCHOR2
 2465              		.cfi_endproc
 2466              	.LFE38:
 2467              		.size	RTC_WriteIntervalMask, .-RTC_WriteIntervalMask
 2468              		.section	.text.RTC_ReadStatus,"ax",%progbits
 2469              		.align	2
 2470              		.global	RTC_ReadStatus
 2471              		.thumb
 2472              		.thumb_func
 2473              		.type	RTC_ReadStatus, %function
 2474              	RTC_ReadStatus:
 2475              	.LFB39:
1473:.\Generated_Source\PSoC5/RTC.c ****     uint8 status;
 2476              		.loc 1 1473 0
 2477              		.cfi_startproc
 2478              		@ args = 0, pretend = 0, frame = 0
 2479              		@ frame_needed = 0, uses_anonymous_args = 0
 2480              		@ link register save eliminated.
1477:.\Generated_Source\PSoC5/RTC.c **** 
 2481              		.loc 1 1477 0
 2482 0000 034B     		ldr	r3, .L225
 2483 0002 1878     		ldrb	r0, [r3]	@ zero_extendqisi2
 2484              	.LVL79:
1480:.\Generated_Source\PSoC5/RTC.c **** 
 2485              		.loc 1 1480 0
 2486 0004 1A78     		ldrb	r2, [r3]	@ zero_extendqisi2
 2487 0006 02F0F702 		and	r2, r2, #247
 2488 000a 1A70     		strb	r2, [r3]
1483:.\Generated_Source\PSoC5/RTC.c **** 
 2489              		.loc 1 1483 0
 2490 000c 7047     		bx	lr
 2491              	.L226:
 2492 000e 00BF     		.align	2
 2493              	.L225:
 2494 0010 00000000 		.word	.LANCHOR2
 2495              		.cfi_endproc
 2496              	.LFE39:
 2497              		.size	RTC_ReadStatus, .-RTC_ReadStatus
 2498              		.section	.text.RTC_WriteDSTMode,"ax",%progbits
ARM GAS  C:\Users\mark6\AppData\Local\Temp\ccQgPzp9.s 			page 84


 2499              		.align	2
 2500              		.global	RTC_WriteDSTMode
 2501              		.thumb
 2502              		.thumb_func
 2503              		.type	RTC_WriteDSTMode, %function
 2504              	RTC_WriteDSTMode:
 2505              	.LFB42:
2055:.\Generated_Source\PSoC5/RTC.c ****                                RTC_alarmCurStatus,
2056:.\Generated_Source\PSoC5/RTC.c ****                                RTC_statusDateTime);
2057:.\Generated_Source\PSoC5/RTC.c **** }
2058:.\Generated_Source\PSoC5/RTC.c **** 
2059:.\Generated_Source\PSoC5/RTC.c **** 
2060:.\Generated_Source\PSoC5/RTC.c **** #if (1u == RTC_DST_FUNC_ENABLE)
2061:.\Generated_Source\PSoC5/RTC.c ****     /*******************************************************************************
2062:.\Generated_Source\PSoC5/RTC.c ****     * Function Name:   RTC_WriteDSTMode
2063:.\Generated_Source\PSoC5/RTC.c ****     ********************************************************************************
2064:.\Generated_Source\PSoC5/RTC.c ****     *
2065:.\Generated_Source\PSoC5/RTC.c ****     * Summary:
2066:.\Generated_Source\PSoC5/RTC.c ****     *  Writes the DST mode software register. That enables or disables DST changes
2067:.\Generated_Source\PSoC5/RTC.c ****     *  and sets the date mode to fixed date or relative date. Only generated if DST
2068:.\Generated_Source\PSoC5/RTC.c ****     *  enabled.
2069:.\Generated_Source\PSoC5/RTC.c ****     *
2070:.\Generated_Source\PSoC5/RTC.c ****     * Parameters:
2071:.\Generated_Source\PSoC5/RTC.c ****     *  mode: DST Mode software register value.
2072:.\Generated_Source\PSoC5/RTC.c ****     *
2073:.\Generated_Source\PSoC5/RTC.c ****     * Return:
2074:.\Generated_Source\PSoC5/RTC.c ****     *  None.
2075:.\Generated_Source\PSoC5/RTC.c ****     *
2076:.\Generated_Source\PSoC5/RTC.c ****     * Global variables:
2077:.\Generated_Source\PSoC5/RTC.c ****     *  RTC_dstModeType: global variable is modified with the new
2078:.\Generated_Source\PSoC5/RTC.c ****     *  DST mode type: relative or fixed.
2079:.\Generated_Source\PSoC5/RTC.c ****     *
2080:.\Generated_Source\PSoC5/RTC.c ****     *  RTC_dstTimeDateStart.Month,
2081:.\Generated_Source\PSoC5/RTC.c ****     *  RTC_dstTimeDateStart.DayOfWeek,
2082:.\Generated_Source\PSoC5/RTC.c ****     *  RTC_dstTimeDateStart.Week:
2083:.\Generated_Source\PSoC5/RTC.c ****     *  RTC_dstTimeDateStop.Month,
2084:.\Generated_Source\PSoC5/RTC.c ****     *  RTC_dstTimeDateStop.DayOfWeek,
2085:.\Generated_Source\PSoC5/RTC.c ****     *  RTC_dstTimeDateStop.Week,
2086:.\Generated_Source\PSoC5/RTC.c ****     *  RTC_currentTimeDate.Year: for the day of week correction,
2087:.\Generated_Source\PSoC5/RTC.c ****     *   they are used by RTC_DSTDateConversion() function if DST
2088:.\Generated_Source\PSoC5/RTC.c ****     *   mode is configured to be relative.
2089:.\Generated_Source\PSoC5/RTC.c ****     *
2090:.\Generated_Source\PSoC5/RTC.c ****     *  RTC_dstTimeDateStart.DayOfMonth,
2091:.\Generated_Source\PSoC5/RTC.c ****     *  RTC_dstTimeDateStop.DayOfMonth: updated after convertion by
2092:.\Generated_Source\PSoC5/RTC.c ****     *  the RTC_DSTDateConversion() function if DST mode is
2093:.\Generated_Source\PSoC5/RTC.c ****     *  configured to be relative.
2094:.\Generated_Source\PSoC5/RTC.c ****     *
2095:.\Generated_Source\PSoC5/RTC.c ****     * Reentrant:
2096:.\Generated_Source\PSoC5/RTC.c ****     *  No.
2097:.\Generated_Source\PSoC5/RTC.c ****     *
2098:.\Generated_Source\PSoC5/RTC.c ****     *******************************************************************************/
2099:.\Generated_Source\PSoC5/RTC.c ****     void RTC_WriteDSTMode(uint8 mode) 
2100:.\Generated_Source\PSoC5/RTC.c ****     {
 2506              		.loc 1 2100 0
 2507              		.cfi_startproc
 2508              		@ args = 0, pretend = 0, frame = 0
 2509              		@ frame_needed = 0, uses_anonymous_args = 0
ARM GAS  C:\Users\mark6\AppData\Local\Temp\ccQgPzp9.s 			page 85


 2510              	.LVL80:
 2511 0000 08B5     		push	{r3, lr}
 2512              		.cfi_def_cfa_offset 8
 2513              		.cfi_offset 3, -8
 2514              		.cfi_offset 14, -4
2101:.\Generated_Source\PSoC5/RTC.c ****         /* Set DST mode */
2102:.\Generated_Source\PSoC5/RTC.c ****         RTC_dstModeType = mode;
 2515              		.loc 1 2102 0
 2516 0002 044B     		ldr	r3, .L230
 2517 0004 5870     		strb	r0, [r3, #1]
2103:.\Generated_Source\PSoC5/RTC.c **** 
2104:.\Generated_Source\PSoC5/RTC.c ****         if(0u != RTC_IS_BIT_SET(mode, RTC_DST_RELDATE))
 2518              		.loc 1 2104 0
 2519 0006 10F0020F 		tst	r0, #2
 2520 000a 01D0     		beq	.L227
2105:.\Generated_Source\PSoC5/RTC.c ****         {
2106:.\Generated_Source\PSoC5/RTC.c ****             /* Convert DST date */
2107:.\Generated_Source\PSoC5/RTC.c ****             RTC_DSTDateConversion();
 2521              		.loc 1 2107 0
 2522 000c FFF7FEFF 		bl	RTC_DSTDateConversion
 2523              	.LVL81:
 2524              	.L227:
 2525 0010 08BD     		pop	{r3, pc}
 2526              	.L231:
 2527 0012 00BF     		.align	2
 2528              	.L230:
 2529 0014 00000000 		.word	.LANCHOR2
 2530              		.cfi_endproc
 2531              	.LFE42:
 2532              		.size	RTC_WriteDSTMode, .-RTC_WriteDSTMode
 2533              		.section	.text.RTC_WriteDSTStartHour,"ax",%progbits
 2534              		.align	2
 2535              		.global	RTC_WriteDSTStartHour
 2536              		.thumb
 2537              		.thumb_func
 2538              		.type	RTC_WriteDSTStartHour, %function
 2539              	RTC_WriteDSTStartHour:
 2540              	.LFB43:
2108:.\Generated_Source\PSoC5/RTC.c ****         }
2109:.\Generated_Source\PSoC5/RTC.c ****     }
2110:.\Generated_Source\PSoC5/RTC.c **** 
2111:.\Generated_Source\PSoC5/RTC.c **** 
2112:.\Generated_Source\PSoC5/RTC.c ****     /*******************************************************************************
2113:.\Generated_Source\PSoC5/RTC.c ****     * Function Name:   RTC_WriteDSTStartHour
2114:.\Generated_Source\PSoC5/RTC.c ****     ********************************************************************************
2115:.\Generated_Source\PSoC5/RTC.c ****     *
2116:.\Generated_Source\PSoC5/RTC.c ****     * Summary:
2117:.\Generated_Source\PSoC5/RTC.c ****     *  Writes the DST Start Hour software register. Used for absolute date entry.
2118:.\Generated_Source\PSoC5/RTC.c ****     *  Only generated if DST is enabled.
2119:.\Generated_Source\PSoC5/RTC.c ****     *
2120:.\Generated_Source\PSoC5/RTC.c ****     * Parameters:
2121:.\Generated_Source\PSoC5/RTC.c ****     *  hour: DST Start Hour software register value.
2122:.\Generated_Source\PSoC5/RTC.c ****     *
2123:.\Generated_Source\PSoC5/RTC.c ****     * Return:
2124:.\Generated_Source\PSoC5/RTC.c ****     *  None.
2125:.\Generated_Source\PSoC5/RTC.c ****     *
2126:.\Generated_Source\PSoC5/RTC.c ****     * Global variables:
ARM GAS  C:\Users\mark6\AppData\Local\Temp\ccQgPzp9.s 			page 86


2127:.\Generated_Source\PSoC5/RTC.c ****     *  RTC_dstTimeDateStart.Hour: global variable is modified with
2128:.\Generated_Source\PSoC5/RTC.c ****     *  the new value.
2129:.\Generated_Source\PSoC5/RTC.c ****     *
2130:.\Generated_Source\PSoC5/RTC.c ****     * Reentrant:
2131:.\Generated_Source\PSoC5/RTC.c ****     *  No.
2132:.\Generated_Source\PSoC5/RTC.c ****     *
2133:.\Generated_Source\PSoC5/RTC.c ****     *******************************************************************************/
2134:.\Generated_Source\PSoC5/RTC.c ****     void RTC_WriteDSTStartHour(uint8 hour) 
2135:.\Generated_Source\PSoC5/RTC.c ****     {
 2541              		.loc 1 2135 0
 2542              		.cfi_startproc
 2543              		@ args = 0, pretend = 0, frame = 0
 2544              		@ frame_needed = 0, uses_anonymous_args = 0
 2545              		@ link register save eliminated.
 2546              	.LVL82:
2136:.\Generated_Source\PSoC5/RTC.c ****         /* Set DST Start Hour */
2137:.\Generated_Source\PSoC5/RTC.c ****         RTC_dstTimeDateStart.Hour = hour;
 2547              		.loc 1 2137 0
 2548 0000 014B     		ldr	r3, .L233
 2549 0002 1870     		strb	r0, [r3]
 2550 0004 7047     		bx	lr
 2551              	.L234:
 2552 0006 00BF     		.align	2
 2553              	.L233:
 2554 0008 00000000 		.word	.LANCHOR1
 2555              		.cfi_endproc
 2556              	.LFE43:
 2557              		.size	RTC_WriteDSTStartHour, .-RTC_WriteDSTStartHour
 2558              		.section	.text.RTC_WriteDSTStartDayOfMonth,"ax",%progbits
 2559              		.align	2
 2560              		.global	RTC_WriteDSTStartDayOfMonth
 2561              		.thumb
 2562              		.thumb_func
 2563              		.type	RTC_WriteDSTStartDayOfMonth, %function
 2564              	RTC_WriteDSTStartDayOfMonth:
 2565              	.LFB44:
2138:.\Generated_Source\PSoC5/RTC.c ****     }
2139:.\Generated_Source\PSoC5/RTC.c **** 
2140:.\Generated_Source\PSoC5/RTC.c **** 
2141:.\Generated_Source\PSoC5/RTC.c ****     /*******************************************************************************
2142:.\Generated_Source\PSoC5/RTC.c ****     * Function Name:   RTC_WriteDSTStartOfMonth
2143:.\Generated_Source\PSoC5/RTC.c ****     ********************************************************************************
2144:.\Generated_Source\PSoC5/RTC.c ****     *
2145:.\Generated_Source\PSoC5/RTC.c ****     * Summary:
2146:.\Generated_Source\PSoC5/RTC.c ****     *  Writes the DST Start DayOfMonth software register. Used for absolute date
2147:.\Generated_Source\PSoC5/RTC.c ****     *  entry. Only generated if DST is enabled.
2148:.\Generated_Source\PSoC5/RTC.c ****     *
2149:.\Generated_Source\PSoC5/RTC.c ****     * Parameters:
2150:.\Generated_Source\PSoC5/RTC.c ****     *  dayOfMonth: DST Start DayOfMonth software register value.
2151:.\Generated_Source\PSoC5/RTC.c ****     *
2152:.\Generated_Source\PSoC5/RTC.c ****     * Return:
2153:.\Generated_Source\PSoC5/RTC.c ****     *  None.
2154:.\Generated_Source\PSoC5/RTC.c ****     *
2155:.\Generated_Source\PSoC5/RTC.c ****     * Global variables:
2156:.\Generated_Source\PSoC5/RTC.c ****     *  RTC_dstTimeDateStart.DayOfMonth: global variable is modified
2157:.\Generated_Source\PSoC5/RTC.c ****     *  with the new value.
2158:.\Generated_Source\PSoC5/RTC.c ****     *
ARM GAS  C:\Users\mark6\AppData\Local\Temp\ccQgPzp9.s 			page 87


2159:.\Generated_Source\PSoC5/RTC.c ****     * Reentrant:
2160:.\Generated_Source\PSoC5/RTC.c ****     *  No.
2161:.\Generated_Source\PSoC5/RTC.c ****     *
2162:.\Generated_Source\PSoC5/RTC.c ****     *******************************************************************************/
2163:.\Generated_Source\PSoC5/RTC.c ****     void RTC_WriteDSTStartDayOfMonth(uint8 dayOfMonth)
2164:.\Generated_Source\PSoC5/RTC.c ****          
2165:.\Generated_Source\PSoC5/RTC.c ****     {
 2566              		.loc 1 2165 0
 2567              		.cfi_startproc
 2568              		@ args = 0, pretend = 0, frame = 0
 2569              		@ frame_needed = 0, uses_anonymous_args = 0
 2570              		@ link register save eliminated.
 2571              	.LVL83:
2166:.\Generated_Source\PSoC5/RTC.c ****         /* Set DST Start day of month */
2167:.\Generated_Source\PSoC5/RTC.c ****         RTC_dstTimeDateStart.DayOfMonth = dayOfMonth;
 2572              		.loc 1 2167 0
 2573 0000 014B     		ldr	r3, .L236
 2574 0002 D870     		strb	r0, [r3, #3]
 2575 0004 7047     		bx	lr
 2576              	.L237:
 2577 0006 00BF     		.align	2
 2578              	.L236:
 2579 0008 00000000 		.word	.LANCHOR1
 2580              		.cfi_endproc
 2581              	.LFE44:
 2582              		.size	RTC_WriteDSTStartDayOfMonth, .-RTC_WriteDSTStartDayOfMonth
 2583              		.section	.text.RTC_WriteDSTStartMonth,"ax",%progbits
 2584              		.align	2
 2585              		.global	RTC_WriteDSTStartMonth
 2586              		.thumb
 2587              		.thumb_func
 2588              		.type	RTC_WriteDSTStartMonth, %function
 2589              	RTC_WriteDSTStartMonth:
 2590              	.LFB45:
2168:.\Generated_Source\PSoC5/RTC.c ****     }
2169:.\Generated_Source\PSoC5/RTC.c **** 
2170:.\Generated_Source\PSoC5/RTC.c **** 
2171:.\Generated_Source\PSoC5/RTC.c ****     /*******************************************************************************
2172:.\Generated_Source\PSoC5/RTC.c ****     * Function Name:   RTC_WriteDSTStartMonth
2173:.\Generated_Source\PSoC5/RTC.c ****     ********************************************************************************
2174:.\Generated_Source\PSoC5/RTC.c ****     *
2175:.\Generated_Source\PSoC5/RTC.c ****     * Summary:
2176:.\Generated_Source\PSoC5/RTC.c ****     *  Writes the DST Start Month software register. Used for absolute date entry.
2177:.\Generated_Source\PSoC5/RTC.c ****     *  Only generated if DST is enabled.
2178:.\Generated_Source\PSoC5/RTC.c ****     *
2179:.\Generated_Source\PSoC5/RTC.c ****     * Parameters:
2180:.\Generated_Source\PSoC5/RTC.c ****     *  month: DST Start month software register value.
2181:.\Generated_Source\PSoC5/RTC.c ****     *
2182:.\Generated_Source\PSoC5/RTC.c ****     * Return:
2183:.\Generated_Source\PSoC5/RTC.c ****     *  None.
2184:.\Generated_Source\PSoC5/RTC.c ****     *
2185:.\Generated_Source\PSoC5/RTC.c ****     * Global variables:
2186:.\Generated_Source\PSoC5/RTC.c ****     *  RTC_dstTimeDateStart.Month: global variable is modified
2187:.\Generated_Source\PSoC5/RTC.c ****     *  with the new value.
2188:.\Generated_Source\PSoC5/RTC.c ****     *
2189:.\Generated_Source\PSoC5/RTC.c ****     * Reentrant:
2190:.\Generated_Source\PSoC5/RTC.c ****     *  No.
ARM GAS  C:\Users\mark6\AppData\Local\Temp\ccQgPzp9.s 			page 88


2191:.\Generated_Source\PSoC5/RTC.c ****     *
2192:.\Generated_Source\PSoC5/RTC.c ****     *******************************************************************************/
2193:.\Generated_Source\PSoC5/RTC.c ****     void RTC_WriteDSTStartMonth(uint8 month) 
2194:.\Generated_Source\PSoC5/RTC.c ****     {
 2591              		.loc 1 2194 0
 2592              		.cfi_startproc
 2593              		@ args = 0, pretend = 0, frame = 0
 2594              		@ frame_needed = 0, uses_anonymous_args = 0
 2595              		@ link register save eliminated.
 2596              	.LVL84:
2195:.\Generated_Source\PSoC5/RTC.c ****         /* Set DST Start month */
2196:.\Generated_Source\PSoC5/RTC.c ****         RTC_dstTimeDateStart.Month = month;
 2597              		.loc 1 2196 0
 2598 0000 014B     		ldr	r3, .L239
 2599 0002 1871     		strb	r0, [r3, #4]
 2600 0004 7047     		bx	lr
 2601              	.L240:
 2602 0006 00BF     		.align	2
 2603              	.L239:
 2604 0008 00000000 		.word	.LANCHOR1
 2605              		.cfi_endproc
 2606              	.LFE45:
 2607              		.size	RTC_WriteDSTStartMonth, .-RTC_WriteDSTStartMonth
 2608              		.section	.text.RTC_WriteDSTStartDayOfWeek,"ax",%progbits
 2609              		.align	2
 2610              		.global	RTC_WriteDSTStartDayOfWeek
 2611              		.thumb
 2612              		.thumb_func
 2613              		.type	RTC_WriteDSTStartDayOfWeek, %function
 2614              	RTC_WriteDSTStartDayOfWeek:
 2615              	.LFB46:
2197:.\Generated_Source\PSoC5/RTC.c ****     }
2198:.\Generated_Source\PSoC5/RTC.c **** 
2199:.\Generated_Source\PSoC5/RTC.c **** 
2200:.\Generated_Source\PSoC5/RTC.c ****     /*******************************************************************************
2201:.\Generated_Source\PSoC5/RTC.c ****     * Function Name:   RTC_WriteDSTStartDayOfWeek
2202:.\Generated_Source\PSoC5/RTC.c ****     ********************************************************************************
2203:.\Generated_Source\PSoC5/RTC.c ****     *
2204:.\Generated_Source\PSoC5/RTC.c ****     * Summary:
2205:.\Generated_Source\PSoC5/RTC.c ****     *  Writes the DST Start DayOfWeek software register. Used for absolute date
2206:.\Generated_Source\PSoC5/RTC.c ****     *  entry. Only generated if DST is enabled.
2207:.\Generated_Source\PSoC5/RTC.c ****     *
2208:.\Generated_Source\PSoC5/RTC.c ****     * Parameters:
2209:.\Generated_Source\PSoC5/RTC.c ****     *  dayOfWeek: DST start day of week software register value.
2210:.\Generated_Source\PSoC5/RTC.c ****     *
2211:.\Generated_Source\PSoC5/RTC.c ****     * Return:
2212:.\Generated_Source\PSoC5/RTC.c ****     *  None.
2213:.\Generated_Source\PSoC5/RTC.c ****     *
2214:.\Generated_Source\PSoC5/RTC.c ****     * Global variables:
2215:.\Generated_Source\PSoC5/RTC.c ****     *  RTC_dstModeType: global variable, where DST mode type:
2216:.\Generated_Source\PSoC5/RTC.c ****     *  relative or fixed is stored.
2217:.\Generated_Source\PSoC5/RTC.c ****     *
2218:.\Generated_Source\PSoC5/RTC.c ****     *  RTC_dstTimeDateStart.Month,
2219:.\Generated_Source\PSoC5/RTC.c ****     *  RTC_dstTimeDateStart.DayOfWeek,
2220:.\Generated_Source\PSoC5/RTC.c ****     *  RTC_dstTimeDateStart.Week,
2221:.\Generated_Source\PSoC5/RTC.c ****     *  RTC_dstTimeDateStop.Month,
2222:.\Generated_Source\PSoC5/RTC.c ****     *  RTC_dstTimeDateStop.DayOfWeek,
ARM GAS  C:\Users\mark6\AppData\Local\Temp\ccQgPzp9.s 			page 89


2223:.\Generated_Source\PSoC5/RTC.c ****     *  RTC_dstTimeDateStop.Week: for the day of week correction,
2224:.\Generated_Source\PSoC5/RTC.c ****     *   they are used by RTC_DSTDateConversion() function if DST
2225:.\Generated_Source\PSoC5/RTC.c ****     *   mode is configured to be relative.
2226:.\Generated_Source\PSoC5/RTC.c ****     *
2227:.\Generated_Source\PSoC5/RTC.c ****     *  RTC_currentTimeDate.Year: for the day of week calculation,
2228:.\Generated_Source\PSoC5/RTC.c ****     *   it is used by RTC_DSTDateConversion() function if DST
2229:.\Generated_Source\PSoC5/RTC.c ****     *   mode is configured to be relative.
2230:.\Generated_Source\PSoC5/RTC.c ****     *
2231:.\Generated_Source\PSoC5/RTC.c ****     *  RTC_dstTimeDateStart.DayOfWeek: global variable is modified
2232:.\Generated_Source\PSoC5/RTC.c ****     *  with the new day of week value.
2233:.\Generated_Source\PSoC5/RTC.c ****     *
2234:.\Generated_Source\PSoC5/RTC.c ****     *  RTC_dstTimeDateStart.DayOfMonth and
2235:.\Generated_Source\PSoC5/RTC.c ****     *  RTC_dstTimeDateStop.DayOfMonth are modified by
2236:.\Generated_Source\PSoC5/RTC.c ****     *  the RTC_DSTDateConversion() function if DST mode is
2237:.\Generated_Source\PSoC5/RTC.c ****     *  configured to be relative.
2238:.\Generated_Source\PSoC5/RTC.c ****     *
2239:.\Generated_Source\PSoC5/RTC.c ****     * Reentrant:
2240:.\Generated_Source\PSoC5/RTC.c ****     *  No.
2241:.\Generated_Source\PSoC5/RTC.c ****     *
2242:.\Generated_Source\PSoC5/RTC.c ****     *******************************************************************************/
2243:.\Generated_Source\PSoC5/RTC.c ****     void RTC_WriteDSTStartDayOfWeek(uint8 dayOfWeek)
2244:.\Generated_Source\PSoC5/RTC.c ****          
2245:.\Generated_Source\PSoC5/RTC.c ****     {
 2616              		.loc 1 2245 0
 2617              		.cfi_startproc
 2618              		@ args = 0, pretend = 0, frame = 0
 2619              		@ frame_needed = 0, uses_anonymous_args = 0
 2620              	.LVL85:
 2621 0000 08B5     		push	{r3, lr}
 2622              		.cfi_def_cfa_offset 8
 2623              		.cfi_offset 3, -8
 2624              		.cfi_offset 14, -4
2246:.\Generated_Source\PSoC5/RTC.c ****         /* Set DST Start day of week */
2247:.\Generated_Source\PSoC5/RTC.c ****         RTC_dstTimeDateStart.DayOfWeek = dayOfWeek;
 2625              		.loc 1 2247 0
 2626 0002 054B     		ldr	r3, .L244
 2627 0004 5870     		strb	r0, [r3, #1]
2248:.\Generated_Source\PSoC5/RTC.c **** 
2249:.\Generated_Source\PSoC5/RTC.c ****         if(0u != RTC_IS_BIT_SET(RTC_dstModeType, RTC_DST_RELDATE))
 2628              		.loc 1 2249 0
 2629 0006 054B     		ldr	r3, .L244+4
 2630 0008 5B78     		ldrb	r3, [r3, #1]	@ zero_extendqisi2
 2631 000a 13F0020F 		tst	r3, #2
 2632 000e 01D0     		beq	.L241
2250:.\Generated_Source\PSoC5/RTC.c ****         {
2251:.\Generated_Source\PSoC5/RTC.c ****             /* Convert DST date */
2252:.\Generated_Source\PSoC5/RTC.c ****             RTC_DSTDateConversion();
 2633              		.loc 1 2252 0
 2634 0010 FFF7FEFF 		bl	RTC_DSTDateConversion
 2635              	.LVL86:
 2636              	.L241:
 2637 0014 08BD     		pop	{r3, pc}
 2638              	.L245:
 2639 0016 00BF     		.align	2
 2640              	.L244:
 2641 0018 00000000 		.word	.LANCHOR1
 2642 001c 00000000 		.word	.LANCHOR2
ARM GAS  C:\Users\mark6\AppData\Local\Temp\ccQgPzp9.s 			page 90


 2643              		.cfi_endproc
 2644              	.LFE46:
 2645              		.size	RTC_WriteDSTStartDayOfWeek, .-RTC_WriteDSTStartDayOfWeek
 2646              		.section	.text.RTC_WriteDSTStartWeek,"ax",%progbits
 2647              		.align	2
 2648              		.global	RTC_WriteDSTStartWeek
 2649              		.thumb
 2650              		.thumb_func
 2651              		.type	RTC_WriteDSTStartWeek, %function
 2652              	RTC_WriteDSTStartWeek:
 2653              	.LFB47:
2253:.\Generated_Source\PSoC5/RTC.c ****         }
2254:.\Generated_Source\PSoC5/RTC.c ****     }
2255:.\Generated_Source\PSoC5/RTC.c **** 
2256:.\Generated_Source\PSoC5/RTC.c **** 
2257:.\Generated_Source\PSoC5/RTC.c ****     /*******************************************************************************
2258:.\Generated_Source\PSoC5/RTC.c ****     * Function Name:   RTC_WriteDSTStartWeek
2259:.\Generated_Source\PSoC5/RTC.c ****     ********************************************************************************
2260:.\Generated_Source\PSoC5/RTC.c ****     *
2261:.\Generated_Source\PSoC5/RTC.c ****     * Summary:
2262:.\Generated_Source\PSoC5/RTC.c ****     *  Writes the DST Start Week software register. Used for absolute date entry.
2263:.\Generated_Source\PSoC5/RTC.c ****     *  Only generated if DST is enabled.
2264:.\Generated_Source\PSoC5/RTC.c ****     *
2265:.\Generated_Source\PSoC5/RTC.c ****     * Parameters:
2266:.\Generated_Source\PSoC5/RTC.c ****     *  week: DST start week software register value.
2267:.\Generated_Source\PSoC5/RTC.c ****     *
2268:.\Generated_Source\PSoC5/RTC.c ****     * Return:
2269:.\Generated_Source\PSoC5/RTC.c ****     *  None.
2270:.\Generated_Source\PSoC5/RTC.c ****     *
2271:.\Generated_Source\PSoC5/RTC.c ****     * Global variables:
2272:.\Generated_Source\PSoC5/RTC.c ****     *  RTC_dstTimeDateStart.Week: global variable is modified with
2273:.\Generated_Source\PSoC5/RTC.c ****     *   the new week's value of the DST start time/date.
2274:.\Generated_Source\PSoC5/RTC.c ****     *
2275:.\Generated_Source\PSoC5/RTC.c ****     *  RTC_dstTimeDateStart.DayOfMonth,
2276:.\Generated_Source\PSoC5/RTC.c ****     *  RTC_dstTimeDateStop.DayOfMonth: is modified after convertion
2277:.\Generated_Source\PSoC5/RTC.c ****     *  by the RTC_DSTDateConversion() function if DST mode is
2278:.\Generated_Source\PSoC5/RTC.c ****     *  configured to be relative.
2279:.\Generated_Source\PSoC5/RTC.c ****     *
2280:.\Generated_Source\PSoC5/RTC.c ****     *  RTC_dstModeType: global variable is used for theDST mode
2281:.\Generated_Source\PSoC5/RTC.c ****     *   type: relative or fixed store.
2282:.\Generated_Source\PSoC5/RTC.c ****     *
2283:.\Generated_Source\PSoC5/RTC.c ****     *  RTC_dstTimeDateStart.Month,
2284:.\Generated_Source\PSoC5/RTC.c ****     *  RTC_dstTimeDateStart.DayOfWeek,
2285:.\Generated_Source\PSoC5/RTC.c ****     *  RTC_dstTimeDateStart.Week: for the day of week correction,
2286:.\Generated_Source\PSoC5/RTC.c ****     *   they are used by RTC_DSTDateConversion() function if DST
2287:.\Generated_Source\PSoC5/RTC.c ****     *   mode is configured to be relative.
2288:.\Generated_Source\PSoC5/RTC.c ****     *
2289:.\Generated_Source\PSoC5/RTC.c ****     *  RTC_dstTimeDateStop.Month,
2290:.\Generated_Source\PSoC5/RTC.c ****     *  RTC_dstTimeDateStop.DayOfWeek,
2291:.\Generated_Source\PSoC5/RTC.c ****     *  RTC_dstTimeDateStop.Week: for the day of week correction,
2292:.\Generated_Source\PSoC5/RTC.c ****     *   they are used by RTC_DSTDateConversion() function if DST
2293:.\Generated_Source\PSoC5/RTC.c ****     *   mode is configured to be relative.
2294:.\Generated_Source\PSoC5/RTC.c ****     *
2295:.\Generated_Source\PSoC5/RTC.c ****     *  RTC_currentTimeDate.Year: for the day of week calculation,
2296:.\Generated_Source\PSoC5/RTC.c ****     *   it is used by RTC_DSTDateConversion() function if DST
2297:.\Generated_Source\PSoC5/RTC.c ****     *   mode is configured to be relative.
2298:.\Generated_Source\PSoC5/RTC.c ****     *
ARM GAS  C:\Users\mark6\AppData\Local\Temp\ccQgPzp9.s 			page 91


2299:.\Generated_Source\PSoC5/RTC.c ****     * Reentrant:
2300:.\Generated_Source\PSoC5/RTC.c ****     *  No.
2301:.\Generated_Source\PSoC5/RTC.c ****     *
2302:.\Generated_Source\PSoC5/RTC.c ****     *******************************************************************************/
2303:.\Generated_Source\PSoC5/RTC.c ****     void RTC_WriteDSTStartWeek(uint8 week) 
2304:.\Generated_Source\PSoC5/RTC.c ****     {
 2654              		.loc 1 2304 0
 2655              		.cfi_startproc
 2656              		@ args = 0, pretend = 0, frame = 0
 2657              		@ frame_needed = 0, uses_anonymous_args = 0
 2658              	.LVL87:
 2659 0000 08B5     		push	{r3, lr}
 2660              		.cfi_def_cfa_offset 8
 2661              		.cfi_offset 3, -8
 2662              		.cfi_offset 14, -4
2305:.\Generated_Source\PSoC5/RTC.c ****         /* Set DST Start week */
2306:.\Generated_Source\PSoC5/RTC.c ****         RTC_dstTimeDateStart.Week = week;
 2663              		.loc 1 2306 0
 2664 0002 054B     		ldr	r3, .L249
 2665 0004 9870     		strb	r0, [r3, #2]
2307:.\Generated_Source\PSoC5/RTC.c **** 
2308:.\Generated_Source\PSoC5/RTC.c ****         if(0u != RTC_IS_BIT_SET(RTC_dstModeType, RTC_DST_RELDATE))
 2666              		.loc 1 2308 0
 2667 0006 054B     		ldr	r3, .L249+4
 2668 0008 5B78     		ldrb	r3, [r3, #1]	@ zero_extendqisi2
 2669 000a 13F0020F 		tst	r3, #2
 2670 000e 01D0     		beq	.L246
2309:.\Generated_Source\PSoC5/RTC.c ****         {
2310:.\Generated_Source\PSoC5/RTC.c ****             /* Convert DST date */
2311:.\Generated_Source\PSoC5/RTC.c ****             RTC_DSTDateConversion();
 2671              		.loc 1 2311 0
 2672 0010 FFF7FEFF 		bl	RTC_DSTDateConversion
 2673              	.LVL88:
 2674              	.L246:
 2675 0014 08BD     		pop	{r3, pc}
 2676              	.L250:
 2677 0016 00BF     		.align	2
 2678              	.L249:
 2679 0018 00000000 		.word	.LANCHOR1
 2680 001c 00000000 		.word	.LANCHOR2
 2681              		.cfi_endproc
 2682              	.LFE47:
 2683              		.size	RTC_WriteDSTStartWeek, .-RTC_WriteDSTStartWeek
 2684              		.section	.text.RTC_WriteDSTStopHour,"ax",%progbits
 2685              		.align	2
 2686              		.global	RTC_WriteDSTStopHour
 2687              		.thumb
 2688              		.thumb_func
 2689              		.type	RTC_WriteDSTStopHour, %function
 2690              	RTC_WriteDSTStopHour:
 2691              	.LFB48:
2312:.\Generated_Source\PSoC5/RTC.c ****         }
2313:.\Generated_Source\PSoC5/RTC.c ****     }
2314:.\Generated_Source\PSoC5/RTC.c **** 
2315:.\Generated_Source\PSoC5/RTC.c **** 
2316:.\Generated_Source\PSoC5/RTC.c ****     /*******************************************************************************
2317:.\Generated_Source\PSoC5/RTC.c ****     * Function Name:   RTC_WriteDSTStopHour
ARM GAS  C:\Users\mark6\AppData\Local\Temp\ccQgPzp9.s 			page 92


2318:.\Generated_Source\PSoC5/RTC.c ****     ********************************************************************************
2319:.\Generated_Source\PSoC5/RTC.c ****     *
2320:.\Generated_Source\PSoC5/RTC.c ****     * Summary:
2321:.\Generated_Source\PSoC5/RTC.c ****     *  Writes the DST Stop Hour software register. Used for absolute date entry.
2322:.\Generated_Source\PSoC5/RTC.c ****     *  Only generated if DST is enabled.
2323:.\Generated_Source\PSoC5/RTC.c ****     *
2324:.\Generated_Source\PSoC5/RTC.c ****     * Parameters:
2325:.\Generated_Source\PSoC5/RTC.c ****     *  hour: DST stop hour software register value.
2326:.\Generated_Source\PSoC5/RTC.c ****     *
2327:.\Generated_Source\PSoC5/RTC.c ****     * Return:
2328:.\Generated_Source\PSoC5/RTC.c ****     *  None.
2329:.\Generated_Source\PSoC5/RTC.c ****     *
2330:.\Generated_Source\PSoC5/RTC.c ****     * Global variables:
2331:.\Generated_Source\PSoC5/RTC.c ****     *  RTC_dstTimeDateStart.Hour: global variable is modified with the new hour
2332:.\Generated_Source\PSoC5/RTC.c ****     *   of the DST start time/date.
2333:.\Generated_Source\PSoC5/RTC.c ****     *
2334:.\Generated_Source\PSoC5/RTC.c ****     * Reentrant:
2335:.\Generated_Source\PSoC5/RTC.c ****     *  No.
2336:.\Generated_Source\PSoC5/RTC.c ****     *
2337:.\Generated_Source\PSoC5/RTC.c ****     *******************************************************************************/
2338:.\Generated_Source\PSoC5/RTC.c ****     void RTC_WriteDSTStopHour(uint8 hour) 
2339:.\Generated_Source\PSoC5/RTC.c ****     {
 2692              		.loc 1 2339 0
 2693              		.cfi_startproc
 2694              		@ args = 0, pretend = 0, frame = 0
 2695              		@ frame_needed = 0, uses_anonymous_args = 0
 2696              		@ link register save eliminated.
 2697              	.LVL89:
2340:.\Generated_Source\PSoC5/RTC.c ****         /* Set DST Stop hour */
2341:.\Generated_Source\PSoC5/RTC.c ****         RTC_dstTimeDateStop.Hour = hour;
 2698              		.loc 1 2341 0
 2699 0000 014B     		ldr	r3, .L252
 2700 0002 1875     		strb	r0, [r3, #20]
 2701 0004 7047     		bx	lr
 2702              	.L253:
 2703 0006 00BF     		.align	2
 2704              	.L252:
 2705 0008 00000000 		.word	.LANCHOR1
 2706              		.cfi_endproc
 2707              	.LFE48:
 2708              		.size	RTC_WriteDSTStopHour, .-RTC_WriteDSTStopHour
 2709              		.section	.text.RTC_WriteDSTStopDayOfMonth,"ax",%progbits
 2710              		.align	2
 2711              		.global	RTC_WriteDSTStopDayOfMonth
 2712              		.thumb
 2713              		.thumb_func
 2714              		.type	RTC_WriteDSTStopDayOfMonth, %function
 2715              	RTC_WriteDSTStopDayOfMonth:
 2716              	.LFB49:
2342:.\Generated_Source\PSoC5/RTC.c ****     }
2343:.\Generated_Source\PSoC5/RTC.c **** 
2344:.\Generated_Source\PSoC5/RTC.c **** 
2345:.\Generated_Source\PSoC5/RTC.c ****     /*******************************************************************************
2346:.\Generated_Source\PSoC5/RTC.c ****     * Function Name:   RTC_WriteDSTStopDayOfMonth
2347:.\Generated_Source\PSoC5/RTC.c ****     ********************************************************************************
2348:.\Generated_Source\PSoC5/RTC.c ****     *
2349:.\Generated_Source\PSoC5/RTC.c ****     * Summary:
ARM GAS  C:\Users\mark6\AppData\Local\Temp\ccQgPzp9.s 			page 93


2350:.\Generated_Source\PSoC5/RTC.c ****     *  Writes the DST Stop DayOfMonth software register. Used for absolute date
2351:.\Generated_Source\PSoC5/RTC.c ****     *  entry. Only generated if DST is enabled.
2352:.\Generated_Source\PSoC5/RTC.c ****     *
2353:.\Generated_Source\PSoC5/RTC.c ****     * Parameters:
2354:.\Generated_Source\PSoC5/RTC.c ****     *  dayOfMonth: DST stop day of month software register value.
2355:.\Generated_Source\PSoC5/RTC.c ****     *
2356:.\Generated_Source\PSoC5/RTC.c ****     * Return:
2357:.\Generated_Source\PSoC5/RTC.c ****     *  None.
2358:.\Generated_Source\PSoC5/RTC.c ****     *
2359:.\Generated_Source\PSoC5/RTC.c ****     * Global variables:
2360:.\Generated_Source\PSoC5/RTC.c ****     *  RTC_dstTimeDateStop.DayOfMonth: global variable is modified
2361:.\Generated_Source\PSoC5/RTC.c ****     *  where new day of month's value of the DST stop time/date.
2362:.\Generated_Source\PSoC5/RTC.c ****     *
2363:.\Generated_Source\PSoC5/RTC.c ****     * Reentrant:
2364:.\Generated_Source\PSoC5/RTC.c ****     *  No.
2365:.\Generated_Source\PSoC5/RTC.c ****     *
2366:.\Generated_Source\PSoC5/RTC.c ****     *******************************************************************************/
2367:.\Generated_Source\PSoC5/RTC.c ****     void RTC_WriteDSTStopDayOfMonth(uint8 dayOfMonth)
2368:.\Generated_Source\PSoC5/RTC.c ****          
2369:.\Generated_Source\PSoC5/RTC.c ****     {
 2717              		.loc 1 2369 0
 2718              		.cfi_startproc
 2719              		@ args = 0, pretend = 0, frame = 0
 2720              		@ frame_needed = 0, uses_anonymous_args = 0
 2721              		@ link register save eliminated.
 2722              	.LVL90:
2370:.\Generated_Source\PSoC5/RTC.c ****         /* Set DST Start day of month */
2371:.\Generated_Source\PSoC5/RTC.c ****         RTC_dstTimeDateStop.DayOfMonth = dayOfMonth;
 2723              		.loc 1 2371 0
 2724 0000 014B     		ldr	r3, .L255
 2725 0002 D875     		strb	r0, [r3, #23]
 2726 0004 7047     		bx	lr
 2727              	.L256:
 2728 0006 00BF     		.align	2
 2729              	.L255:
 2730 0008 00000000 		.word	.LANCHOR1
 2731              		.cfi_endproc
 2732              	.LFE49:
 2733              		.size	RTC_WriteDSTStopDayOfMonth, .-RTC_WriteDSTStopDayOfMonth
 2734              		.section	.text.RTC_WriteDSTStopMonth,"ax",%progbits
 2735              		.align	2
 2736              		.global	RTC_WriteDSTStopMonth
 2737              		.thumb
 2738              		.thumb_func
 2739              		.type	RTC_WriteDSTStopMonth, %function
 2740              	RTC_WriteDSTStopMonth:
 2741              	.LFB50:
2372:.\Generated_Source\PSoC5/RTC.c ****     }
2373:.\Generated_Source\PSoC5/RTC.c **** 
2374:.\Generated_Source\PSoC5/RTC.c **** 
2375:.\Generated_Source\PSoC5/RTC.c ****     /*******************************************************************************
2376:.\Generated_Source\PSoC5/RTC.c ****     * Function Name:   RTC_WriteDSTStopMonth
2377:.\Generated_Source\PSoC5/RTC.c ****     ********************************************************************************
2378:.\Generated_Source\PSoC5/RTC.c ****     *
2379:.\Generated_Source\PSoC5/RTC.c ****     * Summary:
2380:.\Generated_Source\PSoC5/RTC.c ****     *  Writes the DST Stop Month software  register. Used for absolute date entry.
2381:.\Generated_Source\PSoC5/RTC.c ****     *  Only generated if DST is enabled.
ARM GAS  C:\Users\mark6\AppData\Local\Temp\ccQgPzp9.s 			page 94


2382:.\Generated_Source\PSoC5/RTC.c ****     *
2383:.\Generated_Source\PSoC5/RTC.c ****     * Parameters:
2384:.\Generated_Source\PSoC5/RTC.c ****     *  month: DST Stop Month software register value.
2385:.\Generated_Source\PSoC5/RTC.c ****     *
2386:.\Generated_Source\PSoC5/RTC.c ****     * Return:
2387:.\Generated_Source\PSoC5/RTC.c ****     *  None.
2388:.\Generated_Source\PSoC5/RTC.c ****     *
2389:.\Generated_Source\PSoC5/RTC.c ****     * Global variables:
2390:.\Generated_Source\PSoC5/RTC.c ****     *  RTC_dstTimeDateStop.Month: global variable is modified with
2391:.\Generated_Source\PSoC5/RTC.c ****     *   the new month of the DST stop time/date.
2392:.\Generated_Source\PSoC5/RTC.c ****     *
2393:.\Generated_Source\PSoC5/RTC.c ****     * Reentrant:
2394:.\Generated_Source\PSoC5/RTC.c ****     *  No.
2395:.\Generated_Source\PSoC5/RTC.c ****     *
2396:.\Generated_Source\PSoC5/RTC.c ****     *******************************************************************************/
2397:.\Generated_Source\PSoC5/RTC.c ****     void RTC_WriteDSTStopMonth(uint8 month) 
2398:.\Generated_Source\PSoC5/RTC.c ****     {
 2742              		.loc 1 2398 0
 2743              		.cfi_startproc
 2744              		@ args = 0, pretend = 0, frame = 0
 2745              		@ frame_needed = 0, uses_anonymous_args = 0
 2746              		@ link register save eliminated.
 2747              	.LVL91:
2399:.\Generated_Source\PSoC5/RTC.c ****         /* Set DST Stop month */
2400:.\Generated_Source\PSoC5/RTC.c ****         RTC_dstTimeDateStop.Month = month;
 2748              		.loc 1 2400 0
 2749 0000 014B     		ldr	r3, .L258
 2750 0002 1876     		strb	r0, [r3, #24]
 2751 0004 7047     		bx	lr
 2752              	.L259:
 2753 0006 00BF     		.align	2
 2754              	.L258:
 2755 0008 00000000 		.word	.LANCHOR1
 2756              		.cfi_endproc
 2757              	.LFE50:
 2758              		.size	RTC_WriteDSTStopMonth, .-RTC_WriteDSTStopMonth
 2759              		.section	.text.RTC_WriteDSTStopDayOfWeek,"ax",%progbits
 2760              		.align	2
 2761              		.global	RTC_WriteDSTStopDayOfWeek
 2762              		.thumb
 2763              		.thumb_func
 2764              		.type	RTC_WriteDSTStopDayOfWeek, %function
 2765              	RTC_WriteDSTStopDayOfWeek:
 2766              	.LFB51:
2401:.\Generated_Source\PSoC5/RTC.c ****     }
2402:.\Generated_Source\PSoC5/RTC.c **** 
2403:.\Generated_Source\PSoC5/RTC.c **** 
2404:.\Generated_Source\PSoC5/RTC.c ****     /*******************************************************************************
2405:.\Generated_Source\PSoC5/RTC.c ****     * Function Name:   RTC_WriteDSTStopDayOfWeek
2406:.\Generated_Source\PSoC5/RTC.c ****     ********************************************************************************
2407:.\Generated_Source\PSoC5/RTC.c ****     *
2408:.\Generated_Source\PSoC5/RTC.c ****     * Summary:
2409:.\Generated_Source\PSoC5/RTC.c ****     *  Writes the DST Stop DayOfWeek software register. Used for relative date
2410:.\Generated_Source\PSoC5/RTC.c ****     *  entry. Only generated if DST is enabled.
2411:.\Generated_Source\PSoC5/RTC.c ****     *
2412:.\Generated_Source\PSoC5/RTC.c ****     * Parameters:
2413:.\Generated_Source\PSoC5/RTC.c ****     *  dayOfWeek: DST stop day of week software register value.
ARM GAS  C:\Users\mark6\AppData\Local\Temp\ccQgPzp9.s 			page 95


2414:.\Generated_Source\PSoC5/RTC.c ****     *
2415:.\Generated_Source\PSoC5/RTC.c ****     * Return:
2416:.\Generated_Source\PSoC5/RTC.c ****     *  None.
2417:.\Generated_Source\PSoC5/RTC.c ****     *
2418:.\Generated_Source\PSoC5/RTC.c ****     * Global variables:
2419:.\Generated_Source\PSoC5/RTC.c ****     *  RTC_dstTimeDateStop.DayOfWeek: global variable is modified
2420:.\Generated_Source\PSoC5/RTC.c ****     *   with the day of week of the DST stop time/date.
2421:.\Generated_Source\PSoC5/RTC.c ****     *
2422:.\Generated_Source\PSoC5/RTC.c ****     *  RTC_dstModeType: global variable is used to store DST mode
2423:.\Generated_Source\PSoC5/RTC.c ****     *   type: relative or fixed.
2424:.\Generated_Source\PSoC5/RTC.c ****     *
2425:.\Generated_Source\PSoC5/RTC.c ****     *  RTC_dstTimeDateStart.Month,
2426:.\Generated_Source\PSoC5/RTC.c ****     *  RTC_dstTimeDateStart.DayOfWeek,
2427:.\Generated_Source\PSoC5/RTC.c ****     *  RTC_dstTimeDateStart.Week,
2428:.\Generated_Source\PSoC5/RTC.c ****     *  RTC_dstTimeDateStop.Month,
2429:.\Generated_Source\PSoC5/RTC.c ****     *  RTC_dstTimeDateStop.DayOfWeek,
2430:.\Generated_Source\PSoC5/RTC.c ****     *  RTC_dstTimeDateStop.Weekfor the day of week correction,
2431:.\Generated_Source\PSoC5/RTC.c ****     *   they are used by RTC_DSTDateConversion() function if DST
2432:.\Generated_Source\PSoC5/RTC.c ****     *   mode is configured to be relative.
2433:.\Generated_Source\PSoC5/RTC.c ****     *
2434:.\Generated_Source\PSoC5/RTC.c ****     *  RTC_currentTimeDate.Year: for the day of week calculation,
2435:.\Generated_Source\PSoC5/RTC.c ****     *   it is used by RTC_DSTDateConversion() function if DST
2436:.\Generated_Source\PSoC5/RTC.c ****     *   mode is configured to be relative.
2437:.\Generated_Source\PSoC5/RTC.c ****     *
2438:.\Generated_Source\PSoC5/RTC.c ****     *  RTC_dstTimeDateStop.DayOfWeek: global variable is modified
2439:.\Generated_Source\PSoC5/RTC.c ****     *  with the new day of week's value.
2440:.\Generated_Source\PSoC5/RTC.c ****     *
2441:.\Generated_Source\PSoC5/RTC.c ****     *  RTC_dstTimeDateStart.DayOfMonth and
2442:.\Generated_Source\PSoC5/RTC.c ****     *  RTC_dstTimeDateStop.DayOfMonth are modified by
2443:.\Generated_Source\PSoC5/RTC.c ****     *  the RTC_DSTDateConversion() function if DST mode is
2444:.\Generated_Source\PSoC5/RTC.c ****     *  configured to be relative.
2445:.\Generated_Source\PSoC5/RTC.c ****     *
2446:.\Generated_Source\PSoC5/RTC.c ****     * Reentrant:
2447:.\Generated_Source\PSoC5/RTC.c ****     *  No.
2448:.\Generated_Source\PSoC5/RTC.c ****     *
2449:.\Generated_Source\PSoC5/RTC.c ****     *******************************************************************************/
2450:.\Generated_Source\PSoC5/RTC.c ****     void RTC_WriteDSTStopDayOfWeek(uint8 dayOfWeek)
2451:.\Generated_Source\PSoC5/RTC.c ****          
2452:.\Generated_Source\PSoC5/RTC.c ****     {
 2767              		.loc 1 2452 0
 2768              		.cfi_startproc
 2769              		@ args = 0, pretend = 0, frame = 0
 2770              		@ frame_needed = 0, uses_anonymous_args = 0
 2771              	.LVL92:
 2772 0000 08B5     		push	{r3, lr}
 2773              		.cfi_def_cfa_offset 8
 2774              		.cfi_offset 3, -8
 2775              		.cfi_offset 14, -4
2453:.\Generated_Source\PSoC5/RTC.c ****         /* Set DST Stop day of week */
2454:.\Generated_Source\PSoC5/RTC.c ****         RTC_dstTimeDateStop.DayOfWeek = dayOfWeek;
 2776              		.loc 1 2454 0
 2777 0002 054B     		ldr	r3, .L263
 2778 0004 5875     		strb	r0, [r3, #21]
2455:.\Generated_Source\PSoC5/RTC.c **** 
2456:.\Generated_Source\PSoC5/RTC.c ****         if(0u != RTC_IS_BIT_SET(RTC_dstModeType, RTC_DST_RELDATE))
 2779              		.loc 1 2456 0
 2780 0006 054B     		ldr	r3, .L263+4
ARM GAS  C:\Users\mark6\AppData\Local\Temp\ccQgPzp9.s 			page 96


 2781 0008 5B78     		ldrb	r3, [r3, #1]	@ zero_extendqisi2
 2782 000a 13F0020F 		tst	r3, #2
 2783 000e 01D0     		beq	.L260
2457:.\Generated_Source\PSoC5/RTC.c ****         {
2458:.\Generated_Source\PSoC5/RTC.c ****             /* Convert DST date */
2459:.\Generated_Source\PSoC5/RTC.c ****             RTC_DSTDateConversion();
 2784              		.loc 1 2459 0
 2785 0010 FFF7FEFF 		bl	RTC_DSTDateConversion
 2786              	.LVL93:
 2787              	.L260:
 2788 0014 08BD     		pop	{r3, pc}
 2789              	.L264:
 2790 0016 00BF     		.align	2
 2791              	.L263:
 2792 0018 00000000 		.word	.LANCHOR1
 2793 001c 00000000 		.word	.LANCHOR2
 2794              		.cfi_endproc
 2795              	.LFE51:
 2796              		.size	RTC_WriteDSTStopDayOfWeek, .-RTC_WriteDSTStopDayOfWeek
 2797              		.section	.text.RTC_WriteDSTStopWeek,"ax",%progbits
 2798              		.align	2
 2799              		.global	RTC_WriteDSTStopWeek
 2800              		.thumb
 2801              		.thumb_func
 2802              		.type	RTC_WriteDSTStopWeek, %function
 2803              	RTC_WriteDSTStopWeek:
 2804              	.LFB52:
2460:.\Generated_Source\PSoC5/RTC.c ****         }
2461:.\Generated_Source\PSoC5/RTC.c ****     }
2462:.\Generated_Source\PSoC5/RTC.c **** 
2463:.\Generated_Source\PSoC5/RTC.c **** 
2464:.\Generated_Source\PSoC5/RTC.c ****     /*******************************************************************************
2465:.\Generated_Source\PSoC5/RTC.c ****     * Function Name:   RTC_WriteDSTStopWeek
2466:.\Generated_Source\PSoC5/RTC.c ****     ********************************************************************************
2467:.\Generated_Source\PSoC5/RTC.c ****     *
2468:.\Generated_Source\PSoC5/RTC.c ****     * Summary:
2469:.\Generated_Source\PSoC5/RTC.c ****     *  Writes the DST Stop Week software register. Used for relative date entry.
2470:.\Generated_Source\PSoC5/RTC.c ****     *  Only generated if DST is enabled.
2471:.\Generated_Source\PSoC5/RTC.c ****     *
2472:.\Generated_Source\PSoC5/RTC.c ****     * Parameters:
2473:.\Generated_Source\PSoC5/RTC.c ****     *  week: DST stop week software register value.
2474:.\Generated_Source\PSoC5/RTC.c ****     *
2475:.\Generated_Source\PSoC5/RTC.c ****     * Return:
2476:.\Generated_Source\PSoC5/RTC.c ****     *  None.
2477:.\Generated_Source\PSoC5/RTC.c ****     *
2478:.\Generated_Source\PSoC5/RTC.c ****     * Global variables:
2479:.\Generated_Source\PSoC5/RTC.c ****     *  RTC_dstTimeDateStop.Week: global variable used to store the
2480:.\Generated_Source\PSoC5/RTC.c ****     *  DST stop time/date is stored.
2481:.\Generated_Source\PSoC5/RTC.c ****     *
2482:.\Generated_Source\PSoC5/RTC.c ****     *  RTC_dstModeType: global variable is used to store DST mode
2483:.\Generated_Source\PSoC5/RTC.c ****     *   type: relative or fixed.
2484:.\Generated_Source\PSoC5/RTC.c ****     *
2485:.\Generated_Source\PSoC5/RTC.c ****     *  RTC_dstTimeDateStart.Month,
2486:.\Generated_Source\PSoC5/RTC.c ****     *  RTC_dstTimeDateStart.DayOfWeek,
2487:.\Generated_Source\PSoC5/RTC.c ****     *  RTC_dstTimeDateStart.Week,
2488:.\Generated_Source\PSoC5/RTC.c ****     *  RTC_dstTimeDateStop.Month,
2489:.\Generated_Source\PSoC5/RTC.c ****     *  RTC_dstTimeDateStop.DayOfWeek,
ARM GAS  C:\Users\mark6\AppData\Local\Temp\ccQgPzp9.s 			page 97


2490:.\Generated_Source\PSoC5/RTC.c ****     *  RTC_dstTimeDateStop.Week: used for the day of week correction,
2491:.\Generated_Source\PSoC5/RTC.c ****     *   they are used by RTC_DSTDateConversion() function if DST
2492:.\Generated_Source\PSoC5/RTC.c ****     *   mode is configured to be relative.
2493:.\Generated_Source\PSoC5/RTC.c ****     *
2494:.\Generated_Source\PSoC5/RTC.c ****     *  RTC_currentTimeDate.Year: for the day of week calculation,
2495:.\Generated_Source\PSoC5/RTC.c ****     *   it is used by RTC_DSTDateConversion() function if DST
2496:.\Generated_Source\PSoC5/RTC.c ****     *   mode is configured to be relative.
2497:.\Generated_Source\PSoC5/RTC.c ****     *
2498:.\Generated_Source\PSoC5/RTC.c ****     *  RTC_dstTimeDateStop.Week: global variable is modified with
2499:.\Generated_Source\PSoC5/RTC.c ****     *  the new value.
2500:.\Generated_Source\PSoC5/RTC.c ****     *
2501:.\Generated_Source\PSoC5/RTC.c ****     *  RTC_dstTimeDateStart.DayOfMonth and
2502:.\Generated_Source\PSoC5/RTC.c ****     *  RTC_dstTimeDateStop.DayOfMonth are modified by
2503:.\Generated_Source\PSoC5/RTC.c ****     *  the RTC_DSTDateConversion() function if DST mode is
2504:.\Generated_Source\PSoC5/RTC.c ****     *  configured to be relative.
2505:.\Generated_Source\PSoC5/RTC.c ****     *
2506:.\Generated_Source\PSoC5/RTC.c ****     * Reentrant:
2507:.\Generated_Source\PSoC5/RTC.c ****     *  No.
2508:.\Generated_Source\PSoC5/RTC.c ****     *
2509:.\Generated_Source\PSoC5/RTC.c ****     *******************************************************************************/
2510:.\Generated_Source\PSoC5/RTC.c ****     void RTC_WriteDSTStopWeek(uint8 week) 
2511:.\Generated_Source\PSoC5/RTC.c ****     {
 2805              		.loc 1 2511 0
 2806              		.cfi_startproc
 2807              		@ args = 0, pretend = 0, frame = 0
 2808              		@ frame_needed = 0, uses_anonymous_args = 0
 2809              	.LVL94:
 2810 0000 08B5     		push	{r3, lr}
 2811              		.cfi_def_cfa_offset 8
 2812              		.cfi_offset 3, -8
 2813              		.cfi_offset 14, -4
2512:.\Generated_Source\PSoC5/RTC.c ****         /* Set DST Stop week */
2513:.\Generated_Source\PSoC5/RTC.c ****         RTC_dstTimeDateStop.Week = week;
 2814              		.loc 1 2513 0
 2815 0002 054B     		ldr	r3, .L268
 2816 0004 9875     		strb	r0, [r3, #22]
2514:.\Generated_Source\PSoC5/RTC.c **** 
2515:.\Generated_Source\PSoC5/RTC.c ****         if(0u != RTC_IS_BIT_SET(RTC_dstModeType, RTC_DST_RELDATE))
 2817              		.loc 1 2515 0
 2818 0006 054B     		ldr	r3, .L268+4
 2819 0008 5B78     		ldrb	r3, [r3, #1]	@ zero_extendqisi2
 2820 000a 13F0020F 		tst	r3, #2
 2821 000e 01D0     		beq	.L265
2516:.\Generated_Source\PSoC5/RTC.c ****         {
2517:.\Generated_Source\PSoC5/RTC.c ****             /* Convert DST date */
2518:.\Generated_Source\PSoC5/RTC.c ****             RTC_DSTDateConversion();
 2822              		.loc 1 2518 0
 2823 0010 FFF7FEFF 		bl	RTC_DSTDateConversion
 2824              	.LVL95:
 2825              	.L265:
 2826 0014 08BD     		pop	{r3, pc}
 2827              	.L269:
 2828 0016 00BF     		.align	2
 2829              	.L268:
 2830 0018 00000000 		.word	.LANCHOR1
 2831 001c 00000000 		.word	.LANCHOR2
 2832              		.cfi_endproc
ARM GAS  C:\Users\mark6\AppData\Local\Temp\ccQgPzp9.s 			page 98


 2833              	.LFE52:
 2834              		.size	RTC_WriteDSTStopWeek, .-RTC_WriteDSTStopWeek
 2835              		.section	.text.RTC_WriteDSTOffset,"ax",%progbits
 2836              		.align	2
 2837              		.global	RTC_WriteDSTOffset
 2838              		.thumb
 2839              		.thumb_func
 2840              		.type	RTC_WriteDSTOffset, %function
 2841              	RTC_WriteDSTOffset:
 2842              	.LFB53:
2519:.\Generated_Source\PSoC5/RTC.c ****         }
2520:.\Generated_Source\PSoC5/RTC.c ****     }
2521:.\Generated_Source\PSoC5/RTC.c **** 
2522:.\Generated_Source\PSoC5/RTC.c **** 
2523:.\Generated_Source\PSoC5/RTC.c ****     /*******************************************************************************
2524:.\Generated_Source\PSoC5/RTC.c ****     * Function Name:   RTC_WriteDSTOffset
2525:.\Generated_Source\PSoC5/RTC.c ****     ********************************************************************************
2526:.\Generated_Source\PSoC5/RTC.c ****     *
2527:.\Generated_Source\PSoC5/RTC.c ****     * Summary:
2528:.\Generated_Source\PSoC5/RTC.c ****     *  Writes the DST Offset register. Allows a configurable increment or decrement
2529:.\Generated_Source\PSoC5/RTC.c ****     *  of time between 0 and 255 minutes. Increment occurs on DST Start and
2530:.\Generated_Source\PSoC5/RTC.c ****     *  decrement on DST Stop. Only generated if DST is enabled.
2531:.\Generated_Source\PSoC5/RTC.c ****     *
2532:.\Generated_Source\PSoC5/RTC.c ****     * Parameters:
2533:.\Generated_Source\PSoC5/RTC.c ****     *  offset: The DST offset to be saved.
2534:.\Generated_Source\PSoC5/RTC.c ****     *
2535:.\Generated_Source\PSoC5/RTC.c ****     * Return:
2536:.\Generated_Source\PSoC5/RTC.c ****     *  None.
2537:.\Generated_Source\PSoC5/RTC.c ****     *
2538:.\Generated_Source\PSoC5/RTC.c ****     * Global variables:
2539:.\Generated_Source\PSoC5/RTC.c ****     *  RTC_dstOffsetMin: global variable is modified with the new
2540:.\Generated_Source\PSoC5/RTC.c ****     *  DST offset value (in minutes).
2541:.\Generated_Source\PSoC5/RTC.c ****     *
2542:.\Generated_Source\PSoC5/RTC.c ****     * Reentrant:
2543:.\Generated_Source\PSoC5/RTC.c ****     *  No.
2544:.\Generated_Source\PSoC5/RTC.c ****     *
2545:.\Generated_Source\PSoC5/RTC.c ****     *******************************************************************************/
2546:.\Generated_Source\PSoC5/RTC.c ****     void RTC_WriteDSTOffset(uint8 offset) 
2547:.\Generated_Source\PSoC5/RTC.c ****     {
 2843              		.loc 1 2547 0
 2844              		.cfi_startproc
 2845              		@ args = 0, pretend = 0, frame = 0
 2846              		@ frame_needed = 0, uses_anonymous_args = 0
 2847              		@ link register save eliminated.
 2848              	.LVL96:
2548:.\Generated_Source\PSoC5/RTC.c ****         /* Set DST offset */
2549:.\Generated_Source\PSoC5/RTC.c ****         RTC_dstOffsetMin = offset;
 2849              		.loc 1 2549 0
 2850 0000 014B     		ldr	r3, .L271
 2851 0002 1871     		strb	r0, [r3, #4]
 2852 0004 7047     		bx	lr
 2853              	.L272:
 2854 0006 00BF     		.align	2
 2855              	.L271:
 2856 0008 00000000 		.word	.LANCHOR2
 2857              		.cfi_endproc
 2858              	.LFE53:
ARM GAS  C:\Users\mark6\AppData\Local\Temp\ccQgPzp9.s 			page 99


 2859              		.size	RTC_WriteDSTOffset, .-RTC_WriteDSTOffset
 2860              		.global	RTC_daysInMonths
 2861              		.global	RTC_statusDateTime
 2862              		.global	RTC_intervalCfgMask
 2863              		.global	RTC_alarmCurStatus
 2864              		.global	RTC_alarmCfgMask
 2865              		.global	RTC_dstStopStatus
 2866              		.global	RTC_dstStartStatus
 2867              		.global	RTC_dstOffsetMin
 2868              		.global	RTC_dstTimeDateStop
 2869              		.global	RTC_dstTimeDateStart
 2870              		.global	RTC_dstModeType
 2871              		.global	RTC_alarmCfgTimeDate
 2872              		.global	RTC_currentTimeDate
 2873              		.global	RTC_initVar
 2874              		.section	.rodata
 2875              		.align	2
 2876              		.set	.LANCHOR0,. + 0
 2877              		.type	RTC_monthTemplate.5097, %object
 2878              		.size	RTC_monthTemplate.5097, 12
 2879              	RTC_monthTemplate.5097:
 2880 0000 00       		.byte	0
 2881 0001 03       		.byte	3
 2882 0002 02       		.byte	2
 2883 0003 05       		.byte	5
 2884 0004 00       		.byte	0
 2885 0005 03       		.byte	3
 2886 0006 05       		.byte	5
 2887 0007 01       		.byte	1
 2888 0008 04       		.byte	4
 2889 0009 06       		.byte	6
 2890 000a 02       		.byte	2
 2891 000b 04       		.byte	4
 2892              		.type	RTC_daysInMonths, %object
 2893              		.size	RTC_daysInMonths, 12
 2894              	RTC_daysInMonths:
 2895 000c 1F       		.byte	31
 2896 000d 1C       		.byte	28
 2897 000e 1F       		.byte	31
 2898 000f 1E       		.byte	30
 2899 0010 1F       		.byte	31
 2900 0011 1E       		.byte	30
 2901 0012 1F       		.byte	31
 2902 0013 1F       		.byte	31
 2903 0014 1E       		.byte	30
 2904 0015 1F       		.byte	31
 2905 0016 1E       		.byte	30
 2906 0017 1F       		.byte	31
 2907              		.data
 2908              		.align	2
 2909              		.set	.LANCHOR1,. + 0
 2910              		.type	RTC_dstTimeDateStart, %object
 2911              		.size	RTC_dstTimeDateStart, 5
 2912              	RTC_dstTimeDateStart:
 2913 0000 00       		.byte	0
 2914 0001 01       		.byte	1
 2915 0002 01       		.byte	1
ARM GAS  C:\Users\mark6\AppData\Local\Temp\ccQgPzp9.s 			page 100


 2916 0003 01       		.byte	1
 2917 0004 01       		.byte	1
 2918 0005 000000   		.space	3
 2919              		.type	RTC_currentTimeDate, %object
 2920              		.size	RTC_currentTimeDate, 12
 2921              	RTC_currentTimeDate:
 2922 0008 00       		.byte	0
 2923 0009 00       		.byte	0
 2924 000a 00       		.byte	0
 2925 000b 01       		.byte	1
 2926 000c 01       		.byte	1
 2927 000d 00       		.space	1
 2928 000e 0100     		.short	1
 2929 0010 01       		.byte	1
 2930 0011 00       		.space	1
 2931 0012 6C07     		.short	1900
 2932              		.type	RTC_dstTimeDateStop, %object
 2933              		.size	RTC_dstTimeDateStop, 5
 2934              	RTC_dstTimeDateStop:
 2935 0014 00       		.byte	0
 2936 0015 01       		.byte	1
 2937 0016 01       		.byte	1
 2938 0017 01       		.byte	1
 2939 0018 01       		.byte	1
 2940 0019 000000   		.space	3
 2941              		.type	RTC_alarmCfgTimeDate, %object
 2942              		.size	RTC_alarmCfgTimeDate, 12
 2943              	RTC_alarmCfgTimeDate:
 2944 001c 00       		.byte	0
 2945 001d 00       		.byte	0
 2946 001e 00       		.byte	0
 2947 001f 01       		.byte	1
 2948 0020 01       		.byte	1
 2949 0021 00       		.space	1
 2950 0022 0100     		.short	1
 2951 0024 01       		.byte	1
 2952 0025 00       		.space	1
 2953 0026 6C07     		.short	1900
 2954              		.bss
 2955              		.set	.LANCHOR2,. + 0
 2956              		.type	RTC_statusDateTime, %object
 2957              		.size	RTC_statusDateTime, 1
 2958              	RTC_statusDateTime:
 2959 0000 00       		.space	1
 2960              		.type	RTC_dstModeType, %object
 2961              		.size	RTC_dstModeType, 1
 2962              	RTC_dstModeType:
 2963 0001 00       		.space	1
 2964              		.type	RTC_dstStartStatus, %object
 2965              		.size	RTC_dstStartStatus, 1
 2966              	RTC_dstStartStatus:
 2967 0002 00       		.space	1
 2968              		.type	RTC_dstStopStatus, %object
 2969              		.size	RTC_dstStopStatus, 1
 2970              	RTC_dstStopStatus:
 2971 0003 00       		.space	1
 2972              		.type	RTC_dstOffsetMin, %object
ARM GAS  C:\Users\mark6\AppData\Local\Temp\ccQgPzp9.s 			page 101


 2973              		.size	RTC_dstOffsetMin, 1
 2974              	RTC_dstOffsetMin:
 2975 0004 00       		.space	1
 2976              		.type	RTC_alarmCfgMask, %object
 2977              		.size	RTC_alarmCfgMask, 1
 2978              	RTC_alarmCfgMask:
 2979 0005 00       		.space	1
 2980              		.type	RTC_alarmCurStatus, %object
 2981              		.size	RTC_alarmCurStatus, 1
 2982              	RTC_alarmCurStatus:
 2983 0006 00       		.space	1
 2984              		.type	RTC_initVar, %object
 2985              		.size	RTC_initVar, 1
 2986              	RTC_initVar:
 2987 0007 00       		.space	1
 2988              		.type	RTC_intervalCfgMask, %object
 2989              		.size	RTC_intervalCfgMask, 1
 2990              	RTC_intervalCfgMask:
 2991 0008 00       		.space	1
 2992              		.text
 2993              	.Letext0:
 2994              		.file 2 ".\\Generated_Source\\PSoC5\\cytypes.h"
 2995              		.file 3 ".\\Generated_Source\\PSoC5\\RTC.h"
 2996              		.file 4 ".\\Generated_Source\\PSoC5\\CyLib.h"
 2997              		.section	.debug_info,"",%progbits
 2998              	.Ldebug_info0:
 2999 0000 080B0000 		.4byte	0xb08
 3000 0004 0400     		.2byte	0x4
 3001 0006 00000000 		.4byte	.Ldebug_abbrev0
 3002 000a 04       		.byte	0x4
 3003 000b 01       		.uleb128 0x1
 3004 000c F8060000 		.4byte	.LASF111
 3005 0010 01       		.byte	0x1
 3006 0011 90000000 		.4byte	.LASF112
 3007 0015 39020000 		.4byte	.LASF113
 3008 0019 00000000 		.4byte	.Ldebug_ranges0+0
 3009 001d 00000000 		.4byte	0
 3010 0021 00000000 		.4byte	.Ldebug_line0
 3011 0025 02       		.uleb128 0x2
 3012 0026 01       		.byte	0x1
 3013 0027 06       		.byte	0x6
 3014 0028 96010000 		.4byte	.LASF0
 3015 002c 02       		.uleb128 0x2
 3016 002d 01       		.byte	0x1
 3017 002e 08       		.byte	0x8
 3018 002f 14050000 		.4byte	.LASF1
 3019 0033 02       		.uleb128 0x2
 3020 0034 02       		.byte	0x2
 3021 0035 05       		.byte	0x5
 3022 0036 51050000 		.4byte	.LASF2
 3023 003a 02       		.uleb128 0x2
 3024 003b 02       		.byte	0x2
 3025 003c 07       		.byte	0x7
 3026 003d 83030000 		.4byte	.LASF3
 3027 0041 02       		.uleb128 0x2
 3028 0042 04       		.byte	0x4
 3029 0043 05       		.byte	0x5
ARM GAS  C:\Users\mark6\AppData\Local\Temp\ccQgPzp9.s 			page 102


 3030 0044 8B020000 		.4byte	.LASF4
 3031 0048 02       		.uleb128 0x2
 3032 0049 04       		.byte	0x4
 3033 004a 07       		.byte	0x7
 3034 004b 4F030000 		.4byte	.LASF5
 3035 004f 02       		.uleb128 0x2
 3036 0050 08       		.byte	0x8
 3037 0051 05       		.byte	0x5
 3038 0052 88010000 		.4byte	.LASF6
 3039 0056 02       		.uleb128 0x2
 3040 0057 08       		.byte	0x8
 3041 0058 07       		.byte	0x7
 3042 0059 BD000000 		.4byte	.LASF7
 3043 005d 03       		.uleb128 0x3
 3044 005e 04       		.byte	0x4
 3045 005f 05       		.byte	0x5
 3046 0060 696E7400 		.ascii	"int\000"
 3047 0064 02       		.uleb128 0x2
 3048 0065 04       		.byte	0x4
 3049 0066 07       		.byte	0x7
 3050 0067 42030000 		.4byte	.LASF8
 3051 006b 04       		.uleb128 0x4
 3052 006c BC020000 		.4byte	.LASF9
 3053 0070 02       		.byte	0x2
 3054 0071 9201     		.2byte	0x192
 3055 0073 2C000000 		.4byte	0x2c
 3056 0077 04       		.uleb128 0x4
 3057 0078 00000000 		.4byte	.LASF10
 3058 007c 02       		.byte	0x2
 3059 007d 9301     		.2byte	0x193
 3060 007f 3A000000 		.4byte	0x3a
 3061 0083 04       		.uleb128 0x4
 3062 0084 E9020000 		.4byte	.LASF11
 3063 0088 02       		.byte	0x2
 3064 0089 9401     		.2byte	0x194
 3065 008b 48000000 		.4byte	0x48
 3066 008f 02       		.uleb128 0x2
 3067 0090 04       		.byte	0x4
 3068 0091 04       		.byte	0x4
 3069 0092 CB040000 		.4byte	.LASF12
 3070 0096 02       		.uleb128 0x2
 3071 0097 08       		.byte	0x8
 3072 0098 04       		.byte	0x4
 3073 0099 D5020000 		.4byte	.LASF13
 3074 009d 02       		.uleb128 0x2
 3075 009e 01       		.byte	0x1
 3076 009f 08       		.byte	0x8
 3077 00a0 94050000 		.4byte	.LASF14
 3078 00a4 04       		.uleb128 0x4
 3079 00a5 0F050000 		.4byte	.LASF15
 3080 00a9 02       		.byte	0x2
 3081 00aa 3C02     		.2byte	0x23c
 3082 00ac B0000000 		.4byte	0xb0
 3083 00b0 05       		.uleb128 0x5
 3084 00b1 6B000000 		.4byte	0x6b
 3085 00b5 04       		.uleb128 0x4
 3086 00b6 15040000 		.4byte	.LASF16
ARM GAS  C:\Users\mark6\AppData\Local\Temp\ccQgPzp9.s 			page 103


 3087 00ba 02       		.byte	0x2
 3088 00bb 3E02     		.2byte	0x23e
 3089 00bd C1000000 		.4byte	0xc1
 3090 00c1 05       		.uleb128 0x5
 3091 00c2 83000000 		.4byte	0x83
 3092 00c6 04       		.uleb128 0x4
 3093 00c7 9E050000 		.4byte	.LASF17
 3094 00cb 02       		.byte	0x2
 3095 00cc 4E02     		.2byte	0x24e
 3096 00ce D2000000 		.4byte	0xd2
 3097 00d2 06       		.uleb128 0x6
 3098 00d3 04       		.byte	0x4
 3099 00d4 D8000000 		.4byte	0xd8
 3100 00d8 07       		.uleb128 0x7
 3101 00d9 08       		.uleb128 0x8
 3102 00da 0C       		.byte	0xc
 3103 00db 03       		.byte	0x3
 3104 00dc 30       		.byte	0x30
 3105 00dd 42010000 		.4byte	0x142
 3106 00e1 09       		.uleb128 0x9
 3107 00e2 53656300 		.ascii	"Sec\000"
 3108 00e6 03       		.byte	0x3
 3109 00e7 32       		.byte	0x32
 3110 00e8 6B000000 		.4byte	0x6b
 3111 00ec 00       		.byte	0
 3112 00ed 09       		.uleb128 0x9
 3113 00ee 4D696E00 		.ascii	"Min\000"
 3114 00f2 03       		.byte	0x3
 3115 00f3 33       		.byte	0x33
 3116 00f4 6B000000 		.4byte	0x6b
 3117 00f8 01       		.byte	0x1
 3118 00f9 0A       		.uleb128 0xa
 3119 00fa E7000000 		.4byte	.LASF18
 3120 00fe 03       		.byte	0x3
 3121 00ff 34       		.byte	0x34
 3122 0100 6B000000 		.4byte	0x6b
 3123 0104 02       		.byte	0x2
 3124 0105 0A       		.uleb128 0xa
 3125 0106 64050000 		.4byte	.LASF19
 3126 010a 03       		.byte	0x3
 3127 010b 35       		.byte	0x35
 3128 010c 6B000000 		.4byte	0x6b
 3129 0110 03       		.byte	0x3
 3130 0111 0A       		.uleb128 0xa
 3131 0112 78030000 		.4byte	.LASF20
 3132 0116 03       		.byte	0x3
 3133 0117 36       		.byte	0x36
 3134 0118 6B000000 		.4byte	0x6b
 3135 011c 04       		.byte	0x4
 3136 011d 0A       		.uleb128 0xa
 3137 011e CE070000 		.4byte	.LASF21
 3138 0122 03       		.byte	0x3
 3139 0123 37       		.byte	0x37
 3140 0124 77000000 		.4byte	0x77
 3141 0128 06       		.byte	0x6
 3142 0129 0A       		.uleb128 0xa
 3143 012a 94020000 		.4byte	.LASF22
ARM GAS  C:\Users\mark6\AppData\Local\Temp\ccQgPzp9.s 			page 104


 3144 012e 03       		.byte	0x3
 3145 012f 38       		.byte	0x38
 3146 0130 6B000000 		.4byte	0x6b
 3147 0134 08       		.byte	0x8
 3148 0135 0A       		.uleb128 0xa
 3149 0136 96030000 		.4byte	.LASF23
 3150 013a 03       		.byte	0x3
 3151 013b 39       		.byte	0x39
 3152 013c 77000000 		.4byte	0x77
 3153 0140 0A       		.byte	0xa
 3154 0141 00       		.byte	0
 3155 0142 0B       		.uleb128 0xb
 3156 0143 59040000 		.4byte	.LASF24
 3157 0147 03       		.byte	0x3
 3158 0148 3A       		.byte	0x3a
 3159 0149 4D010000 		.4byte	0x14d
 3160 014d 05       		.uleb128 0x5
 3161 014e D9000000 		.4byte	0xd9
 3162 0152 08       		.uleb128 0x8
 3163 0153 05       		.byte	0x5
 3164 0154 03       		.byte	0x3
 3165 0155 3C       		.byte	0x3c
 3166 0156 97010000 		.4byte	0x197
 3167 015a 0A       		.uleb128 0xa
 3168 015b E7000000 		.4byte	.LASF18
 3169 015f 03       		.byte	0x3
 3170 0160 3E       		.byte	0x3e
 3171 0161 6B000000 		.4byte	0x6b
 3172 0165 00       		.byte	0
 3173 0166 0A       		.uleb128 0xa
 3174 0167 64050000 		.4byte	.LASF19
 3175 016b 03       		.byte	0x3
 3176 016c 3F       		.byte	0x3f
 3177 016d 6B000000 		.4byte	0x6b
 3178 0171 01       		.byte	0x1
 3179 0172 0A       		.uleb128 0xa
 3180 0173 57010000 		.4byte	.LASF25
 3181 0177 03       		.byte	0x3
 3182 0178 40       		.byte	0x40
 3183 0179 6B000000 		.4byte	0x6b
 3184 017d 02       		.byte	0x2
 3185 017e 0A       		.uleb128 0xa
 3186 017f 78030000 		.4byte	.LASF20
 3187 0183 03       		.byte	0x3
 3188 0184 41       		.byte	0x41
 3189 0185 6B000000 		.4byte	0x6b
 3190 0189 03       		.byte	0x3
 3191 018a 0A       		.uleb128 0xa
 3192 018b 94020000 		.4byte	.LASF22
 3193 018f 03       		.byte	0x3
 3194 0190 42       		.byte	0x42
 3195 0191 6B000000 		.4byte	0x6b
 3196 0195 04       		.byte	0x4
 3197 0196 00       		.byte	0
 3198 0197 0B       		.uleb128 0xb
 3199 0198 6E050000 		.4byte	.LASF26
 3200 019c 03       		.byte	0x3
ARM GAS  C:\Users\mark6\AppData\Local\Temp\ccQgPzp9.s 			page 105


 3201 019d 43       		.byte	0x43
 3202 019e A2010000 		.4byte	0x1a2
 3203 01a2 05       		.uleb128 0x5
 3204 01a3 52010000 		.4byte	0x152
 3205 01a7 02       		.uleb128 0x2
 3206 01a8 04       		.byte	0x4
 3207 01a9 07       		.byte	0x7
 3208 01aa 2C040000 		.4byte	.LASF27
 3209 01ae 0C       		.uleb128 0xc
 3210 01af DC040000 		.4byte	.LASF114
 3211 01b3 01       		.byte	0x1
 3212 01b4 DE05     		.2byte	0x5de
 3213 01b6 6B000000 		.4byte	0x6b
 3214 01ba 00000000 		.4byte	.LFB40
 3215 01be 54000000 		.4byte	.LFE40-.LFB40
 3216 01c2 01       		.uleb128 0x1
 3217 01c3 9C       		.byte	0x9c
 3218 01c4 0B020000 		.4byte	0x20b
 3219 01c8 0D       		.uleb128 0xd
 3220 01c9 D1040000 		.4byte	.LASF28
 3221 01cd 01       		.byte	0x1
 3222 01ce DE05     		.2byte	0x5de
 3223 01d0 6B000000 		.4byte	0x6b
 3224 01d4 00000000 		.4byte	.LLST0
 3225 01d8 0D       		.uleb128 0xd
 3226 01d9 24030000 		.4byte	.LASF29
 3227 01dd 01       		.byte	0x1
 3228 01de DE05     		.2byte	0x5de
 3229 01e0 6B000000 		.4byte	0x6b
 3230 01e4 21000000 		.4byte	.LLST1
 3231 01e8 0D       		.uleb128 0xd
 3232 01e9 34020000 		.4byte	.LASF30
 3233 01ed 01       		.byte	0x1
 3234 01ee DE05     		.2byte	0x5de
 3235 01f0 77000000 		.4byte	0x77
 3236 01f4 42000000 		.4byte	.LLST2
 3237 01f8 0E       		.uleb128 0xe
 3238 01f9 F2030000 		.4byte	.LASF31
 3239 01fd 01       		.byte	0x1
 3240 01fe E205     		.2byte	0x5e2
 3241 0200 1B020000 		.4byte	0x21b
 3242 0204 05       		.uleb128 0x5
 3243 0205 03       		.byte	0x3
 3244 0206 00000000 		.4byte	RTC_monthTemplate.5097
 3245 020a 00       		.byte	0
 3246 020b 0F       		.uleb128 0xf
 3247 020c 6B000000 		.4byte	0x6b
 3248 0210 1B020000 		.4byte	0x21b
 3249 0214 10       		.uleb128 0x10
 3250 0215 A7010000 		.4byte	0x1a7
 3251 0219 0B       		.byte	0xb
 3252 021a 00       		.byte	0
 3253 021b 11       		.uleb128 0x11
 3254 021c 0B020000 		.4byte	0x20b
 3255 0220 12       		.uleb128 0x12
 3256 0221 43040000 		.4byte	.LASF34
 3257 0225 01       		.byte	0x1
ARM GAS  C:\Users\mark6\AppData\Local\Temp\ccQgPzp9.s 			page 106


 3258 0226 FF       		.byte	0xff
 3259 0227 00000000 		.4byte	.LFB4
 3260 022b A0000000 		.4byte	.LFE4-.LFB4
 3261 022f 01       		.uleb128 0x1
 3262 0230 9C       		.byte	0x9c
 3263 0231 88020000 		.4byte	0x288
 3264 0235 13       		.uleb128 0x13
 3265 0236 A7070000 		.4byte	.LASF32
 3266 023a 01       		.byte	0x1
 3267 023b 0101     		.2byte	0x101
 3268 023d 6B000000 		.4byte	0x6b
 3269 0241 6E000000 		.4byte	.LLST3
 3270 0245 14       		.uleb128 0x14
 3271 0246 64617900 		.ascii	"day\000"
 3272 024a 01       		.byte	0x1
 3273 024b 0201     		.2byte	0x102
 3274 024d 6B000000 		.4byte	0x6b
 3275 0251 D0000000 		.4byte	.LLST4
 3276 0255 13       		.uleb128 0x13
 3277 0256 E8030000 		.4byte	.LASF33
 3278 025a 01       		.byte	0x1
 3279 025b 0301     		.2byte	0x103
 3280 025d 6B000000 		.4byte	0x6b
 3281 0261 41010000 		.4byte	.LLST5
 3282 0265 15       		.uleb128 0x15
 3283 0266 10000000 		.4byte	.LVL7
 3284 026a AE010000 		.4byte	0x1ae
 3285 026e 78020000 		.4byte	0x278
 3286 0272 16       		.uleb128 0x16
 3287 0273 01       		.uleb128 0x1
 3288 0274 50       		.byte	0x50
 3289 0275 01       		.uleb128 0x1
 3290 0276 31       		.byte	0x31
 3291 0277 00       		.byte	0
 3292 0278 17       		.uleb128 0x17
 3293 0279 5A000000 		.4byte	.LVL25
 3294 027d AE010000 		.4byte	0x1ae
 3295 0281 16       		.uleb128 0x16
 3296 0282 01       		.uleb128 0x1
 3297 0283 50       		.byte	0x50
 3298 0284 01       		.uleb128 0x1
 3299 0285 31       		.byte	0x31
 3300 0286 00       		.byte	0
 3301 0287 00       		.byte	0
 3302 0288 18       		.uleb128 0x18
 3303 0289 74060000 		.4byte	.LASF35
 3304 028d 01       		.byte	0x1
 3305 028e 1806     		.2byte	0x618
 3306 0290 00000000 		.4byte	.LFB41
 3307 0294 D4060000 		.4byte	.LFE41-.LFB41
 3308 0298 01       		.uleb128 0x1
 3309 0299 9C       		.byte	0x9c
 3310 029a CF020000 		.4byte	0x2cf
 3311 029e 14       		.uleb128 0x14
 3312 029f 6900     		.ascii	"i\000"
 3313 02a1 01       		.byte	0x1
 3314 02a2 1A06     		.2byte	0x61a
ARM GAS  C:\Users\mark6\AppData\Local\Temp\ccQgPzp9.s 			page 107


 3315 02a4 6B000000 		.4byte	0x6b
 3316 02a8 A3010000 		.4byte	.LLST6
 3317 02ac 13       		.uleb128 0x13
 3318 02ad 9B030000 		.4byte	.LASF36
 3319 02b1 01       		.byte	0x1
 3320 02b2 1B06     		.2byte	0x61b
 3321 02b4 6B000000 		.4byte	0x6b
 3322 02b8 C1010000 		.4byte	.LLST7
 3323 02bc 19       		.uleb128 0x19
 3324 02bd B0000000 		.4byte	.LVL46
 3325 02c1 AE010000 		.4byte	0x1ae
 3326 02c5 19       		.uleb128 0x19
 3327 02c6 DE000000 		.4byte	.LVL47
 3328 02ca 20020000 		.4byte	0x220
 3329 02ce 00       		.byte	0
 3330 02cf 1A       		.uleb128 0x1a
 3331 02d0 5B050000 		.4byte	.LASF40
 3332 02d4 01       		.byte	0x1
 3333 02d5 A3       		.byte	0xa3
 3334 02d6 00000000 		.4byte	.LFB1
 3335 02da 24000000 		.4byte	.LFE1-.LFB1
 3336 02de 01       		.uleb128 0x1
 3337 02df 9C       		.byte	0x9c
 3338 02e0 06030000 		.4byte	0x306
 3339 02e4 1B       		.uleb128 0x1b
 3340 02e5 C8010000 		.4byte	.LASF37
 3341 02e9 01       		.byte	0x1
 3342 02ea A5       		.byte	0xa5
 3343 02eb 6B000000 		.4byte	0x6b
 3344 02ef D4010000 		.4byte	.LLST8
 3345 02f3 19       		.uleb128 0x19
 3346 02f4 0C000000 		.4byte	.LVL50
 3347 02f8 C30A0000 		.4byte	0xac3
 3348 02fc 19       		.uleb128 0x19
 3349 02fd 1A000000 		.4byte	.LVL51
 3350 0301 CE0A0000 		.4byte	0xace
 3351 0305 00       		.byte	0
 3352 0306 1C       		.uleb128 0x1c
 3353 0307 AF000000 		.4byte	.LASF38
 3354 030b 01       		.byte	0x1
 3355 030c C3       		.byte	0xc3
 3356 030d 00000000 		.4byte	.LFB2
 3357 0311 0C000000 		.4byte	.LFE2-.LFB2
 3358 0315 01       		.uleb128 0x1
 3359 0316 9C       		.byte	0x9c
 3360 0317 1C       		.uleb128 0x1c
 3361 0318 78000000 		.4byte	.LASF39
 3362 031c 01       		.byte	0x1
 3363 031d D8       		.byte	0xd8
 3364 031e 00000000 		.4byte	.LFB3
 3365 0322 0C000000 		.4byte	.LFE3-.LFB3
 3366 0326 01       		.uleb128 0x1
 3367 0327 9C       		.byte	0x9c
 3368 0328 1D       		.uleb128 0x1d
 3369 0329 87000000 		.4byte	.LASF41
 3370 032d 01       		.byte	0x1
 3371 032e 8701     		.2byte	0x187
ARM GAS  C:\Users\mark6\AppData\Local\Temp\ccQgPzp9.s 			page 108


 3372 0330 00000000 		.4byte	.LFB5
 3373 0334 28000000 		.4byte	.LFE5-.LFB5
 3374 0338 01       		.uleb128 0x1
 3375 0339 9C       		.byte	0x9c
 3376 033a 6F030000 		.4byte	0x36f
 3377 033e 19       		.uleb128 0x19
 3378 033f 06000000 		.4byte	.LVL52
 3379 0343 88020000 		.4byte	0x288
 3380 0347 15       		.uleb128 0x15
 3381 0348 14000000 		.4byte	.LVL53
 3382 034c DF0A0000 		.4byte	0xadf
 3383 0350 5A030000 		.4byte	0x35a
 3384 0354 16       		.uleb128 0x16
 3385 0355 01       		.uleb128 0x1
 3386 0356 50       		.byte	0x50
 3387 0357 01       		.uleb128 0x1
 3388 0358 34       		.byte	0x34
 3389 0359 00       		.byte	0
 3390 035a 17       		.uleb128 0x17
 3391 035b 1C000000 		.4byte	.LVL54
 3392 035f F90A0000 		.4byte	0xaf9
 3393 0363 16       		.uleb128 0x16
 3394 0364 01       		.uleb128 0x1
 3395 0365 51       		.byte	0x51
 3396 0366 01       		.uleb128 0x1
 3397 0367 37       		.byte	0x37
 3398 0368 16       		.uleb128 0x16
 3399 0369 01       		.uleb128 0x1
 3400 036a 50       		.byte	0x50
 3401 036b 01       		.uleb128 0x1
 3402 036c 34       		.byte	0x34
 3403 036d 00       		.byte	0
 3404 036e 00       		.byte	0
 3405 036f 1D       		.uleb128 0x1d
 3406 0370 04030000 		.4byte	.LASF42
 3407 0374 01       		.byte	0x1
 3408 0375 AB01     		.2byte	0x1ab
 3409 0377 00000000 		.4byte	.LFB6
 3410 037b 24000000 		.4byte	.LFE6-.LFB6
 3411 037f 01       		.uleb128 0x1
 3412 0380 9C       		.byte	0x9c
 3413 0381 A8030000 		.4byte	0x3a8
 3414 0385 13       		.uleb128 0x13
 3415 0386 C8010000 		.4byte	.LASF37
 3416 038a 01       		.byte	0x1
 3417 038b AD01     		.2byte	0x1ad
 3418 038d 6B000000 		.4byte	0x6b
 3419 0391 E7010000 		.4byte	.LLST9
 3420 0395 19       		.uleb128 0x19
 3421 0396 06000000 		.4byte	.LVL55
 3422 039a C30A0000 		.4byte	0xac3
 3423 039e 19       		.uleb128 0x19
 3424 039f 14000000 		.4byte	.LVL56
 3425 03a3 CE0A0000 		.4byte	0xace
 3426 03a7 00       		.byte	0
 3427 03a8 1A       		.uleb128 0x1a
 3428 03a9 1E020000 		.4byte	.LASF43
ARM GAS  C:\Users\mark6\AppData\Local\Temp\ccQgPzp9.s 			page 109


 3429 03ad 01       		.byte	0x1
 3430 03ae 81       		.byte	0x81
 3431 03af 00000000 		.4byte	.LFB0
 3432 03b3 1C000000 		.4byte	.LFE0-.LFB0
 3433 03b7 01       		.uleb128 0x1
 3434 03b8 9C       		.byte	0x9c
 3435 03b9 D0030000 		.4byte	0x3d0
 3436 03bd 19       		.uleb128 0x19
 3437 03be 0C000000 		.4byte	.LVL57
 3438 03c2 28030000 		.4byte	0x328
 3439 03c6 19       		.uleb128 0x19
 3440 03c7 16000000 		.4byte	.LVL58
 3441 03cb 6F030000 		.4byte	0x36f
 3442 03cf 00       		.byte	0
 3443 03d0 1E       		.uleb128 0x1e
 3444 03d1 DC020000 		.4byte	.LASF64
 3445 03d5 01       		.byte	0x1
 3446 03d6 D501     		.2byte	0x1d5
 3447 03d8 E6030000 		.4byte	0x3e6
 3448 03dc 00000000 		.4byte	.LFB7
 3449 03e0 08000000 		.4byte	.LFE7-.LFB7
 3450 03e4 01       		.uleb128 0x1
 3451 03e5 9C       		.byte	0x9c
 3452 03e6 06       		.uleb128 0x6
 3453 03e7 04       		.byte	0x4
 3454 03e8 42010000 		.4byte	0x142
 3455 03ec 1D       		.uleb128 0x1d
 3456 03ed AE020000 		.4byte	.LASF44
 3457 03f1 01       		.byte	0x1
 3458 03f2 F401     		.2byte	0x1f4
 3459 03f4 00000000 		.4byte	.LFB8
 3460 03f8 38000000 		.4byte	.LFE8-.LFB8
 3461 03fc 01       		.uleb128 0x1
 3462 03fd 9C       		.byte	0x9c
 3463 03fe 25040000 		.4byte	0x425
 3464 0402 0D       		.uleb128 0xd
 3465 0403 82040000 		.4byte	.LASF45
 3466 0407 01       		.byte	0x1
 3467 0408 F401     		.2byte	0x1f4
 3468 040a 25040000 		.4byte	0x425
 3469 040e FA010000 		.4byte	.LLST10
 3470 0412 19       		.uleb128 0x19
 3471 0413 08000000 		.4byte	.LVL60
 3472 0417 17030000 		.4byte	0x317
 3473 041b 19       		.uleb128 0x19
 3474 041c 32000000 		.4byte	.LVL61
 3475 0420 06030000 		.4byte	0x306
 3476 0424 00       		.byte	0
 3477 0425 06       		.uleb128 0x6
 3478 0426 04       		.byte	0x4
 3479 0427 2B040000 		.4byte	0x42b
 3480 042b 11       		.uleb128 0x11
 3481 042c 42010000 		.4byte	0x142
 3482 0430 1D       		.uleb128 0x1d
 3483 0431 BE070000 		.4byte	.LASF46
 3484 0435 01       		.byte	0x1
 3485 0436 1C02     		.2byte	0x21c
ARM GAS  C:\Users\mark6\AppData\Local\Temp\ccQgPzp9.s 			page 110


 3486 0438 00000000 		.4byte	.LFB9
 3487 043c 0C000000 		.4byte	.LFE9-.LFB9
 3488 0440 01       		.uleb128 0x1
 3489 0441 9C       		.byte	0x9c
 3490 0442 55040000 		.4byte	0x455
 3491 0446 1F       		.uleb128 0x1f
 3492 0447 36050000 		.4byte	.LASF47
 3493 044b 01       		.byte	0x1
 3494 044c 1C02     		.2byte	0x21c
 3495 044e 6B000000 		.4byte	0x6b
 3496 0452 01       		.uleb128 0x1
 3497 0453 50       		.byte	0x50
 3498 0454 00       		.byte	0
 3499 0455 1D       		.uleb128 0x1d
 3500 0456 EA040000 		.4byte	.LASF48
 3501 045a 01       		.byte	0x1
 3502 045b 3802     		.2byte	0x238
 3503 045d 00000000 		.4byte	.LFB10
 3504 0461 0C000000 		.4byte	.LFE10-.LFB10
 3505 0465 01       		.uleb128 0x1
 3506 0466 9C       		.byte	0x9c
 3507 0467 7A040000 		.4byte	0x47a
 3508 046b 1F       		.uleb128 0x1f
 3509 046c 86060000 		.4byte	.LASF49
 3510 0470 01       		.byte	0x1
 3511 0471 3802     		.2byte	0x238
 3512 0473 6B000000 		.4byte	0x6b
 3513 0477 01       		.uleb128 0x1
 3514 0478 50       		.byte	0x50
 3515 0479 00       		.byte	0
 3516 047a 1D       		.uleb128 0x1d
 3517 047b 35040000 		.4byte	.LASF50
 3518 047f 01       		.byte	0x1
 3519 0480 5402     		.2byte	0x254
 3520 0482 00000000 		.4byte	.LFB11
 3521 0486 0C000000 		.4byte	.LFE11-.LFB11
 3522 048a 01       		.uleb128 0x1
 3523 048b 9C       		.byte	0x9c
 3524 048c 9F040000 		.4byte	0x49f
 3525 0490 1F       		.uleb128 0x1f
 3526 0491 98040000 		.4byte	.LASF51
 3527 0495 01       		.byte	0x1
 3528 0496 5402     		.2byte	0x254
 3529 0498 6B000000 		.4byte	0x6b
 3530 049c 01       		.uleb128 0x1
 3531 049d 50       		.byte	0x50
 3532 049e 00       		.byte	0
 3533 049f 1D       		.uleb128 0x1d
 3534 04a0 3E060000 		.4byte	.LASF52
 3535 04a4 01       		.byte	0x1
 3536 04a5 7002     		.2byte	0x270
 3537 04a7 00000000 		.4byte	.LFB12
 3538 04ab 0C000000 		.4byte	.LFE12-.LFB12
 3539 04af 01       		.uleb128 0x1
 3540 04b0 9C       		.byte	0x9c
 3541 04b1 C4040000 		.4byte	0x4c4
 3542 04b5 1F       		.uleb128 0x1f
ARM GAS  C:\Users\mark6\AppData\Local\Temp\ccQgPzp9.s 			page 111


 3543 04b6 D1040000 		.4byte	.LASF28
 3544 04ba 01       		.byte	0x1
 3545 04bb 7002     		.2byte	0x270
 3546 04bd 6B000000 		.4byte	0x6b
 3547 04c1 01       		.uleb128 0x1
 3548 04c2 50       		.byte	0x50
 3549 04c3 00       		.byte	0
 3550 04c4 1D       		.uleb128 0x1d
 3551 04c5 65060000 		.4byte	.LASF53
 3552 04c9 01       		.byte	0x1
 3553 04ca 8C02     		.2byte	0x28c
 3554 04cc 00000000 		.4byte	.LFB13
 3555 04d0 0C000000 		.4byte	.LFE13-.LFB13
 3556 04d4 01       		.uleb128 0x1
 3557 04d5 9C       		.byte	0x9c
 3558 04d6 E9040000 		.4byte	0x4e9
 3559 04da 1F       		.uleb128 0x1f
 3560 04db 24030000 		.4byte	.LASF29
 3561 04df 01       		.byte	0x1
 3562 04e0 8C02     		.2byte	0x28c
 3563 04e2 6B000000 		.4byte	0x6b
 3564 04e6 01       		.uleb128 0x1
 3565 04e7 50       		.byte	0x50
 3566 04e8 00       		.byte	0
 3567 04e9 1D       		.uleb128 0x1d
 3568 04ea 1A060000 		.4byte	.LASF54
 3569 04ee 01       		.byte	0x1
 3570 04ef A802     		.2byte	0x2a8
 3571 04f1 00000000 		.4byte	.LFB14
 3572 04f5 0C000000 		.4byte	.LFE14-.LFB14
 3573 04f9 01       		.uleb128 0x1
 3574 04fa 9C       		.byte	0x9c
 3575 04fb 0E050000 		.4byte	0x50e
 3576 04ff 1F       		.uleb128 0x1f
 3577 0500 34020000 		.4byte	.LASF30
 3578 0504 01       		.byte	0x1
 3579 0505 A802     		.2byte	0x2a8
 3580 0507 77000000 		.4byte	0x77
 3581 050b 01       		.uleb128 0x1
 3582 050c 50       		.byte	0x50
 3583 050d 00       		.byte	0
 3584 050e 1D       		.uleb128 0x1d
 3585 050f 15010000 		.4byte	.LASF55
 3586 0513 01       		.byte	0x1
 3587 0514 CA02     		.2byte	0x2ca
 3588 0516 00000000 		.4byte	.LFB15
 3589 051a 30000000 		.4byte	.LFE15-.LFB15
 3590 051e 01       		.uleb128 0x1
 3591 051f 9C       		.byte	0x9c
 3592 0520 33050000 		.4byte	0x533
 3593 0524 1F       		.uleb128 0x1f
 3594 0525 36050000 		.4byte	.LASF47
 3595 0529 01       		.byte	0x1
 3596 052a CA02     		.2byte	0x2ca
 3597 052c 6B000000 		.4byte	0x6b
 3598 0530 01       		.uleb128 0x1
 3599 0531 50       		.byte	0x50
ARM GAS  C:\Users\mark6\AppData\Local\Temp\ccQgPzp9.s 			page 112


 3600 0532 00       		.byte	0
 3601 0533 1D       		.uleb128 0x1d
 3602 0534 D2050000 		.4byte	.LASF56
 3603 0538 01       		.byte	0x1
 3604 0539 F702     		.2byte	0x2f7
 3605 053b 00000000 		.4byte	.LFB16
 3606 053f 30000000 		.4byte	.LFE16-.LFB16
 3607 0543 01       		.uleb128 0x1
 3608 0544 9C       		.byte	0x9c
 3609 0545 58050000 		.4byte	0x558
 3610 0549 1F       		.uleb128 0x1f
 3611 054a 86060000 		.4byte	.LASF49
 3612 054e 01       		.byte	0x1
 3613 054f F702     		.2byte	0x2f7
 3614 0551 6B000000 		.4byte	0x6b
 3615 0555 01       		.uleb128 0x1
 3616 0556 50       		.byte	0x50
 3617 0557 00       		.byte	0
 3618 0558 1D       		.uleb128 0x1d
 3619 0559 75010000 		.4byte	.LASF57
 3620 055d 01       		.byte	0x1
 3621 055e 2403     		.2byte	0x324
 3622 0560 00000000 		.4byte	.LFB17
 3623 0564 30000000 		.4byte	.LFE17-.LFB17
 3624 0568 01       		.uleb128 0x1
 3625 0569 9C       		.byte	0x9c
 3626 056a 7D050000 		.4byte	0x57d
 3627 056e 1F       		.uleb128 0x1f
 3628 056f 98040000 		.4byte	.LASF51
 3629 0573 01       		.byte	0x1
 3630 0574 2403     		.2byte	0x324
 3631 0576 6B000000 		.4byte	0x6b
 3632 057a 01       		.uleb128 0x1
 3633 057b 50       		.byte	0x50
 3634 057c 00       		.byte	0
 3635 057d 1D       		.uleb128 0x1d
 3636 057e 5C010000 		.4byte	.LASF58
 3637 0582 01       		.byte	0x1
 3638 0583 5103     		.2byte	0x351
 3639 0585 00000000 		.4byte	.LFB18
 3640 0589 34000000 		.4byte	.LFE18-.LFB18
 3641 058d 01       		.uleb128 0x1
 3642 058e 9C       		.byte	0x9c
 3643 058f A2050000 		.4byte	0x5a2
 3644 0593 1F       		.uleb128 0x1f
 3645 0594 D1040000 		.4byte	.LASF28
 3646 0598 01       		.byte	0x1
 3647 0599 5103     		.2byte	0x351
 3648 059b 6B000000 		.4byte	0x6b
 3649 059f 01       		.uleb128 0x1
 3650 05a0 50       		.byte	0x50
 3651 05a1 00       		.byte	0
 3652 05a2 1D       		.uleb128 0x1d
 3653 05a3 9A020000 		.4byte	.LASF59
 3654 05a7 01       		.byte	0x1
 3655 05a8 7E03     		.2byte	0x37e
 3656 05aa 00000000 		.4byte	.LFB19
ARM GAS  C:\Users\mark6\AppData\Local\Temp\ccQgPzp9.s 			page 113


 3657 05ae 34000000 		.4byte	.LFE19-.LFB19
 3658 05b2 01       		.uleb128 0x1
 3659 05b3 9C       		.byte	0x9c
 3660 05b4 C7050000 		.4byte	0x5c7
 3661 05b8 1F       		.uleb128 0x1f
 3662 05b9 24030000 		.4byte	.LASF29
 3663 05bd 01       		.byte	0x1
 3664 05be 7E03     		.2byte	0x37e
 3665 05c0 6B000000 		.4byte	0x6b
 3666 05c4 01       		.uleb128 0x1
 3667 05c5 50       		.byte	0x50
 3668 05c6 00       		.byte	0
 3669 05c7 1D       		.uleb128 0x1d
 3670 05c8 C1030000 		.4byte	.LASF60
 3671 05cc 01       		.byte	0x1
 3672 05cd AB03     		.2byte	0x3ab
 3673 05cf 00000000 		.4byte	.LFB20
 3674 05d3 30000000 		.4byte	.LFE20-.LFB20
 3675 05d7 01       		.uleb128 0x1
 3676 05d8 9C       		.byte	0x9c
 3677 05d9 EC050000 		.4byte	0x5ec
 3678 05dd 1F       		.uleb128 0x1f
 3679 05de 34020000 		.4byte	.LASF30
 3680 05e2 01       		.byte	0x1
 3681 05e3 AB03     		.2byte	0x3ab
 3682 05e5 77000000 		.4byte	0x77
 3683 05e9 01       		.uleb128 0x1
 3684 05ea 50       		.byte	0x50
 3685 05eb 00       		.byte	0
 3686 05ec 1D       		.uleb128 0x1d
 3687 05ed 44000000 		.4byte	.LASF61
 3688 05f1 01       		.byte	0x1
 3689 05f2 D903     		.2byte	0x3d9
 3690 05f4 00000000 		.4byte	.LFB21
 3691 05f8 30000000 		.4byte	.LFE21-.LFB21
 3692 05fc 01       		.uleb128 0x1
 3693 05fd 9C       		.byte	0x9c
 3694 05fe 11060000 		.4byte	0x611
 3695 0602 1F       		.uleb128 0x1f
 3696 0603 E8030000 		.4byte	.LASF33
 3697 0607 01       		.byte	0x1
 3698 0608 D903     		.2byte	0x3d9
 3699 060a 6B000000 		.4byte	0x6b
 3700 060e 01       		.uleb128 0x1
 3701 060f 50       		.byte	0x50
 3702 0610 00       		.byte	0
 3703 0611 1D       		.uleb128 0x1d
 3704 0612 2A030000 		.4byte	.LASF62
 3705 0616 01       		.byte	0x1
 3706 0617 0604     		.2byte	0x406
 3707 0619 00000000 		.4byte	.LFB22
 3708 061d 30000000 		.4byte	.LFE22-.LFB22
 3709 0621 01       		.uleb128 0x1
 3710 0622 9C       		.byte	0x9c
 3711 0623 36060000 		.4byte	0x636
 3712 0627 1F       		.uleb128 0x1f
 3713 0628 8A050000 		.4byte	.LASF63
ARM GAS  C:\Users\mark6\AppData\Local\Temp\ccQgPzp9.s 			page 114


 3714 062c 01       		.byte	0x1
 3715 062d 0604     		.2byte	0x406
 3716 062f 77000000 		.4byte	0x77
 3717 0633 01       		.uleb128 0x1
 3718 0634 50       		.byte	0x50
 3719 0635 00       		.byte	0
 3720 0636 1E       		.uleb128 0x1e
 3721 0637 7C020000 		.4byte	.LASF65
 3722 063b 01       		.byte	0x1
 3723 063c 2904     		.2byte	0x429
 3724 063e 6B000000 		.4byte	0x6b
 3725 0642 00000000 		.4byte	.LFB23
 3726 0646 0C000000 		.4byte	.LFE23-.LFB23
 3727 064a 01       		.uleb128 0x1
 3728 064b 9C       		.byte	0x9c
 3729 064c 1E       		.uleb128 0x1e
 3730 064d A8060000 		.4byte	.LASF66
 3731 0651 01       		.byte	0x1
 3732 0652 4104     		.2byte	0x441
 3733 0654 6B000000 		.4byte	0x6b
 3734 0658 00000000 		.4byte	.LFB24
 3735 065c 0C000000 		.4byte	.LFE24-.LFB24
 3736 0660 01       		.uleb128 0x1
 3737 0661 9C       		.byte	0x9c
 3738 0662 1E       		.uleb128 0x1e
 3739 0663 8B040000 		.4byte	.LASF67
 3740 0667 01       		.byte	0x1
 3741 0668 5904     		.2byte	0x459
 3742 066a 6B000000 		.4byte	0x6b
 3743 066e 00000000 		.4byte	.LFB25
 3744 0672 0C000000 		.4byte	.LFE25-.LFB25
 3745 0676 01       		.uleb128 0x1
 3746 0677 9C       		.byte	0x9c
 3747 0678 1E       		.uleb128 0x1e
 3748 0679 BF050000 		.4byte	.LASF68
 3749 067d 01       		.byte	0x1
 3750 067e 7304     		.2byte	0x473
 3751 0680 6B000000 		.4byte	0x6b
 3752 0684 00000000 		.4byte	.LFB26
 3753 0688 0C000000 		.4byte	.LFE26-.LFB26
 3754 068c 01       		.uleb128 0x1
 3755 068d 9C       		.byte	0x9c
 3756 068e 1E       		.uleb128 0x1e
 3757 068f 10020000 		.4byte	.LASF69
 3758 0693 01       		.byte	0x1
 3759 0694 8B04     		.2byte	0x48b
 3760 0696 6B000000 		.4byte	0x6b
 3761 069a 00000000 		.4byte	.LFB27
 3762 069e 0C000000 		.4byte	.LFE27-.LFB27
 3763 06a2 01       		.uleb128 0x1
 3764 06a3 9C       		.byte	0x9c
 3765 06a4 1E       		.uleb128 0x1e
 3766 06a5 E4060000 		.4byte	.LASF70
 3767 06a9 01       		.byte	0x1
 3768 06aa A304     		.2byte	0x4a3
 3769 06ac 77000000 		.4byte	0x77
 3770 06b0 00000000 		.4byte	.LFB28
ARM GAS  C:\Users\mark6\AppData\Local\Temp\ccQgPzp9.s 			page 115


 3771 06b4 0C000000 		.4byte	.LFE28-.LFB28
 3772 06b8 01       		.uleb128 0x1
 3773 06b9 9C       		.byte	0x9c
 3774 06ba 1E       		.uleb128 0x1e
 3775 06bb AB050000 		.4byte	.LASF71
 3776 06bf 01       		.byte	0x1
 3777 06c0 BC04     		.2byte	0x4bc
 3778 06c2 6B000000 		.4byte	0x6b
 3779 06c6 00000000 		.4byte	.LFB29
 3780 06ca 0C000000 		.4byte	.LFE29-.LFB29
 3781 06ce 01       		.uleb128 0x1
 3782 06cf 9C       		.byte	0x9c
 3783 06d0 1E       		.uleb128 0x1e
 3784 06d1 D4030000 		.4byte	.LASF72
 3785 06d5 01       		.byte	0x1
 3786 06d6 D404     		.2byte	0x4d4
 3787 06d8 6B000000 		.4byte	0x6b
 3788 06dc 00000000 		.4byte	.LFB30
 3789 06e0 0C000000 		.4byte	.LFE30-.LFB30
 3790 06e4 01       		.uleb128 0x1
 3791 06e5 9C       		.byte	0x9c
 3792 06e6 1E       		.uleb128 0x1e
 3793 06e7 FE010000 		.4byte	.LASF73
 3794 06eb 01       		.byte	0x1
 3795 06ec EC04     		.2byte	0x4ec
 3796 06ee 6B000000 		.4byte	0x6b
 3797 06f2 00000000 		.4byte	.LFB31
 3798 06f6 0C000000 		.4byte	.LFE31-.LFB31
 3799 06fa 01       		.uleb128 0x1
 3800 06fb 9C       		.byte	0x9c
 3801 06fc 1E       		.uleb128 0x1e
 3802 06fd 9D040000 		.4byte	.LASF74
 3803 0701 01       		.byte	0x1
 3804 0702 0505     		.2byte	0x505
 3805 0704 6B000000 		.4byte	0x6b
 3806 0708 00000000 		.4byte	.LFB32
 3807 070c 0C000000 		.4byte	.LFE32-.LFB32
 3808 0710 01       		.uleb128 0x1
 3809 0711 9C       		.byte	0x9c
 3810 0712 1E       		.uleb128 0x1e
 3811 0713 B5010000 		.4byte	.LASF75
 3812 0717 01       		.byte	0x1
 3813 0718 1E05     		.2byte	0x51e
 3814 071a 6B000000 		.4byte	0x6b
 3815 071e 00000000 		.4byte	.LFB33
 3816 0722 0C000000 		.4byte	.LFE33-.LFB33
 3817 0726 01       		.uleb128 0x1
 3818 0727 9C       		.byte	0x9c
 3819 0728 1E       		.uleb128 0x1e
 3820 0729 95070000 		.4byte	.LASF76
 3821 072d 01       		.byte	0x1
 3822 072e 3605     		.2byte	0x536
 3823 0730 77000000 		.4byte	0x77
 3824 0734 00000000 		.4byte	.LFB34
 3825 0738 0C000000 		.4byte	.LFE34-.LFB34
 3826 073c 01       		.uleb128 0x1
 3827 073d 9C       		.byte	0x9c
ARM GAS  C:\Users\mark6\AppData\Local\Temp\ccQgPzp9.s 			page 116


 3828 073e 1E       		.uleb128 0x1e
 3829 073f B7060000 		.4byte	.LASF77
 3830 0743 01       		.byte	0x1
 3831 0744 4F05     		.2byte	0x54f
 3832 0746 6B000000 		.4byte	0x6b
 3833 074a 00000000 		.4byte	.LFB35
 3834 074e 0C000000 		.4byte	.LFE35-.LFB35
 3835 0752 01       		.uleb128 0x1
 3836 0753 9C       		.byte	0x9c
 3837 0754 1E       		.uleb128 0x1e
 3838 0755 03060000 		.4byte	.LASF78
 3839 0759 01       		.byte	0x1
 3840 075a 6805     		.2byte	0x568
 3841 075c 77000000 		.4byte	0x77
 3842 0760 00000000 		.4byte	.LFB36
 3843 0764 0C000000 		.4byte	.LFE36-.LFB36
 3844 0768 01       		.uleb128 0x1
 3845 0769 9C       		.byte	0x9c
 3846 076a 1D       		.uleb128 0x1d
 3847 076b 52060000 		.4byte	.LASF79
 3848 076f 01       		.byte	0x1
 3849 0770 8505     		.2byte	0x585
 3850 0772 00000000 		.4byte	.LFB37
 3851 0776 0C000000 		.4byte	.LFE37-.LFB37
 3852 077a 01       		.uleb128 0x1
 3853 077b 9C       		.byte	0x9c
 3854 077c 8F070000 		.4byte	0x78f
 3855 0780 1F       		.uleb128 0x1f
 3856 0781 FF020000 		.4byte	.LASF80
 3857 0785 01       		.byte	0x1
 3858 0786 8505     		.2byte	0x585
 3859 0788 6B000000 		.4byte	0x6b
 3860 078c 01       		.uleb128 0x1
 3861 078d 50       		.byte	0x50
 3862 078e 00       		.byte	0
 3863 078f 1D       		.uleb128 0x1d
 3864 0790 B5040000 		.4byte	.LASF81
 3865 0794 01       		.byte	0x1
 3866 0795 A105     		.2byte	0x5a1
 3867 0797 00000000 		.4byte	.LFB38
 3868 079b 0C000000 		.4byte	.LFE38-.LFB38
 3869 079f 01       		.uleb128 0x1
 3870 07a0 9C       		.byte	0x9c
 3871 07a1 B4070000 		.4byte	0x7b4
 3872 07a5 1F       		.uleb128 0x1f
 3873 07a6 FF020000 		.4byte	.LASF80
 3874 07aa 01       		.byte	0x1
 3875 07ab A105     		.2byte	0x5a1
 3876 07ad 6B000000 		.4byte	0x6b
 3877 07b1 01       		.uleb128 0x1
 3878 07b2 50       		.byte	0x50
 3879 07b3 00       		.byte	0
 3880 07b4 20       		.uleb128 0x20
 3881 07b5 86070000 		.4byte	.LASF115
 3882 07b9 01       		.byte	0x1
 3883 07ba C005     		.2byte	0x5c0
 3884 07bc 6B000000 		.4byte	0x6b
ARM GAS  C:\Users\mark6\AppData\Local\Temp\ccQgPzp9.s 			page 117


 3885 07c0 00000000 		.4byte	.LFB39
 3886 07c4 14000000 		.4byte	.LFE39-.LFB39
 3887 07c8 01       		.uleb128 0x1
 3888 07c9 9C       		.byte	0x9c
 3889 07ca DD070000 		.4byte	0x7dd
 3890 07ce 0E       		.uleb128 0xe
 3891 07cf F1060000 		.4byte	.LASF82
 3892 07d3 01       		.byte	0x1
 3893 07d4 C205     		.2byte	0x5c2
 3894 07d6 6B000000 		.4byte	0x6b
 3895 07da 01       		.uleb128 0x1
 3896 07db 50       		.byte	0x50
 3897 07dc 00       		.byte	0
 3898 07dd 1D       		.uleb128 0x1d
 3899 07de 79050000 		.4byte	.LASF83
 3900 07e2 01       		.byte	0x1
 3901 07e3 3308     		.2byte	0x833
 3902 07e5 00000000 		.4byte	.LFB42
 3903 07e9 18000000 		.4byte	.LFE42-.LFB42
 3904 07ed 01       		.uleb128 0x1
 3905 07ee 9C       		.byte	0x9c
 3906 07ef 0D080000 		.4byte	0x80d
 3907 07f3 0D       		.uleb128 0xd
 3908 07f4 99050000 		.4byte	.LASF84
 3909 07f8 01       		.byte	0x1
 3910 07f9 3308     		.2byte	0x833
 3911 07fb 6B000000 		.4byte	0x6b
 3912 07ff 26020000 		.4byte	.LLST11
 3913 0803 19       		.uleb128 0x19
 3914 0804 10000000 		.4byte	.LVL81
 3915 0808 20020000 		.4byte	0x220
 3916 080c 00       		.byte	0
 3917 080d 1D       		.uleb128 0x1d
 3918 080e 28060000 		.4byte	.LASF85
 3919 0812 01       		.byte	0x1
 3920 0813 5608     		.2byte	0x856
 3921 0815 00000000 		.4byte	.LFB43
 3922 0819 0C000000 		.4byte	.LFE43-.LFB43
 3923 081d 01       		.uleb128 0x1
 3924 081e 9C       		.byte	0x9c
 3925 081f 32080000 		.4byte	0x832
 3926 0823 1F       		.uleb128 0x1f
 3927 0824 98040000 		.4byte	.LASF51
 3928 0828 01       		.byte	0x1
 3929 0829 5608     		.2byte	0x856
 3930 082b 6B000000 		.4byte	0x6b
 3931 082f 01       		.uleb128 0x1
 3932 0830 50       		.byte	0x50
 3933 0831 00       		.byte	0
 3934 0832 1D       		.uleb128 0x1d
 3935 0833 5C000000 		.4byte	.LASF86
 3936 0837 01       		.byte	0x1
 3937 0838 7308     		.2byte	0x873
 3938 083a 00000000 		.4byte	.LFB44
 3939 083e 0C000000 		.4byte	.LFE44-.LFB44
 3940 0842 01       		.uleb128 0x1
 3941 0843 9C       		.byte	0x9c
ARM GAS  C:\Users\mark6\AppData\Local\Temp\ccQgPzp9.s 			page 118


 3942 0844 57080000 		.4byte	0x857
 3943 0848 1F       		.uleb128 0x1f
 3944 0849 D1040000 		.4byte	.LASF28
 3945 084d 01       		.byte	0x1
 3946 084e 7308     		.2byte	0x873
 3947 0850 6B000000 		.4byte	0x6b
 3948 0854 01       		.uleb128 0x1
 3949 0855 50       		.byte	0x50
 3950 0856 00       		.byte	0
 3951 0857 1D       		.uleb128 0x1d
 3952 0858 07000000 		.4byte	.LASF87
 3953 085c 01       		.byte	0x1
 3954 085d 9108     		.2byte	0x891
 3955 085f 00000000 		.4byte	.LFB45
 3956 0863 0C000000 		.4byte	.LFE45-.LFB45
 3957 0867 01       		.uleb128 0x1
 3958 0868 9C       		.byte	0x9c
 3959 0869 7C080000 		.4byte	0x87c
 3960 086d 1F       		.uleb128 0x1f
 3961 086e 24030000 		.4byte	.LASF29
 3962 0872 01       		.byte	0x1
 3963 0873 9108     		.2byte	0x891
 3964 0875 6B000000 		.4byte	0x6b
 3965 0879 01       		.uleb128 0x1
 3966 087a 50       		.byte	0x50
 3967 087b 00       		.byte	0
 3968 087c 1D       		.uleb128 0x1d
 3969 087d 8D060000 		.4byte	.LASF88
 3970 0881 01       		.byte	0x1
 3971 0882 C308     		.2byte	0x8c3
 3972 0884 00000000 		.4byte	.LFB46
 3973 0888 20000000 		.4byte	.LFE46-.LFB46
 3974 088c 01       		.uleb128 0x1
 3975 088d 9C       		.byte	0x9c
 3976 088e AC080000 		.4byte	0x8ac
 3977 0892 0D       		.uleb128 0xd
 3978 0893 E8030000 		.4byte	.LASF33
 3979 0897 01       		.byte	0x1
 3980 0898 C308     		.2byte	0x8c3
 3981 089a 6B000000 		.4byte	0x6b
 3982 089e 47020000 		.4byte	.LLST12
 3983 08a2 19       		.uleb128 0x19
 3984 08a3 14000000 		.4byte	.LVL86
 3985 08a7 20020000 		.4byte	0x220
 3986 08ab 00       		.byte	0
 3987 08ac 1D       		.uleb128 0x1d
 3988 08ad CE060000 		.4byte	.LASF89
 3989 08b1 01       		.byte	0x1
 3990 08b2 FF08     		.2byte	0x8ff
 3991 08b4 00000000 		.4byte	.LFB47
 3992 08b8 20000000 		.4byte	.LFE47-.LFB47
 3993 08bc 01       		.uleb128 0x1
 3994 08bd 9C       		.byte	0x9c
 3995 08be DC080000 		.4byte	0x8dc
 3996 08c2 0D       		.uleb128 0xd
 3997 08c3 A7070000 		.4byte	.LASF32
 3998 08c7 01       		.byte	0x1
ARM GAS  C:\Users\mark6\AppData\Local\Temp\ccQgPzp9.s 			page 119


 3999 08c8 FF08     		.2byte	0x8ff
 4000 08ca 6B000000 		.4byte	0x6b
 4001 08ce 68020000 		.4byte	.LLST13
 4002 08d2 19       		.uleb128 0x19
 4003 08d3 14000000 		.4byte	.LVL88
 4004 08d7 20020000 		.4byte	0x220
 4005 08db 00       		.byte	0
 4006 08dc 1D       		.uleb128 0x1d
 4007 08dd FA040000 		.4byte	.LASF90
 4008 08e1 01       		.byte	0x1
 4009 08e2 2209     		.2byte	0x922
 4010 08e4 00000000 		.4byte	.LFB48
 4011 08e8 0C000000 		.4byte	.LFE48-.LFB48
 4012 08ec 01       		.uleb128 0x1
 4013 08ed 9C       		.byte	0x9c
 4014 08ee 01090000 		.4byte	0x901
 4015 08f2 1F       		.uleb128 0x1f
 4016 08f3 98040000 		.4byte	.LASF51
 4017 08f7 01       		.byte	0x1
 4018 08f8 2209     		.2byte	0x922
 4019 08fa 6B000000 		.4byte	0x6b
 4020 08fe 01       		.uleb128 0x1
 4021 08ff 50       		.byte	0x50
 4022 0900 00       		.byte	0
 4023 0901 1D       		.uleb128 0x1d
 4024 0902 67040000 		.4byte	.LASF91
 4025 0906 01       		.byte	0x1
 4026 0907 3F09     		.2byte	0x93f
 4027 0909 00000000 		.4byte	.LFB49
 4028 090d 0C000000 		.4byte	.LFE49-.LFB49
 4029 0911 01       		.uleb128 0x1
 4030 0912 9C       		.byte	0x9c
 4031 0913 26090000 		.4byte	0x926
 4032 0917 1F       		.uleb128 0x1f
 4033 0918 D1040000 		.4byte	.LASF28
 4034 091c 01       		.byte	0x1
 4035 091d 3F09     		.2byte	0x93f
 4036 091f 6B000000 		.4byte	0x6b
 4037 0923 01       		.uleb128 0x1
 4038 0924 50       		.byte	0x50
 4039 0925 00       		.byte	0
 4040 0926 1D       		.uleb128 0x1d
 4041 0927 1E000000 		.4byte	.LASF92
 4042 092b 01       		.byte	0x1
 4043 092c 5D09     		.2byte	0x95d
 4044 092e 00000000 		.4byte	.LFB50
 4045 0932 0C000000 		.4byte	.LFE50-.LFB50
 4046 0936 01       		.uleb128 0x1
 4047 0937 9C       		.byte	0x9c
 4048 0938 4B090000 		.4byte	0x94b
 4049 093c 1F       		.uleb128 0x1f
 4050 093d 24030000 		.4byte	.LASF29
 4051 0941 01       		.byte	0x1
 4052 0942 5D09     		.2byte	0x95d
 4053 0944 6B000000 		.4byte	0x6b
 4054 0948 01       		.uleb128 0x1
 4055 0949 50       		.byte	0x50
ARM GAS  C:\Users\mark6\AppData\Local\Temp\ccQgPzp9.s 			page 120


 4056 094a 00       		.byte	0
 4057 094b 1D       		.uleb128 0x1d
 4058 094c 2A010000 		.4byte	.LASF93
 4059 0950 01       		.byte	0x1
 4060 0951 9209     		.2byte	0x992
 4061 0953 00000000 		.4byte	.LFB51
 4062 0957 20000000 		.4byte	.LFE51-.LFB51
 4063 095b 01       		.uleb128 0x1
 4064 095c 9C       		.byte	0x9c
 4065 095d 7B090000 		.4byte	0x97b
 4066 0961 0D       		.uleb128 0xd
 4067 0962 E8030000 		.4byte	.LASF33
 4068 0966 01       		.byte	0x1
 4069 0967 9209     		.2byte	0x992
 4070 0969 6B000000 		.4byte	0x6b
 4071 096d 89020000 		.4byte	.LLST14
 4072 0971 19       		.uleb128 0x19
 4073 0972 14000000 		.4byte	.LVL93
 4074 0976 20020000 		.4byte	0x220
 4075 097a 00       		.byte	0
 4076 097b 1D       		.uleb128 0x1d
 4077 097c EC000000 		.4byte	.LASF94
 4078 0980 01       		.byte	0x1
 4079 0981 CE09     		.2byte	0x9ce
 4080 0983 00000000 		.4byte	.LFB52
 4081 0987 20000000 		.4byte	.LFE52-.LFB52
 4082 098b 01       		.uleb128 0x1
 4083 098c 9C       		.byte	0x9c
 4084 098d AB090000 		.4byte	0x9ab
 4085 0991 0D       		.uleb128 0xd
 4086 0992 A7070000 		.4byte	.LASF32
 4087 0996 01       		.byte	0x1
 4088 0997 CE09     		.2byte	0x9ce
 4089 0999 6B000000 		.4byte	0x6b
 4090 099d AA020000 		.4byte	.LLST15
 4091 09a1 19       		.uleb128 0x19
 4092 09a2 14000000 		.4byte	.LVL95
 4093 09a6 20020000 		.4byte	0x220
 4094 09aa 00       		.byte	0
 4095 09ab 1D       		.uleb128 0x1d
 4096 09ac 44010000 		.4byte	.LASF95
 4097 09b0 01       		.byte	0x1
 4098 09b1 F209     		.2byte	0x9f2
 4099 09b3 00000000 		.4byte	.LFB53
 4100 09b7 0C000000 		.4byte	.LFE53-.LFB53
 4101 09bb 01       		.uleb128 0x1
 4102 09bc 9C       		.byte	0x9c
 4103 09bd D0090000 		.4byte	0x9d0
 4104 09c1 1F       		.uleb128 0x1f
 4105 09c2 E7050000 		.4byte	.LASF96
 4106 09c6 01       		.byte	0x1
 4107 09c7 F209     		.2byte	0x9f2
 4108 09c9 6B000000 		.4byte	0x6b
 4109 09cd 01       		.uleb128 0x1
 4110 09ce 50       		.byte	0x50
 4111 09cf 00       		.byte	0
 4112 09d0 21       		.uleb128 0x21
ARM GAS  C:\Users\mark6\AppData\Local\Temp\ccQgPzp9.s 			page 121


 4113 09d1 28020000 		.4byte	.LASF97
 4114 09d5 01       		.byte	0x1
 4115 09d6 1C       		.byte	0x1c
 4116 09d7 6B000000 		.4byte	0x6b
 4117 09db 05       		.uleb128 0x5
 4118 09dc 03       		.byte	0x3
 4119 09dd 00000000 		.4byte	RTC_initVar
 4120 09e1 21       		.uleb128 0x21
 4121 09e2 0F030000 		.4byte	.LASF98
 4122 09e6 01       		.byte	0x1
 4123 09e7 28       		.byte	0x28
 4124 09e8 42010000 		.4byte	0x142
 4125 09ec 05       		.uleb128 0x5
 4126 09ed 03       		.byte	0x3
 4127 09ee 00000000 		.4byte	RTC_alarmCfgTimeDate
 4128 09f2 21       		.uleb128 0x21
 4129 09f3 22050000 		.4byte	.LASF99
 4130 09f7 01       		.byte	0x1
 4131 09f8 22       		.byte	0x22
 4132 09f9 42010000 		.4byte	0x142
 4133 09fd 05       		.uleb128 0x5
 4134 09fe 03       		.byte	0x3
 4135 09ff 00000000 		.4byte	RTC_currentTimeDate
 4136 0a03 21       		.uleb128 0x21
 4137 0a04 34000000 		.4byte	.LASF100
 4138 0a08 01       		.byte	0x1
 4139 0a09 2D       		.byte	0x2d
 4140 0a0a B0000000 		.4byte	0xb0
 4141 0a0e 05       		.uleb128 0x5
 4142 0a0f 03       		.byte	0x3
 4143 0a10 00000000 		.4byte	RTC_dstModeType
 4144 0a14 21       		.uleb128 0x21
 4145 0a15 EE050000 		.4byte	.LASF101
 4146 0a19 01       		.byte	0x1
 4147 0a1a 30       		.byte	0x30
 4148 0a1b 97010000 		.4byte	0x197
 4149 0a1f 05       		.uleb128 0x5
 4150 0a20 03       		.byte	0x3
 4151 0a21 00000000 		.4byte	RTC_dstTimeDateStart
 4152 0a25 21       		.uleb128 0x21
 4153 0a26 01010000 		.4byte	.LASF102
 4154 0a2a 01       		.byte	0x1
 4155 0a2b 31       		.byte	0x31
 4156 0a2c 97010000 		.4byte	0x197
 4157 0a30 05       		.uleb128 0x5
 4158 0a31 03       		.byte	0x3
 4159 0a32 00000000 		.4byte	RTC_dstTimeDateStop
 4160 0a36 21       		.uleb128 0x21
 4161 0a37 04040000 		.4byte	.LASF103
 4162 0a3b 01       		.byte	0x1
 4163 0a3c 34       		.byte	0x34
 4164 0a3d B0000000 		.4byte	0xb0
 4165 0a41 05       		.uleb128 0x5
 4166 0a42 03       		.byte	0x3
 4167 0a43 00000000 		.4byte	RTC_dstOffsetMin
 4168 0a47 21       		.uleb128 0x21
 4169 0a48 A2010000 		.4byte	.LASF104
ARM GAS  C:\Users\mark6\AppData\Local\Temp\ccQgPzp9.s 			page 122


 4170 0a4c 01       		.byte	0x1
 4171 0a4d 35       		.byte	0x35
 4172 0a4e B0000000 		.4byte	0xb0
 4173 0a52 05       		.uleb128 0x5
 4174 0a53 03       		.byte	0x3
 4175 0a54 00000000 		.4byte	RTC_dstStartStatus
 4176 0a58 21       		.uleb128 0x21
 4177 0a59 AC070000 		.4byte	.LASF105
 4178 0a5d 01       		.byte	0x1
 4179 0a5e 36       		.byte	0x36
 4180 0a5f B0000000 		.4byte	0xb0
 4181 0a63 05       		.uleb128 0x5
 4182 0a64 03       		.byte	0x3
 4183 0a65 00000000 		.4byte	RTC_dstStopStatus
 4184 0a69 21       		.uleb128 0x21
 4185 0a6a D7010000 		.4byte	.LASF106
 4186 0a6e 01       		.byte	0x1
 4187 0a6f 3B       		.byte	0x3b
 4188 0a70 B0000000 		.4byte	0xb0
 4189 0a74 05       		.uleb128 0x5
 4190 0a75 03       		.byte	0x3
 4191 0a76 00000000 		.4byte	RTC_alarmCfgMask
 4192 0a7a 21       		.uleb128 0x21
 4193 0a7b D4000000 		.4byte	.LASF107
 4194 0a7f 01       		.byte	0x1
 4195 0a80 3C       		.byte	0x3c
 4196 0a81 B0000000 		.4byte	0xb0
 4197 0a85 05       		.uleb128 0x5
 4198 0a86 03       		.byte	0x3
 4199 0a87 00000000 		.4byte	RTC_alarmCurStatus
 4200 0a8b 21       		.uleb128 0x21
 4201 0a8c 3D050000 		.4byte	.LASF108
 4202 0a90 01       		.byte	0x1
 4203 0a91 3D       		.byte	0x3d
 4204 0a92 B0000000 		.4byte	0xb0
 4205 0a96 05       		.uleb128 0x5
 4206 0a97 03       		.byte	0x3
 4207 0a98 00000000 		.4byte	RTC_intervalCfgMask
 4208 0a9c 21       		.uleb128 0x21
 4209 0a9d C2020000 		.4byte	.LASF109
 4210 0aa1 01       		.byte	0x1
 4211 0aa2 40       		.byte	0x40
 4212 0aa3 B0000000 		.4byte	0xb0
 4213 0aa7 05       		.uleb128 0x5
 4214 0aa8 03       		.byte	0x3
 4215 0aa9 00000000 		.4byte	RTC_statusDateTime
 4216 0aad 21       		.uleb128 0x21
 4217 0aae 1B040000 		.4byte	.LASF110
 4218 0ab2 01       		.byte	0x1
 4219 0ab3 43       		.byte	0x43
 4220 0ab4 BE0A0000 		.4byte	0xabe
 4221 0ab8 05       		.uleb128 0x5
 4222 0ab9 03       		.byte	0x3
 4223 0aba 00000000 		.4byte	RTC_daysInMonths
 4224 0abe 11       		.uleb128 0x11
 4225 0abf 0B020000 		.4byte	0x20b
 4226 0ac3 22       		.uleb128 0x22
ARM GAS  C:\Users\mark6\AppData\Local\Temp\ccQgPzp9.s 			page 123


 4227 0ac4 61030000 		.4byte	.LASF116
 4228 0ac8 04       		.byte	0x4
 4229 0ac9 7D       		.byte	0x7d
 4230 0aca 6B000000 		.4byte	0x6b
 4231 0ace 23       		.uleb128 0x23
 4232 0acf E8010000 		.4byte	.LASF117
 4233 0ad3 04       		.byte	0x4
 4234 0ad4 7E       		.byte	0x7e
 4235 0ad5 DF0A0000 		.4byte	0xadf
 4236 0ad9 24       		.uleb128 0x24
 4237 0ada 6B000000 		.4byte	0x6b
 4238 0ade 00       		.byte	0
 4239 0adf 25       		.uleb128 0x25
 4240 0ae0 F0020000 		.4byte	.LASF118
 4241 0ae4 04       		.byte	0x4
 4242 0ae5 88       		.byte	0x88
 4243 0ae6 C6000000 		.4byte	0xc6
 4244 0aea F90A0000 		.4byte	0xaf9
 4245 0aee 24       		.uleb128 0x24
 4246 0aef 6B000000 		.4byte	0x6b
 4247 0af3 24       		.uleb128 0x24
 4248 0af4 C6000000 		.4byte	0xc6
 4249 0af8 00       		.byte	0
 4250 0af9 26       		.uleb128 0x26
 4251 0afa B0030000 		.4byte	.LASF119
 4252 0afe 04       		.byte	0x4
 4253 0aff 8B       		.byte	0x8b
 4254 0b00 24       		.uleb128 0x24
 4255 0b01 6B000000 		.4byte	0x6b
 4256 0b05 24       		.uleb128 0x24
 4257 0b06 6B000000 		.4byte	0x6b
 4258 0b0a 00       		.byte	0
 4259 0b0b 00       		.byte	0
 4260              		.section	.debug_abbrev,"",%progbits
 4261              	.Ldebug_abbrev0:
 4262 0000 01       		.uleb128 0x1
 4263 0001 11       		.uleb128 0x11
 4264 0002 01       		.byte	0x1
 4265 0003 25       		.uleb128 0x25
 4266 0004 0E       		.uleb128 0xe
 4267 0005 13       		.uleb128 0x13
 4268 0006 0B       		.uleb128 0xb
 4269 0007 03       		.uleb128 0x3
 4270 0008 0E       		.uleb128 0xe
 4271 0009 1B       		.uleb128 0x1b
 4272 000a 0E       		.uleb128 0xe
 4273 000b 55       		.uleb128 0x55
 4274 000c 17       		.uleb128 0x17
 4275 000d 11       		.uleb128 0x11
 4276 000e 01       		.uleb128 0x1
 4277 000f 10       		.uleb128 0x10
 4278 0010 17       		.uleb128 0x17
 4279 0011 00       		.byte	0
 4280 0012 00       		.byte	0
 4281 0013 02       		.uleb128 0x2
 4282 0014 24       		.uleb128 0x24
 4283 0015 00       		.byte	0
ARM GAS  C:\Users\mark6\AppData\Local\Temp\ccQgPzp9.s 			page 124


 4284 0016 0B       		.uleb128 0xb
 4285 0017 0B       		.uleb128 0xb
 4286 0018 3E       		.uleb128 0x3e
 4287 0019 0B       		.uleb128 0xb
 4288 001a 03       		.uleb128 0x3
 4289 001b 0E       		.uleb128 0xe
 4290 001c 00       		.byte	0
 4291 001d 00       		.byte	0
 4292 001e 03       		.uleb128 0x3
 4293 001f 24       		.uleb128 0x24
 4294 0020 00       		.byte	0
 4295 0021 0B       		.uleb128 0xb
 4296 0022 0B       		.uleb128 0xb
 4297 0023 3E       		.uleb128 0x3e
 4298 0024 0B       		.uleb128 0xb
 4299 0025 03       		.uleb128 0x3
 4300 0026 08       		.uleb128 0x8
 4301 0027 00       		.byte	0
 4302 0028 00       		.byte	0
 4303 0029 04       		.uleb128 0x4
 4304 002a 16       		.uleb128 0x16
 4305 002b 00       		.byte	0
 4306 002c 03       		.uleb128 0x3
 4307 002d 0E       		.uleb128 0xe
 4308 002e 3A       		.uleb128 0x3a
 4309 002f 0B       		.uleb128 0xb
 4310 0030 3B       		.uleb128 0x3b
 4311 0031 05       		.uleb128 0x5
 4312 0032 49       		.uleb128 0x49
 4313 0033 13       		.uleb128 0x13
 4314 0034 00       		.byte	0
 4315 0035 00       		.byte	0
 4316 0036 05       		.uleb128 0x5
 4317 0037 35       		.uleb128 0x35
 4318 0038 00       		.byte	0
 4319 0039 49       		.uleb128 0x49
 4320 003a 13       		.uleb128 0x13
 4321 003b 00       		.byte	0
 4322 003c 00       		.byte	0
 4323 003d 06       		.uleb128 0x6
 4324 003e 0F       		.uleb128 0xf
 4325 003f 00       		.byte	0
 4326 0040 0B       		.uleb128 0xb
 4327 0041 0B       		.uleb128 0xb
 4328 0042 49       		.uleb128 0x49
 4329 0043 13       		.uleb128 0x13
 4330 0044 00       		.byte	0
 4331 0045 00       		.byte	0
 4332 0046 07       		.uleb128 0x7
 4333 0047 15       		.uleb128 0x15
 4334 0048 00       		.byte	0
 4335 0049 27       		.uleb128 0x27
 4336 004a 19       		.uleb128 0x19
 4337 004b 00       		.byte	0
 4338 004c 00       		.byte	0
 4339 004d 08       		.uleb128 0x8
 4340 004e 13       		.uleb128 0x13
ARM GAS  C:\Users\mark6\AppData\Local\Temp\ccQgPzp9.s 			page 125


 4341 004f 01       		.byte	0x1
 4342 0050 0B       		.uleb128 0xb
 4343 0051 0B       		.uleb128 0xb
 4344 0052 3A       		.uleb128 0x3a
 4345 0053 0B       		.uleb128 0xb
 4346 0054 3B       		.uleb128 0x3b
 4347 0055 0B       		.uleb128 0xb
 4348 0056 01       		.uleb128 0x1
 4349 0057 13       		.uleb128 0x13
 4350 0058 00       		.byte	0
 4351 0059 00       		.byte	0
 4352 005a 09       		.uleb128 0x9
 4353 005b 0D       		.uleb128 0xd
 4354 005c 00       		.byte	0
 4355 005d 03       		.uleb128 0x3
 4356 005e 08       		.uleb128 0x8
 4357 005f 3A       		.uleb128 0x3a
 4358 0060 0B       		.uleb128 0xb
 4359 0061 3B       		.uleb128 0x3b
 4360 0062 0B       		.uleb128 0xb
 4361 0063 49       		.uleb128 0x49
 4362 0064 13       		.uleb128 0x13
 4363 0065 38       		.uleb128 0x38
 4364 0066 0B       		.uleb128 0xb
 4365 0067 00       		.byte	0
 4366 0068 00       		.byte	0
 4367 0069 0A       		.uleb128 0xa
 4368 006a 0D       		.uleb128 0xd
 4369 006b 00       		.byte	0
 4370 006c 03       		.uleb128 0x3
 4371 006d 0E       		.uleb128 0xe
 4372 006e 3A       		.uleb128 0x3a
 4373 006f 0B       		.uleb128 0xb
 4374 0070 3B       		.uleb128 0x3b
 4375 0071 0B       		.uleb128 0xb
 4376 0072 49       		.uleb128 0x49
 4377 0073 13       		.uleb128 0x13
 4378 0074 38       		.uleb128 0x38
 4379 0075 0B       		.uleb128 0xb
 4380 0076 00       		.byte	0
 4381 0077 00       		.byte	0
 4382 0078 0B       		.uleb128 0xb
 4383 0079 16       		.uleb128 0x16
 4384 007a 00       		.byte	0
 4385 007b 03       		.uleb128 0x3
 4386 007c 0E       		.uleb128 0xe
 4387 007d 3A       		.uleb128 0x3a
 4388 007e 0B       		.uleb128 0xb
 4389 007f 3B       		.uleb128 0x3b
 4390 0080 0B       		.uleb128 0xb
 4391 0081 49       		.uleb128 0x49
 4392 0082 13       		.uleb128 0x13
 4393 0083 00       		.byte	0
 4394 0084 00       		.byte	0
 4395 0085 0C       		.uleb128 0xc
 4396 0086 2E       		.uleb128 0x2e
 4397 0087 01       		.byte	0x1
ARM GAS  C:\Users\mark6\AppData\Local\Temp\ccQgPzp9.s 			page 126


 4398 0088 03       		.uleb128 0x3
 4399 0089 0E       		.uleb128 0xe
 4400 008a 3A       		.uleb128 0x3a
 4401 008b 0B       		.uleb128 0xb
 4402 008c 3B       		.uleb128 0x3b
 4403 008d 05       		.uleb128 0x5
 4404 008e 27       		.uleb128 0x27
 4405 008f 19       		.uleb128 0x19
 4406 0090 49       		.uleb128 0x49
 4407 0091 13       		.uleb128 0x13
 4408 0092 11       		.uleb128 0x11
 4409 0093 01       		.uleb128 0x1
 4410 0094 12       		.uleb128 0x12
 4411 0095 06       		.uleb128 0x6
 4412 0096 40       		.uleb128 0x40
 4413 0097 18       		.uleb128 0x18
 4414 0098 9742     		.uleb128 0x2117
 4415 009a 19       		.uleb128 0x19
 4416 009b 01       		.uleb128 0x1
 4417 009c 13       		.uleb128 0x13
 4418 009d 00       		.byte	0
 4419 009e 00       		.byte	0
 4420 009f 0D       		.uleb128 0xd
 4421 00a0 05       		.uleb128 0x5
 4422 00a1 00       		.byte	0
 4423 00a2 03       		.uleb128 0x3
 4424 00a3 0E       		.uleb128 0xe
 4425 00a4 3A       		.uleb128 0x3a
 4426 00a5 0B       		.uleb128 0xb
 4427 00a6 3B       		.uleb128 0x3b
 4428 00a7 05       		.uleb128 0x5
 4429 00a8 49       		.uleb128 0x49
 4430 00a9 13       		.uleb128 0x13
 4431 00aa 02       		.uleb128 0x2
 4432 00ab 17       		.uleb128 0x17
 4433 00ac 00       		.byte	0
 4434 00ad 00       		.byte	0
 4435 00ae 0E       		.uleb128 0xe
 4436 00af 34       		.uleb128 0x34
 4437 00b0 00       		.byte	0
 4438 00b1 03       		.uleb128 0x3
 4439 00b2 0E       		.uleb128 0xe
 4440 00b3 3A       		.uleb128 0x3a
 4441 00b4 0B       		.uleb128 0xb
 4442 00b5 3B       		.uleb128 0x3b
 4443 00b6 05       		.uleb128 0x5
 4444 00b7 49       		.uleb128 0x49
 4445 00b8 13       		.uleb128 0x13
 4446 00b9 02       		.uleb128 0x2
 4447 00ba 18       		.uleb128 0x18
 4448 00bb 00       		.byte	0
 4449 00bc 00       		.byte	0
 4450 00bd 0F       		.uleb128 0xf
 4451 00be 01       		.uleb128 0x1
 4452 00bf 01       		.byte	0x1
 4453 00c0 49       		.uleb128 0x49
 4454 00c1 13       		.uleb128 0x13
ARM GAS  C:\Users\mark6\AppData\Local\Temp\ccQgPzp9.s 			page 127


 4455 00c2 01       		.uleb128 0x1
 4456 00c3 13       		.uleb128 0x13
 4457 00c4 00       		.byte	0
 4458 00c5 00       		.byte	0
 4459 00c6 10       		.uleb128 0x10
 4460 00c7 21       		.uleb128 0x21
 4461 00c8 00       		.byte	0
 4462 00c9 49       		.uleb128 0x49
 4463 00ca 13       		.uleb128 0x13
 4464 00cb 2F       		.uleb128 0x2f
 4465 00cc 0B       		.uleb128 0xb
 4466 00cd 00       		.byte	0
 4467 00ce 00       		.byte	0
 4468 00cf 11       		.uleb128 0x11
 4469 00d0 26       		.uleb128 0x26
 4470 00d1 00       		.byte	0
 4471 00d2 49       		.uleb128 0x49
 4472 00d3 13       		.uleb128 0x13
 4473 00d4 00       		.byte	0
 4474 00d5 00       		.byte	0
 4475 00d6 12       		.uleb128 0x12
 4476 00d7 2E       		.uleb128 0x2e
 4477 00d8 01       		.byte	0x1
 4478 00d9 03       		.uleb128 0x3
 4479 00da 0E       		.uleb128 0xe
 4480 00db 3A       		.uleb128 0x3a
 4481 00dc 0B       		.uleb128 0xb
 4482 00dd 3B       		.uleb128 0x3b
 4483 00de 0B       		.uleb128 0xb
 4484 00df 27       		.uleb128 0x27
 4485 00e0 19       		.uleb128 0x19
 4486 00e1 11       		.uleb128 0x11
 4487 00e2 01       		.uleb128 0x1
 4488 00e3 12       		.uleb128 0x12
 4489 00e4 06       		.uleb128 0x6
 4490 00e5 40       		.uleb128 0x40
 4491 00e6 18       		.uleb128 0x18
 4492 00e7 9742     		.uleb128 0x2117
 4493 00e9 19       		.uleb128 0x19
 4494 00ea 01       		.uleb128 0x1
 4495 00eb 13       		.uleb128 0x13
 4496 00ec 00       		.byte	0
 4497 00ed 00       		.byte	0
 4498 00ee 13       		.uleb128 0x13
 4499 00ef 34       		.uleb128 0x34
 4500 00f0 00       		.byte	0
 4501 00f1 03       		.uleb128 0x3
 4502 00f2 0E       		.uleb128 0xe
 4503 00f3 3A       		.uleb128 0x3a
 4504 00f4 0B       		.uleb128 0xb
 4505 00f5 3B       		.uleb128 0x3b
 4506 00f6 05       		.uleb128 0x5
 4507 00f7 49       		.uleb128 0x49
 4508 00f8 13       		.uleb128 0x13
 4509 00f9 02       		.uleb128 0x2
 4510 00fa 17       		.uleb128 0x17
 4511 00fb 00       		.byte	0
ARM GAS  C:\Users\mark6\AppData\Local\Temp\ccQgPzp9.s 			page 128


 4512 00fc 00       		.byte	0
 4513 00fd 14       		.uleb128 0x14
 4514 00fe 34       		.uleb128 0x34
 4515 00ff 00       		.byte	0
 4516 0100 03       		.uleb128 0x3
 4517 0101 08       		.uleb128 0x8
 4518 0102 3A       		.uleb128 0x3a
 4519 0103 0B       		.uleb128 0xb
 4520 0104 3B       		.uleb128 0x3b
 4521 0105 05       		.uleb128 0x5
 4522 0106 49       		.uleb128 0x49
 4523 0107 13       		.uleb128 0x13
 4524 0108 02       		.uleb128 0x2
 4525 0109 17       		.uleb128 0x17
 4526 010a 00       		.byte	0
 4527 010b 00       		.byte	0
 4528 010c 15       		.uleb128 0x15
 4529 010d 898201   		.uleb128 0x4109
 4530 0110 01       		.byte	0x1
 4531 0111 11       		.uleb128 0x11
 4532 0112 01       		.uleb128 0x1
 4533 0113 31       		.uleb128 0x31
 4534 0114 13       		.uleb128 0x13
 4535 0115 01       		.uleb128 0x1
 4536 0116 13       		.uleb128 0x13
 4537 0117 00       		.byte	0
 4538 0118 00       		.byte	0
 4539 0119 16       		.uleb128 0x16
 4540 011a 8A8201   		.uleb128 0x410a
 4541 011d 00       		.byte	0
 4542 011e 02       		.uleb128 0x2
 4543 011f 18       		.uleb128 0x18
 4544 0120 9142     		.uleb128 0x2111
 4545 0122 18       		.uleb128 0x18
 4546 0123 00       		.byte	0
 4547 0124 00       		.byte	0
 4548 0125 17       		.uleb128 0x17
 4549 0126 898201   		.uleb128 0x4109
 4550 0129 01       		.byte	0x1
 4551 012a 11       		.uleb128 0x11
 4552 012b 01       		.uleb128 0x1
 4553 012c 31       		.uleb128 0x31
 4554 012d 13       		.uleb128 0x13
 4555 012e 00       		.byte	0
 4556 012f 00       		.byte	0
 4557 0130 18       		.uleb128 0x18
 4558 0131 2E       		.uleb128 0x2e
 4559 0132 01       		.byte	0x1
 4560 0133 03       		.uleb128 0x3
 4561 0134 0E       		.uleb128 0xe
 4562 0135 3A       		.uleb128 0x3a
 4563 0136 0B       		.uleb128 0xb
 4564 0137 3B       		.uleb128 0x3b
 4565 0138 05       		.uleb128 0x5
 4566 0139 27       		.uleb128 0x27
 4567 013a 19       		.uleb128 0x19
 4568 013b 11       		.uleb128 0x11
ARM GAS  C:\Users\mark6\AppData\Local\Temp\ccQgPzp9.s 			page 129


 4569 013c 01       		.uleb128 0x1
 4570 013d 12       		.uleb128 0x12
 4571 013e 06       		.uleb128 0x6
 4572 013f 40       		.uleb128 0x40
 4573 0140 18       		.uleb128 0x18
 4574 0141 9742     		.uleb128 0x2117
 4575 0143 19       		.uleb128 0x19
 4576 0144 01       		.uleb128 0x1
 4577 0145 13       		.uleb128 0x13
 4578 0146 00       		.byte	0
 4579 0147 00       		.byte	0
 4580 0148 19       		.uleb128 0x19
 4581 0149 898201   		.uleb128 0x4109
 4582 014c 00       		.byte	0
 4583 014d 11       		.uleb128 0x11
 4584 014e 01       		.uleb128 0x1
 4585 014f 31       		.uleb128 0x31
 4586 0150 13       		.uleb128 0x13
 4587 0151 00       		.byte	0
 4588 0152 00       		.byte	0
 4589 0153 1A       		.uleb128 0x1a
 4590 0154 2E       		.uleb128 0x2e
 4591 0155 01       		.byte	0x1
 4592 0156 3F       		.uleb128 0x3f
 4593 0157 19       		.uleb128 0x19
 4594 0158 03       		.uleb128 0x3
 4595 0159 0E       		.uleb128 0xe
 4596 015a 3A       		.uleb128 0x3a
 4597 015b 0B       		.uleb128 0xb
 4598 015c 3B       		.uleb128 0x3b
 4599 015d 0B       		.uleb128 0xb
 4600 015e 27       		.uleb128 0x27
 4601 015f 19       		.uleb128 0x19
 4602 0160 11       		.uleb128 0x11
 4603 0161 01       		.uleb128 0x1
 4604 0162 12       		.uleb128 0x12
 4605 0163 06       		.uleb128 0x6
 4606 0164 40       		.uleb128 0x40
 4607 0165 18       		.uleb128 0x18
 4608 0166 9742     		.uleb128 0x2117
 4609 0168 19       		.uleb128 0x19
 4610 0169 01       		.uleb128 0x1
 4611 016a 13       		.uleb128 0x13
 4612 016b 00       		.byte	0
 4613 016c 00       		.byte	0
 4614 016d 1B       		.uleb128 0x1b
 4615 016e 34       		.uleb128 0x34
 4616 016f 00       		.byte	0
 4617 0170 03       		.uleb128 0x3
 4618 0171 0E       		.uleb128 0xe
 4619 0172 3A       		.uleb128 0x3a
 4620 0173 0B       		.uleb128 0xb
 4621 0174 3B       		.uleb128 0x3b
 4622 0175 0B       		.uleb128 0xb
 4623 0176 49       		.uleb128 0x49
 4624 0177 13       		.uleb128 0x13
 4625 0178 02       		.uleb128 0x2
ARM GAS  C:\Users\mark6\AppData\Local\Temp\ccQgPzp9.s 			page 130


 4626 0179 17       		.uleb128 0x17
 4627 017a 00       		.byte	0
 4628 017b 00       		.byte	0
 4629 017c 1C       		.uleb128 0x1c
 4630 017d 2E       		.uleb128 0x2e
 4631 017e 00       		.byte	0
 4632 017f 3F       		.uleb128 0x3f
 4633 0180 19       		.uleb128 0x19
 4634 0181 03       		.uleb128 0x3
 4635 0182 0E       		.uleb128 0xe
 4636 0183 3A       		.uleb128 0x3a
 4637 0184 0B       		.uleb128 0xb
 4638 0185 3B       		.uleb128 0x3b
 4639 0186 0B       		.uleb128 0xb
 4640 0187 27       		.uleb128 0x27
 4641 0188 19       		.uleb128 0x19
 4642 0189 11       		.uleb128 0x11
 4643 018a 01       		.uleb128 0x1
 4644 018b 12       		.uleb128 0x12
 4645 018c 06       		.uleb128 0x6
 4646 018d 40       		.uleb128 0x40
 4647 018e 18       		.uleb128 0x18
 4648 018f 9742     		.uleb128 0x2117
 4649 0191 19       		.uleb128 0x19
 4650 0192 00       		.byte	0
 4651 0193 00       		.byte	0
 4652 0194 1D       		.uleb128 0x1d
 4653 0195 2E       		.uleb128 0x2e
 4654 0196 01       		.byte	0x1
 4655 0197 3F       		.uleb128 0x3f
 4656 0198 19       		.uleb128 0x19
 4657 0199 03       		.uleb128 0x3
 4658 019a 0E       		.uleb128 0xe
 4659 019b 3A       		.uleb128 0x3a
 4660 019c 0B       		.uleb128 0xb
 4661 019d 3B       		.uleb128 0x3b
 4662 019e 05       		.uleb128 0x5
 4663 019f 27       		.uleb128 0x27
 4664 01a0 19       		.uleb128 0x19
 4665 01a1 11       		.uleb128 0x11
 4666 01a2 01       		.uleb128 0x1
 4667 01a3 12       		.uleb128 0x12
 4668 01a4 06       		.uleb128 0x6
 4669 01a5 40       		.uleb128 0x40
 4670 01a6 18       		.uleb128 0x18
 4671 01a7 9742     		.uleb128 0x2117
 4672 01a9 19       		.uleb128 0x19
 4673 01aa 01       		.uleb128 0x1
 4674 01ab 13       		.uleb128 0x13
 4675 01ac 00       		.byte	0
 4676 01ad 00       		.byte	0
 4677 01ae 1E       		.uleb128 0x1e
 4678 01af 2E       		.uleb128 0x2e
 4679 01b0 00       		.byte	0
 4680 01b1 3F       		.uleb128 0x3f
 4681 01b2 19       		.uleb128 0x19
 4682 01b3 03       		.uleb128 0x3
ARM GAS  C:\Users\mark6\AppData\Local\Temp\ccQgPzp9.s 			page 131


 4683 01b4 0E       		.uleb128 0xe
 4684 01b5 3A       		.uleb128 0x3a
 4685 01b6 0B       		.uleb128 0xb
 4686 01b7 3B       		.uleb128 0x3b
 4687 01b8 05       		.uleb128 0x5
 4688 01b9 27       		.uleb128 0x27
 4689 01ba 19       		.uleb128 0x19
 4690 01bb 49       		.uleb128 0x49
 4691 01bc 13       		.uleb128 0x13
 4692 01bd 11       		.uleb128 0x11
 4693 01be 01       		.uleb128 0x1
 4694 01bf 12       		.uleb128 0x12
 4695 01c0 06       		.uleb128 0x6
 4696 01c1 40       		.uleb128 0x40
 4697 01c2 18       		.uleb128 0x18
 4698 01c3 9742     		.uleb128 0x2117
 4699 01c5 19       		.uleb128 0x19
 4700 01c6 00       		.byte	0
 4701 01c7 00       		.byte	0
 4702 01c8 1F       		.uleb128 0x1f
 4703 01c9 05       		.uleb128 0x5
 4704 01ca 00       		.byte	0
 4705 01cb 03       		.uleb128 0x3
 4706 01cc 0E       		.uleb128 0xe
 4707 01cd 3A       		.uleb128 0x3a
 4708 01ce 0B       		.uleb128 0xb
 4709 01cf 3B       		.uleb128 0x3b
 4710 01d0 05       		.uleb128 0x5
 4711 01d1 49       		.uleb128 0x49
 4712 01d2 13       		.uleb128 0x13
 4713 01d3 02       		.uleb128 0x2
 4714 01d4 18       		.uleb128 0x18
 4715 01d5 00       		.byte	0
 4716 01d6 00       		.byte	0
 4717 01d7 20       		.uleb128 0x20
 4718 01d8 2E       		.uleb128 0x2e
 4719 01d9 01       		.byte	0x1
 4720 01da 3F       		.uleb128 0x3f
 4721 01db 19       		.uleb128 0x19
 4722 01dc 03       		.uleb128 0x3
 4723 01dd 0E       		.uleb128 0xe
 4724 01de 3A       		.uleb128 0x3a
 4725 01df 0B       		.uleb128 0xb
 4726 01e0 3B       		.uleb128 0x3b
 4727 01e1 05       		.uleb128 0x5
 4728 01e2 27       		.uleb128 0x27
 4729 01e3 19       		.uleb128 0x19
 4730 01e4 49       		.uleb128 0x49
 4731 01e5 13       		.uleb128 0x13
 4732 01e6 11       		.uleb128 0x11
 4733 01e7 01       		.uleb128 0x1
 4734 01e8 12       		.uleb128 0x12
 4735 01e9 06       		.uleb128 0x6
 4736 01ea 40       		.uleb128 0x40
 4737 01eb 18       		.uleb128 0x18
 4738 01ec 9742     		.uleb128 0x2117
 4739 01ee 19       		.uleb128 0x19
ARM GAS  C:\Users\mark6\AppData\Local\Temp\ccQgPzp9.s 			page 132


 4740 01ef 01       		.uleb128 0x1
 4741 01f0 13       		.uleb128 0x13
 4742 01f1 00       		.byte	0
 4743 01f2 00       		.byte	0
 4744 01f3 21       		.uleb128 0x21
 4745 01f4 34       		.uleb128 0x34
 4746 01f5 00       		.byte	0
 4747 01f6 03       		.uleb128 0x3
 4748 01f7 0E       		.uleb128 0xe
 4749 01f8 3A       		.uleb128 0x3a
 4750 01f9 0B       		.uleb128 0xb
 4751 01fa 3B       		.uleb128 0x3b
 4752 01fb 0B       		.uleb128 0xb
 4753 01fc 49       		.uleb128 0x49
 4754 01fd 13       		.uleb128 0x13
 4755 01fe 3F       		.uleb128 0x3f
 4756 01ff 19       		.uleb128 0x19
 4757 0200 02       		.uleb128 0x2
 4758 0201 18       		.uleb128 0x18
 4759 0202 00       		.byte	0
 4760 0203 00       		.byte	0
 4761 0204 22       		.uleb128 0x22
 4762 0205 2E       		.uleb128 0x2e
 4763 0206 00       		.byte	0
 4764 0207 3F       		.uleb128 0x3f
 4765 0208 19       		.uleb128 0x19
 4766 0209 03       		.uleb128 0x3
 4767 020a 0E       		.uleb128 0xe
 4768 020b 3A       		.uleb128 0x3a
 4769 020c 0B       		.uleb128 0xb
 4770 020d 3B       		.uleb128 0x3b
 4771 020e 0B       		.uleb128 0xb
 4772 020f 27       		.uleb128 0x27
 4773 0210 19       		.uleb128 0x19
 4774 0211 49       		.uleb128 0x49
 4775 0212 13       		.uleb128 0x13
 4776 0213 3C       		.uleb128 0x3c
 4777 0214 19       		.uleb128 0x19
 4778 0215 00       		.byte	0
 4779 0216 00       		.byte	0
 4780 0217 23       		.uleb128 0x23
 4781 0218 2E       		.uleb128 0x2e
 4782 0219 01       		.byte	0x1
 4783 021a 3F       		.uleb128 0x3f
 4784 021b 19       		.uleb128 0x19
 4785 021c 03       		.uleb128 0x3
 4786 021d 0E       		.uleb128 0xe
 4787 021e 3A       		.uleb128 0x3a
 4788 021f 0B       		.uleb128 0xb
 4789 0220 3B       		.uleb128 0x3b
 4790 0221 0B       		.uleb128 0xb
 4791 0222 27       		.uleb128 0x27
 4792 0223 19       		.uleb128 0x19
 4793 0224 3C       		.uleb128 0x3c
 4794 0225 19       		.uleb128 0x19
 4795 0226 01       		.uleb128 0x1
 4796 0227 13       		.uleb128 0x13
ARM GAS  C:\Users\mark6\AppData\Local\Temp\ccQgPzp9.s 			page 133


 4797 0228 00       		.byte	0
 4798 0229 00       		.byte	0
 4799 022a 24       		.uleb128 0x24
 4800 022b 05       		.uleb128 0x5
 4801 022c 00       		.byte	0
 4802 022d 49       		.uleb128 0x49
 4803 022e 13       		.uleb128 0x13
 4804 022f 00       		.byte	0
 4805 0230 00       		.byte	0
 4806 0231 25       		.uleb128 0x25
 4807 0232 2E       		.uleb128 0x2e
 4808 0233 01       		.byte	0x1
 4809 0234 3F       		.uleb128 0x3f
 4810 0235 19       		.uleb128 0x19
 4811 0236 03       		.uleb128 0x3
 4812 0237 0E       		.uleb128 0xe
 4813 0238 3A       		.uleb128 0x3a
 4814 0239 0B       		.uleb128 0xb
 4815 023a 3B       		.uleb128 0x3b
 4816 023b 0B       		.uleb128 0xb
 4817 023c 27       		.uleb128 0x27
 4818 023d 19       		.uleb128 0x19
 4819 023e 49       		.uleb128 0x49
 4820 023f 13       		.uleb128 0x13
 4821 0240 3C       		.uleb128 0x3c
 4822 0241 19       		.uleb128 0x19
 4823 0242 01       		.uleb128 0x1
 4824 0243 13       		.uleb128 0x13
 4825 0244 00       		.byte	0
 4826 0245 00       		.byte	0
 4827 0246 26       		.uleb128 0x26
 4828 0247 2E       		.uleb128 0x2e
 4829 0248 01       		.byte	0x1
 4830 0249 3F       		.uleb128 0x3f
 4831 024a 19       		.uleb128 0x19
 4832 024b 03       		.uleb128 0x3
 4833 024c 0E       		.uleb128 0xe
 4834 024d 3A       		.uleb128 0x3a
 4835 024e 0B       		.uleb128 0xb
 4836 024f 3B       		.uleb128 0x3b
 4837 0250 0B       		.uleb128 0xb
 4838 0251 27       		.uleb128 0x27
 4839 0252 19       		.uleb128 0x19
 4840 0253 3C       		.uleb128 0x3c
 4841 0254 19       		.uleb128 0x19
 4842 0255 00       		.byte	0
 4843 0256 00       		.byte	0
 4844 0257 00       		.byte	0
 4845              		.section	.debug_loc,"",%progbits
 4846              	.Ldebug_loc0:
 4847              	.LLST0:
 4848 0000 00000000 		.4byte	.LVL0
 4849 0004 28000000 		.4byte	.LVL5
 4850 0008 0100     		.2byte	0x1
 4851 000a 50       		.byte	0x50
 4852 000b 28000000 		.4byte	.LVL5
 4853 000f 54000000 		.4byte	.LFE40
ARM GAS  C:\Users\mark6\AppData\Local\Temp\ccQgPzp9.s 			page 134


 4854 0013 0400     		.2byte	0x4
 4855 0015 F3       		.byte	0xf3
 4856 0016 01       		.uleb128 0x1
 4857 0017 50       		.byte	0x50
 4858 0018 9F       		.byte	0x9f
 4859 0019 00000000 		.4byte	0
 4860 001d 00000000 		.4byte	0
 4861              	.LLST1:
 4862 0021 00000000 		.4byte	.LVL0
 4863 0025 22000000 		.4byte	.LVL4
 4864 0029 0100     		.2byte	0x1
 4865 002b 51       		.byte	0x51
 4866 002c 22000000 		.4byte	.LVL4
 4867 0030 54000000 		.4byte	.LFE40
 4868 0034 0400     		.2byte	0x4
 4869 0036 F3       		.byte	0xf3
 4870 0037 01       		.uleb128 0x1
 4871 0038 51       		.byte	0x51
 4872 0039 9F       		.byte	0x9f
 4873 003a 00000000 		.4byte	0
 4874 003e 00000000 		.4byte	0
 4875              	.LLST2:
 4876 0042 00000000 		.4byte	.LVL0
 4877 0046 08000000 		.4byte	.LVL1
 4878 004a 0100     		.2byte	0x1
 4879 004c 52       		.byte	0x52
 4880 004d 08000000 		.4byte	.LVL1
 4881 0051 0A000000 		.4byte	.LVL2
 4882 0055 0400     		.2byte	0x4
 4883 0057 F3       		.byte	0xf3
 4884 0058 01       		.uleb128 0x1
 4885 0059 52       		.byte	0x52
 4886 005a 9F       		.byte	0x9f
 4887 005b 0A000000 		.4byte	.LVL2
 4888 005f 20000000 		.4byte	.LVL3
 4889 0063 0100     		.2byte	0x1
 4890 0065 52       		.byte	0x52
 4891 0066 00000000 		.4byte	0
 4892 006a 00000000 		.4byte	0
 4893              	.LLST3:
 4894 006e 02000000 		.4byte	.LVL6
 4895 0072 1A000000 		.4byte	.LVL9
 4896 0076 0200     		.2byte	0x2
 4897 0078 31       		.byte	0x31
 4898 0079 9F       		.byte	0x9f
 4899 007a 1A000000 		.4byte	.LVL9
 4900 007e 28000000 		.4byte	.LVL15
 4901 0082 0100     		.2byte	0x1
 4902 0084 52       		.byte	0x52
 4903 0085 2A000000 		.4byte	.LVL16
 4904 0089 3E000000 		.4byte	.LVL20
 4905 008d 0100     		.2byte	0x1
 4906 008f 52       		.byte	0x52
 4907 0090 40000000 		.4byte	.LVL21
 4908 0094 4C000000 		.4byte	.LVL22
 4909 0098 0100     		.2byte	0x1
 4910 009a 52       		.byte	0x52
ARM GAS  C:\Users\mark6\AppData\Local\Temp\ccQgPzp9.s 			page 135


 4911 009b 4E000000 		.4byte	.LVL23
 4912 009f 64000000 		.4byte	.LVL27
 4913 00a3 0200     		.2byte	0x2
 4914 00a5 31       		.byte	0x31
 4915 00a6 9F       		.byte	0x9f
 4916 00a7 64000000 		.4byte	.LVL27
 4917 00ab 72000000 		.4byte	.LVL33
 4918 00af 0100     		.2byte	0x1
 4919 00b1 52       		.byte	0x52
 4920 00b2 74000000 		.4byte	.LVL34
 4921 00b6 88000000 		.4byte	.LVL38
 4922 00ba 0100     		.2byte	0x1
 4923 00bc 52       		.byte	0x52
 4924 00bd 8A000000 		.4byte	.LVL39
 4925 00c1 96000000 		.4byte	.LVL40
 4926 00c5 0100     		.2byte	0x1
 4927 00c7 52       		.byte	0x52
 4928 00c8 00000000 		.4byte	0
 4929 00cc 00000000 		.4byte	0
 4930              	.LLST4:
 4931 00d0 02000000 		.4byte	.LVL6
 4932 00d4 1A000000 		.4byte	.LVL9
 4933 00d8 0200     		.2byte	0x2
 4934 00da 31       		.byte	0x31
 4935 00db 9F       		.byte	0x9f
 4936 00dc 1A000000 		.4byte	.LVL9
 4937 00e0 1C000000 		.4byte	.LVL10
 4938 00e4 0100     		.2byte	0x1
 4939 00e6 53       		.byte	0x53
 4940 00e7 1E000000 		.4byte	.LVL11
 4941 00eb 3A000000 		.4byte	.LVL18
 4942 00ef 0100     		.2byte	0x1
 4943 00f1 53       		.byte	0x53
 4944 00f2 3C000000 		.4byte	.LVL19
 4945 00f6 4E000000 		.4byte	.LVL23
 4946 00fa 0100     		.2byte	0x1
 4947 00fc 53       		.byte	0x53
 4948 00fd 4E000000 		.4byte	.LVL23
 4949 0101 64000000 		.4byte	.LVL27
 4950 0105 0200     		.2byte	0x2
 4951 0107 31       		.byte	0x31
 4952 0108 9F       		.byte	0x9f
 4953 0109 64000000 		.4byte	.LVL27
 4954 010d 66000000 		.4byte	.LVL28
 4955 0111 0100     		.2byte	0x1
 4956 0113 53       		.byte	0x53
 4957 0114 68000000 		.4byte	.LVL29
 4958 0118 84000000 		.4byte	.LVL36
 4959 011c 0100     		.2byte	0x1
 4960 011e 53       		.byte	0x53
 4961 011f 86000000 		.4byte	.LVL37
 4962 0123 9A000000 		.4byte	.LVL41
 4963 0127 0100     		.2byte	0x1
 4964 0129 53       		.byte	0x53
 4965 012a 9A000000 		.4byte	.LVL41
 4966 012e A0000000 		.4byte	.LFE4
 4967 0132 0500     		.2byte	0x5
ARM GAS  C:\Users\mark6\AppData\Local\Temp\ccQgPzp9.s 			page 136


 4968 0134 03       		.byte	0x3
 4969 0135 03000000 		.4byte	RTC_dstTimeDateStop+3
 4970 0139 00000000 		.4byte	0
 4971 013d 00000000 		.4byte	0
 4972              	.LLST5:
 4973 0141 14000000 		.4byte	.LVL8
 4974 0145 20000000 		.4byte	.LVL12
 4975 0149 0100     		.2byte	0x1
 4976 014b 50       		.byte	0x50
 4977 014c 22000000 		.4byte	.LVL13
 4978 0150 26000000 		.4byte	.LVL14
 4979 0154 0100     		.2byte	0x1
 4980 0156 50       		.byte	0x50
 4981 0157 26000000 		.4byte	.LVL14
 4982 015b 2C000000 		.4byte	.LVL17
 4983 015f 0200     		.2byte	0x2
 4984 0161 31       		.byte	0x31
 4985 0162 9F       		.byte	0x9f
 4986 0163 2C000000 		.4byte	.LVL17
 4987 0167 54000000 		.4byte	.LVL24
 4988 016b 0100     		.2byte	0x1
 4989 016d 50       		.byte	0x50
 4990 016e 5E000000 		.4byte	.LVL26
 4991 0172 6A000000 		.4byte	.LVL30
 4992 0176 0100     		.2byte	0x1
 4993 0178 50       		.byte	0x50
 4994 0179 6C000000 		.4byte	.LVL31
 4995 017d 70000000 		.4byte	.LVL32
 4996 0181 0100     		.2byte	0x1
 4997 0183 50       		.byte	0x50
 4998 0184 70000000 		.4byte	.LVL32
 4999 0188 76000000 		.4byte	.LVL35
 5000 018c 0200     		.2byte	0x2
 5001 018e 31       		.byte	0x31
 5002 018f 9F       		.byte	0x9f
 5003 0190 76000000 		.4byte	.LVL35
 5004 0194 A0000000 		.4byte	.LFE4
 5005 0198 0100     		.2byte	0x1
 5006 019a 50       		.byte	0x50
 5007 019b 00000000 		.4byte	0
 5008 019f 00000000 		.4byte	0
 5009              	.LLST6:
 5010 01a3 64000000 		.4byte	.LVL42
 5011 01a7 76000000 		.4byte	.LVL43
 5012 01ab 0100     		.2byte	0x1
 5013 01ad 53       		.byte	0x53
 5014 01ae 78000000 		.4byte	.LVL44
 5015 01b2 86000000 		.4byte	.LVL45
 5016 01b6 0100     		.2byte	0x1
 5017 01b8 53       		.byte	0x53
 5018 01b9 00000000 		.4byte	0
 5019 01bd 00000000 		.4byte	0
 5020              	.LLST7:
 5021 01c1 AA060000 		.4byte	.LVL48
 5022 01c5 B2060000 		.4byte	.LVL49
 5023 01c9 0100     		.2byte	0x1
 5024 01cb 53       		.byte	0x53
ARM GAS  C:\Users\mark6\AppData\Local\Temp\ccQgPzp9.s 			page 137


 5025 01cc 00000000 		.4byte	0
 5026 01d0 00000000 		.4byte	0
 5027              	.LLST8:
 5028 01d4 0C000000 		.4byte	.LVL50
 5029 01d8 19000000 		.4byte	.LVL51-1
 5030 01dc 0100     		.2byte	0x1
 5031 01de 50       		.byte	0x50
 5032 01df 00000000 		.4byte	0
 5033 01e3 00000000 		.4byte	0
 5034              	.LLST9:
 5035 01e7 06000000 		.4byte	.LVL55
 5036 01eb 13000000 		.4byte	.LVL56-1
 5037 01ef 0100     		.2byte	0x1
 5038 01f1 50       		.byte	0x50
 5039 01f2 00000000 		.4byte	0
 5040 01f6 00000000 		.4byte	0
 5041              	.LLST10:
 5042 01fa 00000000 		.4byte	.LVL59
 5043 01fe 07000000 		.4byte	.LVL60-1
 5044 0202 0100     		.2byte	0x1
 5045 0204 50       		.byte	0x50
 5046 0205 07000000 		.4byte	.LVL60-1
 5047 0209 34000000 		.4byte	.LVL62
 5048 020d 0100     		.2byte	0x1
 5049 020f 54       		.byte	0x54
 5050 0210 34000000 		.4byte	.LVL62
 5051 0214 38000000 		.4byte	.LFE8
 5052 0218 0400     		.2byte	0x4
 5053 021a F3       		.byte	0xf3
 5054 021b 01       		.uleb128 0x1
 5055 021c 50       		.byte	0x50
 5056 021d 9F       		.byte	0x9f
 5057 021e 00000000 		.4byte	0
 5058 0222 00000000 		.4byte	0
 5059              	.LLST11:
 5060 0226 00000000 		.4byte	.LVL80
 5061 022a 0F000000 		.4byte	.LVL81-1
 5062 022e 0100     		.2byte	0x1
 5063 0230 50       		.byte	0x50
 5064 0231 0F000000 		.4byte	.LVL81-1
 5065 0235 18000000 		.4byte	.LFE42
 5066 0239 0400     		.2byte	0x4
 5067 023b F3       		.byte	0xf3
 5068 023c 01       		.uleb128 0x1
 5069 023d 50       		.byte	0x50
 5070 023e 9F       		.byte	0x9f
 5071 023f 00000000 		.4byte	0
 5072 0243 00000000 		.4byte	0
 5073              	.LLST12:
 5074 0247 00000000 		.4byte	.LVL85
 5075 024b 13000000 		.4byte	.LVL86-1
 5076 024f 0100     		.2byte	0x1
 5077 0251 50       		.byte	0x50
 5078 0252 13000000 		.4byte	.LVL86-1
 5079 0256 20000000 		.4byte	.LFE46
 5080 025a 0400     		.2byte	0x4
 5081 025c F3       		.byte	0xf3
ARM GAS  C:\Users\mark6\AppData\Local\Temp\ccQgPzp9.s 			page 138


 5082 025d 01       		.uleb128 0x1
 5083 025e 50       		.byte	0x50
 5084 025f 9F       		.byte	0x9f
 5085 0260 00000000 		.4byte	0
 5086 0264 00000000 		.4byte	0
 5087              	.LLST13:
 5088 0268 00000000 		.4byte	.LVL87
 5089 026c 13000000 		.4byte	.LVL88-1
 5090 0270 0100     		.2byte	0x1
 5091 0272 50       		.byte	0x50
 5092 0273 13000000 		.4byte	.LVL88-1
 5093 0277 20000000 		.4byte	.LFE47
 5094 027b 0400     		.2byte	0x4
 5095 027d F3       		.byte	0xf3
 5096 027e 01       		.uleb128 0x1
 5097 027f 50       		.byte	0x50
 5098 0280 9F       		.byte	0x9f
 5099 0281 00000000 		.4byte	0
 5100 0285 00000000 		.4byte	0
 5101              	.LLST14:
 5102 0289 00000000 		.4byte	.LVL92
 5103 028d 13000000 		.4byte	.LVL93-1
 5104 0291 0100     		.2byte	0x1
 5105 0293 50       		.byte	0x50
 5106 0294 13000000 		.4byte	.LVL93-1
 5107 0298 20000000 		.4byte	.LFE51
 5108 029c 0400     		.2byte	0x4
 5109 029e F3       		.byte	0xf3
 5110 029f 01       		.uleb128 0x1
 5111 02a0 50       		.byte	0x50
 5112 02a1 9F       		.byte	0x9f
 5113 02a2 00000000 		.4byte	0
 5114 02a6 00000000 		.4byte	0
 5115              	.LLST15:
 5116 02aa 00000000 		.4byte	.LVL94
 5117 02ae 13000000 		.4byte	.LVL95-1
 5118 02b2 0100     		.2byte	0x1
 5119 02b4 50       		.byte	0x50
 5120 02b5 13000000 		.4byte	.LVL95-1
 5121 02b9 20000000 		.4byte	.LFE52
 5122 02bd 0400     		.2byte	0x4
 5123 02bf F3       		.byte	0xf3
 5124 02c0 01       		.uleb128 0x1
 5125 02c1 50       		.byte	0x50
 5126 02c2 9F       		.byte	0x9f
 5127 02c3 00000000 		.4byte	0
 5128 02c7 00000000 		.4byte	0
 5129              		.section	.debug_aranges,"",%progbits
 5130 0000 C4010000 		.4byte	0x1c4
 5131 0004 0200     		.2byte	0x2
 5132 0006 00000000 		.4byte	.Ldebug_info0
 5133 000a 04       		.byte	0x4
 5134 000b 00       		.byte	0
 5135 000c 0000     		.2byte	0
 5136 000e 0000     		.2byte	0
 5137 0010 00000000 		.4byte	.LFB40
 5138 0014 54000000 		.4byte	.LFE40-.LFB40
ARM GAS  C:\Users\mark6\AppData\Local\Temp\ccQgPzp9.s 			page 139


 5139 0018 00000000 		.4byte	.LFB4
 5140 001c A0000000 		.4byte	.LFE4-.LFB4
 5141 0020 00000000 		.4byte	.LFB41
 5142 0024 D4060000 		.4byte	.LFE41-.LFB41
 5143 0028 00000000 		.4byte	.LFB1
 5144 002c 24000000 		.4byte	.LFE1-.LFB1
 5145 0030 00000000 		.4byte	.LFB2
 5146 0034 0C000000 		.4byte	.LFE2-.LFB2
 5147 0038 00000000 		.4byte	.LFB3
 5148 003c 0C000000 		.4byte	.LFE3-.LFB3
 5149 0040 00000000 		.4byte	.LFB5
 5150 0044 28000000 		.4byte	.LFE5-.LFB5
 5151 0048 00000000 		.4byte	.LFB6
 5152 004c 24000000 		.4byte	.LFE6-.LFB6
 5153 0050 00000000 		.4byte	.LFB0
 5154 0054 1C000000 		.4byte	.LFE0-.LFB0
 5155 0058 00000000 		.4byte	.LFB7
 5156 005c 08000000 		.4byte	.LFE7-.LFB7
 5157 0060 00000000 		.4byte	.LFB8
 5158 0064 38000000 		.4byte	.LFE8-.LFB8
 5159 0068 00000000 		.4byte	.LFB9
 5160 006c 0C000000 		.4byte	.LFE9-.LFB9
 5161 0070 00000000 		.4byte	.LFB10
 5162 0074 0C000000 		.4byte	.LFE10-.LFB10
 5163 0078 00000000 		.4byte	.LFB11
 5164 007c 0C000000 		.4byte	.LFE11-.LFB11
 5165 0080 00000000 		.4byte	.LFB12
 5166 0084 0C000000 		.4byte	.LFE12-.LFB12
 5167 0088 00000000 		.4byte	.LFB13
 5168 008c 0C000000 		.4byte	.LFE13-.LFB13
 5169 0090 00000000 		.4byte	.LFB14
 5170 0094 0C000000 		.4byte	.LFE14-.LFB14
 5171 0098 00000000 		.4byte	.LFB15
 5172 009c 30000000 		.4byte	.LFE15-.LFB15
 5173 00a0 00000000 		.4byte	.LFB16
 5174 00a4 30000000 		.4byte	.LFE16-.LFB16
 5175 00a8 00000000 		.4byte	.LFB17
 5176 00ac 30000000 		.4byte	.LFE17-.LFB17
 5177 00b0 00000000 		.4byte	.LFB18
 5178 00b4 34000000 		.4byte	.LFE18-.LFB18
 5179 00b8 00000000 		.4byte	.LFB19
 5180 00bc 34000000 		.4byte	.LFE19-.LFB19
 5181 00c0 00000000 		.4byte	.LFB20
 5182 00c4 30000000 		.4byte	.LFE20-.LFB20
 5183 00c8 00000000 		.4byte	.LFB21
 5184 00cc 30000000 		.4byte	.LFE21-.LFB21
 5185 00d0 00000000 		.4byte	.LFB22
 5186 00d4 30000000 		.4byte	.LFE22-.LFB22
 5187 00d8 00000000 		.4byte	.LFB23
 5188 00dc 0C000000 		.4byte	.LFE23-.LFB23
 5189 00e0 00000000 		.4byte	.LFB24
 5190 00e4 0C000000 		.4byte	.LFE24-.LFB24
 5191 00e8 00000000 		.4byte	.LFB25
 5192 00ec 0C000000 		.4byte	.LFE25-.LFB25
 5193 00f0 00000000 		.4byte	.LFB26
 5194 00f4 0C000000 		.4byte	.LFE26-.LFB26
 5195 00f8 00000000 		.4byte	.LFB27
ARM GAS  C:\Users\mark6\AppData\Local\Temp\ccQgPzp9.s 			page 140


 5196 00fc 0C000000 		.4byte	.LFE27-.LFB27
 5197 0100 00000000 		.4byte	.LFB28
 5198 0104 0C000000 		.4byte	.LFE28-.LFB28
 5199 0108 00000000 		.4byte	.LFB29
 5200 010c 0C000000 		.4byte	.LFE29-.LFB29
 5201 0110 00000000 		.4byte	.LFB30
 5202 0114 0C000000 		.4byte	.LFE30-.LFB30
 5203 0118 00000000 		.4byte	.LFB31
 5204 011c 0C000000 		.4byte	.LFE31-.LFB31
 5205 0120 00000000 		.4byte	.LFB32
 5206 0124 0C000000 		.4byte	.LFE32-.LFB32
 5207 0128 00000000 		.4byte	.LFB33
 5208 012c 0C000000 		.4byte	.LFE33-.LFB33
 5209 0130 00000000 		.4byte	.LFB34
 5210 0134 0C000000 		.4byte	.LFE34-.LFB34
 5211 0138 00000000 		.4byte	.LFB35
 5212 013c 0C000000 		.4byte	.LFE35-.LFB35
 5213 0140 00000000 		.4byte	.LFB36
 5214 0144 0C000000 		.4byte	.LFE36-.LFB36
 5215 0148 00000000 		.4byte	.LFB37
 5216 014c 0C000000 		.4byte	.LFE37-.LFB37
 5217 0150 00000000 		.4byte	.LFB38
 5218 0154 0C000000 		.4byte	.LFE38-.LFB38
 5219 0158 00000000 		.4byte	.LFB39
 5220 015c 14000000 		.4byte	.LFE39-.LFB39
 5221 0160 00000000 		.4byte	.LFB42
 5222 0164 18000000 		.4byte	.LFE42-.LFB42
 5223 0168 00000000 		.4byte	.LFB43
 5224 016c 0C000000 		.4byte	.LFE43-.LFB43
 5225 0170 00000000 		.4byte	.LFB44
 5226 0174 0C000000 		.4byte	.LFE44-.LFB44
 5227 0178 00000000 		.4byte	.LFB45
 5228 017c 0C000000 		.4byte	.LFE45-.LFB45
 5229 0180 00000000 		.4byte	.LFB46
 5230 0184 20000000 		.4byte	.LFE46-.LFB46
 5231 0188 00000000 		.4byte	.LFB47
 5232 018c 20000000 		.4byte	.LFE47-.LFB47
 5233 0190 00000000 		.4byte	.LFB48
 5234 0194 0C000000 		.4byte	.LFE48-.LFB48
 5235 0198 00000000 		.4byte	.LFB49
 5236 019c 0C000000 		.4byte	.LFE49-.LFB49
 5237 01a0 00000000 		.4byte	.LFB50
 5238 01a4 0C000000 		.4byte	.LFE50-.LFB50
 5239 01a8 00000000 		.4byte	.LFB51
 5240 01ac 20000000 		.4byte	.LFE51-.LFB51
 5241 01b0 00000000 		.4byte	.LFB52
 5242 01b4 20000000 		.4byte	.LFE52-.LFB52
 5243 01b8 00000000 		.4byte	.LFB53
 5244 01bc 0C000000 		.4byte	.LFE53-.LFB53
 5245 01c0 00000000 		.4byte	0
 5246 01c4 00000000 		.4byte	0
 5247              		.section	.debug_ranges,"",%progbits
 5248              	.Ldebug_ranges0:
 5249 0000 00000000 		.4byte	.LFB40
 5250 0004 54000000 		.4byte	.LFE40
 5251 0008 00000000 		.4byte	.LFB4
 5252 000c A0000000 		.4byte	.LFE4
ARM GAS  C:\Users\mark6\AppData\Local\Temp\ccQgPzp9.s 			page 141


 5253 0010 00000000 		.4byte	.LFB41
 5254 0014 D4060000 		.4byte	.LFE41
 5255 0018 00000000 		.4byte	.LFB1
 5256 001c 24000000 		.4byte	.LFE1
 5257 0020 00000000 		.4byte	.LFB2
 5258 0024 0C000000 		.4byte	.LFE2
 5259 0028 00000000 		.4byte	.LFB3
 5260 002c 0C000000 		.4byte	.LFE3
 5261 0030 00000000 		.4byte	.LFB5
 5262 0034 28000000 		.4byte	.LFE5
 5263 0038 00000000 		.4byte	.LFB6
 5264 003c 24000000 		.4byte	.LFE6
 5265 0040 00000000 		.4byte	.LFB0
 5266 0044 1C000000 		.4byte	.LFE0
 5267 0048 00000000 		.4byte	.LFB7
 5268 004c 08000000 		.4byte	.LFE7
 5269 0050 00000000 		.4byte	.LFB8
 5270 0054 38000000 		.4byte	.LFE8
 5271 0058 00000000 		.4byte	.LFB9
 5272 005c 0C000000 		.4byte	.LFE9
 5273 0060 00000000 		.4byte	.LFB10
 5274 0064 0C000000 		.4byte	.LFE10
 5275 0068 00000000 		.4byte	.LFB11
 5276 006c 0C000000 		.4byte	.LFE11
 5277 0070 00000000 		.4byte	.LFB12
 5278 0074 0C000000 		.4byte	.LFE12
 5279 0078 00000000 		.4byte	.LFB13
 5280 007c 0C000000 		.4byte	.LFE13
 5281 0080 00000000 		.4byte	.LFB14
 5282 0084 0C000000 		.4byte	.LFE14
 5283 0088 00000000 		.4byte	.LFB15
 5284 008c 30000000 		.4byte	.LFE15
 5285 0090 00000000 		.4byte	.LFB16
 5286 0094 30000000 		.4byte	.LFE16
 5287 0098 00000000 		.4byte	.LFB17
 5288 009c 30000000 		.4byte	.LFE17
 5289 00a0 00000000 		.4byte	.LFB18
 5290 00a4 34000000 		.4byte	.LFE18
 5291 00a8 00000000 		.4byte	.LFB19
 5292 00ac 34000000 		.4byte	.LFE19
 5293 00b0 00000000 		.4byte	.LFB20
 5294 00b4 30000000 		.4byte	.LFE20
 5295 00b8 00000000 		.4byte	.LFB21
 5296 00bc 30000000 		.4byte	.LFE21
 5297 00c0 00000000 		.4byte	.LFB22
 5298 00c4 30000000 		.4byte	.LFE22
 5299 00c8 00000000 		.4byte	.LFB23
 5300 00cc 0C000000 		.4byte	.LFE23
 5301 00d0 00000000 		.4byte	.LFB24
 5302 00d4 0C000000 		.4byte	.LFE24
 5303 00d8 00000000 		.4byte	.LFB25
 5304 00dc 0C000000 		.4byte	.LFE25
 5305 00e0 00000000 		.4byte	.LFB26
 5306 00e4 0C000000 		.4byte	.LFE26
 5307 00e8 00000000 		.4byte	.LFB27
 5308 00ec 0C000000 		.4byte	.LFE27
 5309 00f0 00000000 		.4byte	.LFB28
ARM GAS  C:\Users\mark6\AppData\Local\Temp\ccQgPzp9.s 			page 142


 5310 00f4 0C000000 		.4byte	.LFE28
 5311 00f8 00000000 		.4byte	.LFB29
 5312 00fc 0C000000 		.4byte	.LFE29
 5313 0100 00000000 		.4byte	.LFB30
 5314 0104 0C000000 		.4byte	.LFE30
 5315 0108 00000000 		.4byte	.LFB31
 5316 010c 0C000000 		.4byte	.LFE31
 5317 0110 00000000 		.4byte	.LFB32
 5318 0114 0C000000 		.4byte	.LFE32
 5319 0118 00000000 		.4byte	.LFB33
 5320 011c 0C000000 		.4byte	.LFE33
 5321 0120 00000000 		.4byte	.LFB34
 5322 0124 0C000000 		.4byte	.LFE34
 5323 0128 00000000 		.4byte	.LFB35
 5324 012c 0C000000 		.4byte	.LFE35
 5325 0130 00000000 		.4byte	.LFB36
 5326 0134 0C000000 		.4byte	.LFE36
 5327 0138 00000000 		.4byte	.LFB37
 5328 013c 0C000000 		.4byte	.LFE37
 5329 0140 00000000 		.4byte	.LFB38
 5330 0144 0C000000 		.4byte	.LFE38
 5331 0148 00000000 		.4byte	.LFB39
 5332 014c 14000000 		.4byte	.LFE39
 5333 0150 00000000 		.4byte	.LFB42
 5334 0154 18000000 		.4byte	.LFE42
 5335 0158 00000000 		.4byte	.LFB43
 5336 015c 0C000000 		.4byte	.LFE43
 5337 0160 00000000 		.4byte	.LFB44
 5338 0164 0C000000 		.4byte	.LFE44
 5339 0168 00000000 		.4byte	.LFB45
 5340 016c 0C000000 		.4byte	.LFE45
 5341 0170 00000000 		.4byte	.LFB46
 5342 0174 20000000 		.4byte	.LFE46
 5343 0178 00000000 		.4byte	.LFB47
 5344 017c 20000000 		.4byte	.LFE47
 5345 0180 00000000 		.4byte	.LFB48
 5346 0184 0C000000 		.4byte	.LFE48
 5347 0188 00000000 		.4byte	.LFB49
 5348 018c 0C000000 		.4byte	.LFE49
 5349 0190 00000000 		.4byte	.LFB50
 5350 0194 0C000000 		.4byte	.LFE50
 5351 0198 00000000 		.4byte	.LFB51
 5352 019c 20000000 		.4byte	.LFE51
 5353 01a0 00000000 		.4byte	.LFB52
 5354 01a4 20000000 		.4byte	.LFE52
 5355 01a8 00000000 		.4byte	.LFB53
 5356 01ac 0C000000 		.4byte	.LFE53
 5357 01b0 00000000 		.4byte	0
 5358 01b4 00000000 		.4byte	0
 5359              		.section	.debug_line,"",%progbits
 5360              	.Ldebug_line0:
 5361 0000 4D050000 		.section	.debug_str,"MS",%progbits,1
 5361      02005600 
 5361      00000201 
 5361      FB0E0D00 
 5361      01010101 
 5362              	.LASF10:
ARM GAS  C:\Users\mark6\AppData\Local\Temp\ccQgPzp9.s 			page 143


 5363 0000 75696E74 		.ascii	"uint16\000"
 5363      313600
 5364              	.LASF87:
 5365 0007 5254435F 		.ascii	"RTC_WriteDSTStartMonth\000"
 5365      57726974 
 5365      65445354 
 5365      53746172 
 5365      744D6F6E 
 5366              	.LASF92:
 5367 001e 5254435F 		.ascii	"RTC_WriteDSTStopMonth\000"
 5367      57726974 
 5367      65445354 
 5367      53746F70 
 5367      4D6F6E74 
 5368              	.LASF100:
 5369 0034 5254435F 		.ascii	"RTC_dstModeType\000"
 5369      6473744D 
 5369      6F646554 
 5369      79706500 
 5370              	.LASF61:
 5371 0044 5254435F 		.ascii	"RTC_WriteAlarmDayOfWeek\000"
 5371      57726974 
 5371      65416C61 
 5371      726D4461 
 5371      794F6657 
 5372              	.LASF86:
 5373 005c 5254435F 		.ascii	"RTC_WriteDSTStartDayOfMonth\000"
 5373      57726974 
 5373      65445354 
 5373      53746172 
 5373      74446179 
 5374              	.LASF39:
 5375 0078 5254435F 		.ascii	"RTC_DisableInt\000"
 5375      44697361 
 5375      626C6549 
 5375      6E7400
 5376              	.LASF41:
 5377 0087 5254435F 		.ascii	"RTC_Init\000"
 5377      496E6974 
 5377      00
 5378              	.LASF112:
 5379 0090 2E5C4765 		.ascii	".\\Generated_Source\\PSoC5\\RTC.c\000"
 5379      6E657261 
 5379      7465645F 
 5379      536F7572 
 5379      63655C50 
 5380              	.LASF38:
 5381 00af 5254435F 		.ascii	"RTC_EnableInt\000"
 5381      456E6162 
 5381      6C65496E 
 5381      7400
 5382              	.LASF7:
 5383 00bd 6C6F6E67 		.ascii	"long long unsigned int\000"
 5383      206C6F6E 
 5383      6720756E 
 5383      7369676E 
 5383      65642069 
ARM GAS  C:\Users\mark6\AppData\Local\Temp\ccQgPzp9.s 			page 144


 5384              	.LASF107:
 5385 00d4 5254435F 		.ascii	"RTC_alarmCurStatus\000"
 5385      616C6172 
 5385      6D437572 
 5385      53746174 
 5385      757300
 5386              	.LASF18:
 5387 00e7 486F7572 		.ascii	"Hour\000"
 5387      00
 5388              	.LASF94:
 5389 00ec 5254435F 		.ascii	"RTC_WriteDSTStopWeek\000"
 5389      57726974 
 5389      65445354 
 5389      53746F70 
 5389      5765656B 
 5390              	.LASF102:
 5391 0101 5254435F 		.ascii	"RTC_dstTimeDateStop\000"
 5391      64737454 
 5391      696D6544 
 5391      61746553 
 5391      746F7000 
 5392              	.LASF55:
 5393 0115 5254435F 		.ascii	"RTC_WriteAlarmSecond\000"
 5393      57726974 
 5393      65416C61 
 5393      726D5365 
 5393      636F6E64 
 5394              	.LASF93:
 5395 012a 5254435F 		.ascii	"RTC_WriteDSTStopDayOfWeek\000"
 5395      57726974 
 5395      65445354 
 5395      53746F70 
 5395      4461794F 
 5396              	.LASF95:
 5397 0144 5254435F 		.ascii	"RTC_WriteDSTOffset\000"
 5397      57726974 
 5397      65445354 
 5397      4F666673 
 5397      657400
 5398              	.LASF25:
 5399 0157 5765656B 		.ascii	"Week\000"
 5399      00
 5400              	.LASF58:
 5401 015c 5254435F 		.ascii	"RTC_WriteAlarmDayOfMonth\000"
 5401      57726974 
 5401      65416C61 
 5401      726D4461 
 5401      794F664D 
 5402              	.LASF57:
 5403 0175 5254435F 		.ascii	"RTC_WriteAlarmHour\000"
 5403      57726974 
 5403      65416C61 
 5403      726D486F 
 5403      757200
 5404              	.LASF6:
 5405 0188 6C6F6E67 		.ascii	"long long int\000"
 5405      206C6F6E 
ARM GAS  C:\Users\mark6\AppData\Local\Temp\ccQgPzp9.s 			page 145


 5405      6720696E 
 5405      7400
 5406              	.LASF0:
 5407 0196 7369676E 		.ascii	"signed char\000"
 5407      65642063 
 5407      68617200 
 5408              	.LASF104:
 5409 01a2 5254435F 		.ascii	"RTC_dstStartStatus\000"
 5409      64737453 
 5409      74617274 
 5409      53746174 
 5409      757300
 5410              	.LASF75:
 5411 01b5 5254435F 		.ascii	"RTC_ReadAlarmMonth\000"
 5411      52656164 
 5411      416C6172 
 5411      6D4D6F6E 
 5411      746800
 5412              	.LASF37:
 5413 01c8 696E7465 		.ascii	"interruptState\000"
 5413      72727570 
 5413      74537461 
 5413      746500
 5414              	.LASF106:
 5415 01d7 5254435F 		.ascii	"RTC_alarmCfgMask\000"
 5415      616C6172 
 5415      6D436667 
 5415      4D61736B 
 5415      00
 5416              	.LASF117:
 5417 01e8 43794578 		.ascii	"CyExitCriticalSection\000"
 5417      69744372 
 5417      69746963 
 5417      616C5365 
 5417      6374696F 
 5418              	.LASF73:
 5419 01fe 5254435F 		.ascii	"RTC_ReadAlarmHour\000"
 5419      52656164 
 5419      416C6172 
 5419      6D486F75 
 5419      7200
 5420              	.LASF69:
 5421 0210 5254435F 		.ascii	"RTC_ReadMonth\000"
 5421      52656164 
 5421      4D6F6E74 
 5421      6800
 5422              	.LASF43:
 5423 021e 5254435F 		.ascii	"RTC_Start\000"
 5423      53746172 
 5423      7400
 5424              	.LASF97:
 5425 0228 5254435F 		.ascii	"RTC_initVar\000"
 5425      696E6974 
 5425      56617200 
 5426              	.LASF30:
 5427 0234 79656172 		.ascii	"year\000"
 5427      00
ARM GAS  C:\Users\mark6\AppData\Local\Temp\ccQgPzp9.s 			page 146


 5428              	.LASF113:
 5429 0239 433A5C55 		.ascii	"C:\\Users\\mark6\\Google Drive\\Projects\\BarBot\\B"
 5429      73657273 
 5429      5C6D6172 
 5429      6B365C47 
 5429      6F6F676C 
 5430 0266 6172426F 		.ascii	"arBot\\Bartender.cydsn\000"
 5430      745C4261 
 5430      7274656E 
 5430      6465722E 
 5430      63796473 
 5431              	.LASF65:
 5432 027c 5254435F 		.ascii	"RTC_ReadSecond\000"
 5432      52656164 
 5432      5365636F 
 5432      6E6400
 5433              	.LASF4:
 5434 028b 6C6F6E67 		.ascii	"long int\000"
 5434      20696E74 
 5434      00
 5435              	.LASF22:
 5436 0294 4D6F6E74 		.ascii	"Month\000"
 5436      6800
 5437              	.LASF59:
 5438 029a 5254435F 		.ascii	"RTC_WriteAlarmMonth\000"
 5438      57726974 
 5438      65416C61 
 5438      726D4D6F 
 5438      6E746800 
 5439              	.LASF44:
 5440 02ae 5254435F 		.ascii	"RTC_WriteTime\000"
 5440      57726974 
 5440      6554696D 
 5440      6500
 5441              	.LASF9:
 5442 02bc 75696E74 		.ascii	"uint8\000"
 5442      3800
 5443              	.LASF109:
 5444 02c2 5254435F 		.ascii	"RTC_statusDateTime\000"
 5444      73746174 
 5444      75734461 
 5444      74655469 
 5444      6D6500
 5445              	.LASF13:
 5446 02d5 646F7562 		.ascii	"double\000"
 5446      6C6500
 5447              	.LASF64:
 5448 02dc 5254435F 		.ascii	"RTC_ReadTime\000"
 5448      52656164 
 5448      54696D65 
 5448      00
 5449              	.LASF11:
 5450 02e9 75696E74 		.ascii	"uint32\000"
 5450      333200
 5451              	.LASF118:
 5452 02f0 4379496E 		.ascii	"CyIntSetVector\000"
 5452      74536574 
ARM GAS  C:\Users\mark6\AppData\Local\Temp\ccQgPzp9.s 			page 147


 5452      56656374 
 5452      6F7200
 5453              	.LASF80:
 5454 02ff 6D61736B 		.ascii	"mask\000"
 5454      00
 5455              	.LASF42:
 5456 0304 5254435F 		.ascii	"RTC_Enable\000"
 5456      456E6162 
 5456      6C6500
 5457              	.LASF98:
 5458 030f 5254435F 		.ascii	"RTC_alarmCfgTimeDate\000"
 5458      616C6172 
 5458      6D436667 
 5458      54696D65 
 5458      44617465 
 5459              	.LASF29:
 5460 0324 6D6F6E74 		.ascii	"month\000"
 5460      6800
 5461              	.LASF62:
 5462 032a 5254435F 		.ascii	"RTC_WriteAlarmDayOfYear\000"
 5462      57726974 
 5462      65416C61 
 5462      726D4461 
 5462      794F6659 
 5463              	.LASF8:
 5464 0342 756E7369 		.ascii	"unsigned int\000"
 5464      676E6564 
 5464      20696E74 
 5464      00
 5465              	.LASF5:
 5466 034f 6C6F6E67 		.ascii	"long unsigned int\000"
 5466      20756E73 
 5466      69676E65 
 5466      6420696E 
 5466      7400
 5467              	.LASF116:
 5468 0361 4379456E 		.ascii	"CyEnterCriticalSection\000"
 5468      74657243 
 5468      72697469 
 5468      63616C53 
 5468      65637469 
 5469              	.LASF20:
 5470 0378 4461794F 		.ascii	"DayOfMonth\000"
 5470      664D6F6E 
 5470      746800
 5471              	.LASF3:
 5472 0383 73686F72 		.ascii	"short unsigned int\000"
 5472      7420756E 
 5472      7369676E 
 5472      65642069 
 5472      6E7400
 5473              	.LASF23:
 5474 0396 59656172 		.ascii	"Year\000"
 5474      00
 5475              	.LASF36:
 5476 039b 5254435F 		.ascii	"RTC_alarmCfgMaskTemp\000"
 5476      616C6172 
ARM GAS  C:\Users\mark6\AppData\Local\Temp\ccQgPzp9.s 			page 148


 5476      6D436667 
 5476      4D61736B 
 5476      54656D70 
 5477              	.LASF119:
 5478 03b0 4379496E 		.ascii	"CyIntSetPriority\000"
 5478      74536574 
 5478      5072696F 
 5478      72697479 
 5478      00
 5479              	.LASF60:
 5480 03c1 5254435F 		.ascii	"RTC_WriteAlarmYear\000"
 5480      57726974 
 5480      65416C61 
 5480      726D5965 
 5480      617200
 5481              	.LASF72:
 5482 03d4 5254435F 		.ascii	"RTC_ReadAlarmMinute\000"
 5482      52656164 
 5482      416C6172 
 5482      6D4D696E 
 5482      75746500 
 5483              	.LASF33:
 5484 03e8 6461794F 		.ascii	"dayOfWeek\000"
 5484      66576565 
 5484      6B00
 5485              	.LASF31:
 5486 03f2 5254435F 		.ascii	"RTC_monthTemplate\000"
 5486      6D6F6E74 
 5486      6854656D 
 5486      706C6174 
 5486      6500
 5487              	.LASF103:
 5488 0404 5254435F 		.ascii	"RTC_dstOffsetMin\000"
 5488      6473744F 
 5488      66667365 
 5488      744D696E 
 5488      00
 5489              	.LASF16:
 5490 0415 72656733 		.ascii	"reg32\000"
 5490      3200
 5491              	.LASF110:
 5492 041b 5254435F 		.ascii	"RTC_daysInMonths\000"
 5492      64617973 
 5492      496E4D6F 
 5492      6E746873 
 5492      00
 5493              	.LASF27:
 5494 042c 73697A65 		.ascii	"sizetype\000"
 5494      74797065 
 5494      00
 5495              	.LASF50:
 5496 0435 5254435F 		.ascii	"RTC_WriteHour\000"
 5496      57726974 
 5496      65486F75 
 5496      7200
 5497              	.LASF34:
 5498 0443 5254435F 		.ascii	"RTC_DSTDateConversion\000"
ARM GAS  C:\Users\mark6\AppData\Local\Temp\ccQgPzp9.s 			page 149


 5498      44535444 
 5498      61746543 
 5498      6F6E7665 
 5498      7273696F 
 5499              	.LASF24:
 5500 0459 5254435F 		.ascii	"RTC_TIME_DATE\000"
 5500      54494D45 
 5500      5F444154 
 5500      4500
 5501              	.LASF91:
 5502 0467 5254435F 		.ascii	"RTC_WriteDSTStopDayOfMonth\000"
 5502      57726974 
 5502      65445354 
 5502      53746F70 
 5502      4461794F 
 5503              	.LASF45:
 5504 0482 74696D65 		.ascii	"timeDate\000"
 5504      44617465 
 5504      00
 5505              	.LASF67:
 5506 048b 5254435F 		.ascii	"RTC_ReadHour\000"
 5506      52656164 
 5506      486F7572 
 5506      00
 5507              	.LASF51:
 5508 0498 686F7572 		.ascii	"hour\000"
 5508      00
 5509              	.LASF74:
 5510 049d 5254435F 		.ascii	"RTC_ReadAlarmDayOfMonth\000"
 5510      52656164 
 5510      416C6172 
 5510      6D446179 
 5510      4F664D6F 
 5511              	.LASF81:
 5512 04b5 5254435F 		.ascii	"RTC_WriteIntervalMask\000"
 5512      57726974 
 5512      65496E74 
 5512      65727661 
 5512      6C4D6173 
 5513              	.LASF12:
 5514 04cb 666C6F61 		.ascii	"float\000"
 5514      7400
 5515              	.LASF28:
 5516 04d1 6461794F 		.ascii	"dayOfMonth\000"
 5516      664D6F6E 
 5516      746800
 5517              	.LASF114:
 5518 04dc 5254435F 		.ascii	"RTC_DayOfWeek\000"
 5518      4461794F 
 5518      66576565 
 5518      6B00
 5519              	.LASF48:
 5520 04ea 5254435F 		.ascii	"RTC_WriteMinute\000"
 5520      57726974 
 5520      654D696E 
 5520      75746500 
 5521              	.LASF90:
ARM GAS  C:\Users\mark6\AppData\Local\Temp\ccQgPzp9.s 			page 150


 5522 04fa 5254435F 		.ascii	"RTC_WriteDSTStopHour\000"
 5522      57726974 
 5522      65445354 
 5522      53746F70 
 5522      486F7572 
 5523              	.LASF15:
 5524 050f 72656738 		.ascii	"reg8\000"
 5524      00
 5525              	.LASF1:
 5526 0514 756E7369 		.ascii	"unsigned char\000"
 5526      676E6564 
 5526      20636861 
 5526      7200
 5527              	.LASF99:
 5528 0522 5254435F 		.ascii	"RTC_currentTimeDate\000"
 5528      63757272 
 5528      656E7454 
 5528      696D6544 
 5528      61746500 
 5529              	.LASF47:
 5530 0536 7365636F 		.ascii	"second\000"
 5530      6E6400
 5531              	.LASF108:
 5532 053d 5254435F 		.ascii	"RTC_intervalCfgMask\000"
 5532      696E7465 
 5532      7276616C 
 5532      4366674D 
 5532      61736B00 
 5533              	.LASF2:
 5534 0551 73686F72 		.ascii	"short int\000"
 5534      7420696E 
 5534      7400
 5535              	.LASF40:
 5536 055b 5254435F 		.ascii	"RTC_Stop\000"
 5536      53746F70 
 5536      00
 5537              	.LASF19:
 5538 0564 4461794F 		.ascii	"DayOfWeek\000"
 5538      66576565 
 5538      6B00
 5539              	.LASF26:
 5540 056e 5254435F 		.ascii	"RTC_DSTIME\000"
 5540      44535449 
 5540      4D4500
 5541              	.LASF83:
 5542 0579 5254435F 		.ascii	"RTC_WriteDSTMode\000"
 5542      57726974 
 5542      65445354 
 5542      4D6F6465 
 5542      00
 5543              	.LASF63:
 5544 058a 6461794F 		.ascii	"dayOfYear\000"
 5544      66596561 
 5544      7200
 5545              	.LASF14:
 5546 0594 63686172 		.ascii	"char\000"
 5546      00
ARM GAS  C:\Users\mark6\AppData\Local\Temp\ccQgPzp9.s 			page 151


 5547              	.LASF84:
 5548 0599 6D6F6465 		.ascii	"mode\000"
 5548      00
 5549              	.LASF17:
 5550 059e 63796973 		.ascii	"cyisraddress\000"
 5550      72616464 
 5550      72657373 
 5550      00
 5551              	.LASF71:
 5552 05ab 5254435F 		.ascii	"RTC_ReadAlarmSecond\000"
 5552      52656164 
 5552      416C6172 
 5552      6D536563 
 5552      6F6E6400 
 5553              	.LASF68:
 5554 05bf 5254435F 		.ascii	"RTC_ReadDayOfMonth\000"
 5554      52656164 
 5554      4461794F 
 5554      664D6F6E 
 5554      746800
 5555              	.LASF56:
 5556 05d2 5254435F 		.ascii	"RTC_WriteAlarmMinute\000"
 5556      57726974 
 5556      65416C61 
 5556      726D4D69 
 5556      6E757465 
 5557              	.LASF96:
 5558 05e7 6F666673 		.ascii	"offset\000"
 5558      657400
 5559              	.LASF101:
 5560 05ee 5254435F 		.ascii	"RTC_dstTimeDateStart\000"
 5560      64737454 
 5560      696D6544 
 5560      61746553 
 5560      74617274 
 5561              	.LASF78:
 5562 0603 5254435F 		.ascii	"RTC_ReadAlarmDayOfYear\000"
 5562      52656164 
 5562      416C6172 
 5562      6D446179 
 5562      4F665965 
 5563              	.LASF54:
 5564 061a 5254435F 		.ascii	"RTC_WriteYear\000"
 5564      57726974 
 5564      65596561 
 5564      7200
 5565              	.LASF85:
 5566 0628 5254435F 		.ascii	"RTC_WriteDSTStartHour\000"
 5566      57726974 
 5566      65445354 
 5566      53746172 
 5566      74486F75 
 5567              	.LASF52:
 5568 063e 5254435F 		.ascii	"RTC_WriteDayOfMonth\000"
 5568      57726974 
 5568      65446179 
 5568      4F664D6F 
ARM GAS  C:\Users\mark6\AppData\Local\Temp\ccQgPzp9.s 			page 152


 5568      6E746800 
 5569              	.LASF79:
 5570 0652 5254435F 		.ascii	"RTC_WriteAlarmMask\000"
 5570      57726974 
 5570      65416C61 
 5570      726D4D61 
 5570      736B00
 5571              	.LASF53:
 5572 0665 5254435F 		.ascii	"RTC_WriteMonth\000"
 5572      57726974 
 5572      654D6F6E 
 5572      746800
 5573              	.LASF35:
 5574 0674 5254435F 		.ascii	"RTC_SetInitValues\000"
 5574      53657449 
 5574      6E697456 
 5574      616C7565 
 5574      7300
 5575              	.LASF49:
 5576 0686 6D696E75 		.ascii	"minute\000"
 5576      746500
 5577              	.LASF88:
 5578 068d 5254435F 		.ascii	"RTC_WriteDSTStartDayOfWeek\000"
 5578      57726974 
 5578      65445354 
 5578      53746172 
 5578      74446179 
 5579              	.LASF66:
 5580 06a8 5254435F 		.ascii	"RTC_ReadMinute\000"
 5580      52656164 
 5580      4D696E75 
 5580      746500
 5581              	.LASF77:
 5582 06b7 5254435F 		.ascii	"RTC_ReadAlarmDayOfWeek\000"
 5582      52656164 
 5582      416C6172 
 5582      6D446179 
 5582      4F665765 
 5583              	.LASF89:
 5584 06ce 5254435F 		.ascii	"RTC_WriteDSTStartWeek\000"
 5584      57726974 
 5584      65445354 
 5584      53746172 
 5584      74576565 
 5585              	.LASF70:
 5586 06e4 5254435F 		.ascii	"RTC_ReadYear\000"
 5586      52656164 
 5586      59656172 
 5586      00
 5587              	.LASF82:
 5588 06f1 73746174 		.ascii	"status\000"
 5588      757300
 5589              	.LASF111:
 5590 06f8 474E5520 		.ascii	"GNU C 4.9.3 20150303 (release) [ARM/embedded-4_9-br"
 5590      4320342E 
 5590      392E3320 
 5590      32303135 
ARM GAS  C:\Users\mark6\AppData\Local\Temp\ccQgPzp9.s 			page 153


 5590      30333033 
 5591 072b 616E6368 		.ascii	"anch revision 221220] -mcpu=cortex-m3 -mthumb -g -O"
 5591      20726576 
 5591      6973696F 
 5591      6E203232 
 5591      31323230 
 5592 075e 67202D66 		.ascii	"g -ffunction-sections -ffat-lto-objects\000"
 5592      66756E63 
 5592      74696F6E 
 5592      2D736563 
 5592      74696F6E 
 5593              	.LASF115:
 5594 0786 5254435F 		.ascii	"RTC_ReadStatus\000"
 5594      52656164 
 5594      53746174 
 5594      757300
 5595              	.LASF76:
 5596 0795 5254435F 		.ascii	"RTC_ReadAlarmYear\000"
 5596      52656164 
 5596      416C6172 
 5596      6D596561 
 5596      7200
 5597              	.LASF32:
 5598 07a7 7765656B 		.ascii	"week\000"
 5598      00
 5599              	.LASF105:
 5600 07ac 5254435F 		.ascii	"RTC_dstStopStatus\000"
 5600      64737453 
 5600      746F7053 
 5600      74617475 
 5600      7300
 5601              	.LASF46:
 5602 07be 5254435F 		.ascii	"RTC_WriteSecond\000"
 5602      57726974 
 5602      65536563 
 5602      6F6E6400 
 5603              	.LASF21:
 5604 07ce 4461794F 		.ascii	"DayOfYear\000"
 5604      66596561 
 5604      7200
 5605              		.ident	"GCC: (GNU Tools for ARM Embedded Processors) 4.9.3 20150303 (release) [ARM/embedded-4_9-br
